

Microchip MPLAB XC8 Assembler V2.32 build 20210201212658 
                                                                                               Fri Jul 02 17:19:09 2021

Microchip MPLAB XC8 C Compiler v2.32 (Free license) build 20210201212658 Og1 
     1                           	processor	18LF45K50
     2                           	fnconf	rparam,??,?,0
     3                           	pagewidth 120
     4                           	opt	flic
     5                           	psect	idataBANK0,global,class=CODE,delta=1,noexec
     6                           	psect	mediumconst,global,reloc=2,class=MEDIUMCONST,delta=1,noexec
     7                           	psect	cinit,global,reloc=2,class=CODE,delta=1
     8                           	psect	bssBANK0,global,class=BANK0,space=1,delta=1,lowdata,noexec
     9                           	psect	dataBANK0,global,class=BANK0,space=1,delta=1,lowdata,noexec
    10                           	psect	cstackBANK0,global,class=BANK0,space=1,delta=1,lowdata,noexec
    11                           	psect	cstackCOMRAM,global,class=COMRAM,space=1,delta=1,lowdata,noexec
    12                           	psect	text0,global,reloc=2,class=CODE,delta=1
    13                           	psect	text1,global,reloc=2,class=CODE,delta=1
    14                           	psect	text2,global,reloc=2,class=CODE,delta=1,group=2
    15                           	psect	text3,global,reloc=2,class=CODE,delta=1,group=2
    16                           	psect	text4,global,reloc=2,class=CODE,delta=1
    17                           	psect	text5,global,reloc=2,class=CODE,delta=1
    18                           	psect	text6,global,reloc=2,class=CODE,delta=1
    19                           	psect	text7,global,reloc=2,class=CODE,delta=1
    20                           	psect	text8,global,reloc=2,class=CODE,delta=1
    21                           	psect	text9,global,reloc=2,class=CODE,delta=1
    22                           	psect	text10,global,reloc=2,class=CODE,delta=1
    23                           	psect	text11,global,reloc=2,class=CODE,delta=1
    24                           	psect	text12,global,reloc=2,class=CODE,delta=1
    25                           	psect	text13,global,reloc=2,class=CODE,delta=1
    26                           	psect	text14,global,reloc=2,class=CODE,delta=1,group=3
    27                           	psect	text15,global,reloc=2,class=CODE,delta=1,group=1
    28                           	psect	text16,global,reloc=2,class=CODE,delta=1,group=1
    29                           	psect	text17,global,reloc=2,class=CODE,delta=1,group=1
    30                           	psect	text18,global,reloc=2,class=CODE,delta=1,group=1
    31                           	psect	text19,global,reloc=2,class=CODE,delta=1,group=3
    32                           	psect	text20,global,reloc=2,class=CODE,delta=1,group=3
    33                           	psect	text21,global,reloc=2,class=CODE,delta=1,group=3
    34                           	psect	text22,global,reloc=2,class=CODE,delta=1,group=2
    35                           	psect	text23,global,reloc=2,class=CODE,delta=1,group=2
    36                           	psect	text24,global,reloc=2,class=CODE,delta=1,group=1
    37                           	psect	text25,global,reloc=2,class=CODE,delta=1,group=3
    38                           	psect	text26,global,reloc=2,class=CODE,delta=1,group=3
    39                           	psect	text27,global,reloc=2,class=CODE,delta=1
    40                           	psect	text28,global,reloc=2,class=CODE,delta=1
    41                           	psect	text29,global,reloc=2,class=CODE,delta=1
    42                           	psect	text30,global,reloc=2,class=CODE,delta=1
    43                           	psect	text31,global,reloc=2,class=CODE,delta=1
    44                           	psect	text32,global,reloc=2,class=CODE,delta=1
    45                           	psect	text33,global,reloc=2,class=CODE,delta=1
    46                           	psect	text34,global,reloc=2,class=CODE,delta=1
    47                           	psect	text35,global,reloc=2,class=CODE,delta=1
    48                           	psect	text36,global,reloc=2,class=CODE,delta=1
    49                           	psect	text37,global,reloc=2,class=CODE,delta=1
    50                           	psect	text38,global,reloc=2,class=CODE,delta=1
    51                           	psect	text39,global,reloc=2,class=CODE,delta=1
    52                           	psect	text40,global,reloc=2,class=CODE,delta=1
    53                           	psect	text41,global,reloc=2,class=CODE,delta=1
    54                           	psect	text42,global,reloc=2,class=CODE,delta=1
    55                           	psect	text43,global,reloc=2,class=CODE,delta=1
    56                           	psect	text44,global,reloc=2,class=CODE,delta=1
    57                           	psect	text45,global,reloc=2,class=CODE,delta=1
    58                           	psect	text46,global,reloc=2,class=CODE,delta=1
    59                           	psect	intsave_regs,global,class=BIGRAM,space=1,delta=1,noexec
    60                           	psect	rparam,global,class=COMRAM,space=1,delta=1,noexec
    61                           	psect	idloc,global,abs,ovrld,class=IDLOC,space=5,delta=1,noexec
    62                           	psect	config,global,abs,ovrld,class=CONFIG,space=4,delta=1,noexec
    63  0000                     
    64                           ; Version 2.20
    65                           ; Generated 05/05/2020 GMT
    66                           ; 
    67                           ; Copyright © 2020, Microchip Technology Inc. and its subsidiaries ("Microchip")
    68                           ; All rights reserved.
    69                           ; 
    70                           ; This software is developed by Microchip Technology Inc. and its subsidiaries ("Microch
      +                          ip").
    71                           ; 
    72                           ; Redistribution and use in source and binary forms, with or without modification, are
    73                           ; permitted provided that the following conditions are met:
    74                           ; 
    75                           ;     1. Redistributions of source code must retain the above copyright notice, this lis
      +                          t of
    76                           ;        conditions and the following disclaimer.
    77                           ; 
    78                           ;     2. Redistributions in binary form must reproduce the above copyright notice, this 
      +                          list
    79                           ;        of conditions and the following disclaimer in the documentation and/or other
    80                           ;        materials provided with the distribution.
    81                           ; 
    82                           ;     3. Microchip's name may not be used to endorse or promote products derived from th
      +                          is
    83                           ;        software without specific prior written permission.
    84                           ; 
    85                           ; THIS SOFTWARE IS PROVIDED BY MICROCHIP "AS IS" AND ANY EXPRESS OR IMPLIED WARRANTIES,
    86                           ; INCLUDING, BUT NOT LIMITED TO, THE IMPLIED WARRANTIES OF MERCHANTABILITY AND FITNESS F
      +                          OR
    87                           ; PURPOSE ARE DISCLAIMED.  IN NO EVENT SHALL MICROCHIP BE LIABLE FOR ANY DIRECT, INDIREC
      +                          T,
    88                           ; INCIDENTAL, SPECIAL, EXEMPLARY, OR CONSEQUENTIAL DAMAGES (INCLUDING BUT NOT LIMITED TO
    89                           ; PROCUREMENT OF SUBSTITUTE GOODS OR SERVICES; LOSS OF USE, DATA OR PROFITS; OR BUSINESS
    90                           ; INTERRUPTION) HOWSOEVER CAUSED AND ON ANY THEORY OF LIABILITY, WHETHER IN CONTRACT, ST
      +                          RICT
    91                           ; LIABILITY, OR TORT (INCLUDING NEGLIGENCE OR OTHERWISE) ARISING IN ANY WAY OUT OF THE U
      +                          SE OF
    92                           ; THIS SOFTWARE, EVEN IF ADVISED OF THE POSSIBILITY OF SUCH DAMAGE.
    93                           ; 
    94                           ; 
    95                           ; Code-generator required, PIC18LF45K50 Definitions
    96                           ; 
    97                           ; SFR Addresses
    98  0000                     
    99 ;; Function _EUSART1_DefaultFramingErrorHandler is unused but had its address taken
   100  0000                     
   101 ;; Function _EUSART1_DefaultOverrunErrorHandler is unused but had its address taken
   102  0000                     
   103 ;; Function _EUSART1_DefaultErrorHandler is unused but had its address taken
   104  0000                     
   105                           	psect	idataBANK0
   106  005B63                     __pidataBANK0:
   107                           	callstack 0
   108                           
   109                           ;initializer for _selectedFont
   110  005B63  E9                 	db	low _OledFont0
   111  005B64  79                 	db	high _OledFont0
   112                           
   113                           ;initializer for _Contrast_level
   114  005B65  13                 	db	19
   115                           
   116                           	psect	mediumconst
   117  0079E8                     __pmediumconst:
   118                           	callstack 0
   119  0079E8  00                 	db	0
   120  0079E9                     _OledFont0:
   121                           	callstack 0
   122  0079E9  00                 	db	0
   123  0079EA  00                 	db	0
   124  0079EB  00                 	db	0
   125  0079EC  00                 	db	0
   126  0079ED  00                 	db	0
   127  0079EE  00                 	db	0
   128  0079EF  00                 	db	0
   129  0079F0  00                 	db	0
   130  0079F1  00                 	db	0
   131  0079F2  00                 	db	0
   132  0079F3  00                 	db	0
   133  0079F4  5F                 	db	95
   134  0079F5  00                 	db	0
   135  0079F6  00                 	db	0
   136  0079F7  00                 	db	0
   137  0079F8  00                 	db	0
   138  0079F9  00                 	db	0
   139  0079FA  00                 	db	0
   140  0079FB  03                 	db	3
   141  0079FC  00                 	db	0
   142  0079FD  03                 	db	3
   143  0079FE  00                 	db	0
   144  0079FF  00                 	db	0
   145  007A00  00                 	db	0
   146  007A01  64                 	db	100
   147  007A02  3C                 	db	60
   148  007A03  26                 	db	38
   149  007A04  64                 	db	100
   150  007A05  3C                 	db	60
   151  007A06  26                 	db	38
   152  007A07  24                 	db	36
   153  007A08  00                 	db	0
   154  007A09  26                 	db	38
   155  007A0A  49                 	db	73
   156  007A0B  49                 	db	73
   157  007A0C  7F                 	db	127
   158  007A0D  49                 	db	73
   159  007A0E  49                 	db	73
   160  007A0F  32                 	db	50
   161  007A10  00                 	db	0
   162  007A11  42                 	db	66
   163  007A12  25                 	db	37
   164  007A13  12                 	db	18
   165  007A14  08                 	db	8
   166  007A15  24                 	db	36
   167  007A16  52                 	db	82
   168  007A17  21                 	db	33
   169  007A18  00                 	db	0
   170  007A19  20                 	db	32
   171  007A1A  50                 	db	80
   172  007A1B  4E                 	db	78
   173  007A1C  55                 	db	85
   174  007A1D  22                 	db	34
   175  007A1E  58                 	db	88
   176  007A1F  28                 	db	40
   177  007A20  00                 	db	0
   178  007A21  00                 	db	0
   179  007A22  00                 	db	0
   180  007A23  00                 	db	0
   181  007A24  03                 	db	3
   182  007A25  00                 	db	0
   183  007A26  00                 	db	0
   184  007A27  00                 	db	0
   185  007A28  00                 	db	0
   186  007A29  00                 	db	0
   187  007A2A  00                 	db	0
   188  007A2B  1C                 	db	28
   189  007A2C  22                 	db	34
   190  007A2D  41                 	db	65
   191  007A2E  00                 	db	0
   192  007A2F  00                 	db	0
   193  007A30  00                 	db	0
   194  007A31  00                 	db	0
   195  007A32  00                 	db	0
   196  007A33  00                 	db	0
   197  007A34  41                 	db	65
   198  007A35  22                 	db	34
   199  007A36  1C                 	db	28
   200  007A37  00                 	db	0
   201  007A38  00                 	db	0
   202  007A39  00                 	db	0
   203  007A3A  15                 	db	21
   204  007A3B  15                 	db	21
   205  007A3C  0E                 	db	14
   206  007A3D  0E                 	db	14
   207  007A3E  15                 	db	21
   208  007A3F  15                 	db	21
   209  007A40  00                 	db	0
   210  007A41  00                 	db	0
   211  007A42  08                 	db	8
   212  007A43  08                 	db	8
   213  007A44  3E                 	db	62
   214  007A45  08                 	db	8
   215  007A46  08                 	db	8
   216  007A47  00                 	db	0
   217  007A48  00                 	db	0
   218  007A49  00                 	db	0
   219  007A4A  00                 	db	0
   220  007A4B  00                 	db	0
   221  007A4C  50                 	db	80
   222  007A4D  30                 	db	48
   223  007A4E  00                 	db	0
   224  007A4F  00                 	db	0
   225  007A50  00                 	db	0
   226  007A51  00                 	db	0
   227  007A52  08                 	db	8
   228  007A53  08                 	db	8
   229  007A54  08                 	db	8
   230  007A55  08                 	db	8
   231  007A56  08                 	db	8
   232  007A57  00                 	db	0
   233  007A58  00                 	db	0
   234  007A59  00                 	db	0
   235  007A5A  00                 	db	0
   236  007A5B  00                 	db	0
   237  007A5C  40                 	db	64
   238  007A5D  00                 	db	0
   239  007A5E  00                 	db	0
   240  007A5F  00                 	db	0
   241  007A60  00                 	db	0
   242  007A61  40                 	db	64
   243  007A62  20                 	db	32
   244  007A63  10                 	db	16
   245  007A64  08                 	db	8
   246  007A65  04                 	db	4
   247  007A66  02                 	db	2
   248  007A67  01                 	db	1
   249  007A68  00                 	db	0
   250  007A69  00                 	db	0
   251  007A6A  3E                 	db	62
   252  007A6B  41                 	db	65
   253  007A6C  41                 	db	65
   254  007A6D  41                 	db	65
   255  007A6E  3E                 	db	62
   256  007A6F  00                 	db	0
   257  007A70  00                 	db	0
   258  007A71  00                 	db	0
   259  007A72  00                 	db	0
   260  007A73  41                 	db	65
   261  007A74  7F                 	db	127
   262  007A75  40                 	db	64
   263  007A76  00                 	db	0
   264  007A77  00                 	db	0
   265  007A78  00                 	db	0
   266  007A79  00                 	db	0
   267  007A7A  42                 	db	66
   268  007A7B  61                 	db	97
   269  007A7C  51                 	db	81
   270  007A7D  49                 	db	73
   271  007A7E  6E                 	db	110
   272  007A7F  00                 	db	0
   273  007A80  00                 	db	0
   274  007A81  00                 	db	0
   275  007A82  22                 	db	34
   276  007A83  41                 	db	65
   277  007A84  49                 	db	73
   278  007A85  49                 	db	73
   279  007A86  36                 	db	54
   280  007A87  00                 	db	0
   281  007A88  00                 	db	0
   282  007A89  00                 	db	0
   283  007A8A  18                 	db	24
   284  007A8B  14                 	db	20
   285  007A8C  12                 	db	18
   286  007A8D  7F                 	db	127
   287  007A8E  10                 	db	16
   288  007A8F  00                 	db	0
   289  007A90  00                 	db	0
   290  007A91  00                 	db	0
   291  007A92  27                 	db	39
   292  007A93  49                 	db	73
   293  007A94  49                 	db	73
   294  007A95  49                 	db	73
   295  007A96  71                 	db	113
   296  007A97  00                 	db	0
   297  007A98  00                 	db	0
   298  007A99  00                 	db	0
   299  007A9A  3C                 	db	60
   300  007A9B  4A                 	db	74
   301  007A9C  49                 	db	73
   302  007A9D  48                 	db	72
   303  007A9E  70                 	db	112
   304  007A9F  00                 	db	0
   305  007AA0  00                 	db	0
   306  007AA1  00                 	db	0
   307  007AA2  43                 	db	67
   308  007AA3  21                 	db	33
   309  007AA4  11                 	db	17
   310  007AA5  0D                 	db	13
   311  007AA6  03                 	db	3
   312  007AA7  00                 	db	0
   313  007AA8  00                 	db	0
   314  007AA9  00                 	db	0
   315  007AAA  36                 	db	54
   316  007AAB  49                 	db	73
   317  007AAC  49                 	db	73
   318  007AAD  49                 	db	73
   319  007AAE  36                 	db	54
   320  007AAF  00                 	db	0
   321  007AB0  00                 	db	0
   322  007AB1  00                 	db	0
   323  007AB2  06                 	db	6
   324  007AB3  09                 	db	9
   325  007AB4  49                 	db	73
   326  007AB5  29                 	db	41
   327  007AB6  1E                 	db	30
   328  007AB7  00                 	db	0
   329  007AB8  00                 	db	0
   330  007AB9  00                 	db	0
   331  007ABA  00                 	db	0
   332  007ABB  00                 	db	0
   333  007ABC  12                 	db	18
   334  007ABD  00                 	db	0
   335  007ABE  00                 	db	0
   336  007ABF  00                 	db	0
   337  007AC0  00                 	db	0
   338  007AC1  00                 	db	0
   339  007AC2  00                 	db	0
   340  007AC3  00                 	db	0
   341  007AC4  52                 	db	82
   342  007AC5  30                 	db	48
   343  007AC6  00                 	db	0
   344  007AC7  00                 	db	0
   345  007AC8  00                 	db	0
   346  007AC9  00                 	db	0
   347  007ACA  00                 	db	0
   348  007ACB  08                 	db	8
   349  007ACC  14                 	db	20
   350  007ACD  14                 	db	20
   351  007ACE  22                 	db	34
   352  007ACF  00                 	db	0
   353  007AD0  00                 	db	0
   354  007AD1  00                 	db	0
   355  007AD2  14                 	db	20
   356  007AD3  14                 	db	20
   357  007AD4  14                 	db	20
   358  007AD5  14                 	db	20
   359  007AD6  14                 	db	20
   360  007AD7  14                 	db	20
   361  007AD8  00                 	db	0
   362  007AD9  00                 	db	0
   363  007ADA  00                 	db	0
   364  007ADB  22                 	db	34
   365  007ADC  14                 	db	20
   366  007ADD  14                 	db	20
   367  007ADE  08                 	db	8
   368  007ADF  00                 	db	0
   369  007AE0  00                 	db	0
   370  007AE1  00                 	db	0
   371  007AE2  02                 	db	2
   372  007AE3  01                 	db	1
   373  007AE4  59                 	db	89
   374  007AE5  05                 	db	5
   375  007AE6  02                 	db	2
   376  007AE7  00                 	db	0
   377  007AE8  00                 	db	0
   378  007AE9  3E                 	db	62
   379  007AEA  41                 	db	65
   380  007AEB  5D                 	db	93
   381  007AEC  55                 	db	85
   382  007AED  4D                 	db	77
   383  007AEE  51                 	db	81
   384  007AEF  2E                 	db	46
   385  007AF0  00                 	db	0
   386  007AF1  40                 	db	64
   387  007AF2  7C                 	db	124
   388  007AF3  4A                 	db	74
   389  007AF4  09                 	db	9
   390  007AF5  4A                 	db	74
   391  007AF6  7C                 	db	124
   392  007AF7  40                 	db	64
   393  007AF8  00                 	db	0
   394  007AF9  41                 	db	65
   395  007AFA  7F                 	db	127
   396  007AFB  49                 	db	73
   397  007AFC  49                 	db	73
   398  007AFD  49                 	db	73
   399  007AFE  49                 	db	73
   400  007AFF  36                 	db	54
   401  007B00  00                 	db	0
   402  007B01  1C                 	db	28
   403  007B02  22                 	db	34
   404  007B03  41                 	db	65
   405  007B04  41                 	db	65
   406  007B05  41                 	db	65
   407  007B06  41                 	db	65
   408  007B07  22                 	db	34
   409  007B08  00                 	db	0
   410  007B09  41                 	db	65
   411  007B0A  7F                 	db	127
   412  007B0B  41                 	db	65
   413  007B0C  41                 	db	65
   414  007B0D  41                 	db	65
   415  007B0E  22                 	db	34
   416  007B0F  1C                 	db	28
   417  007B10  00                 	db	0
   418  007B11  41                 	db	65
   419  007B12  7F                 	db	127
   420  007B13  49                 	db	73
   421  007B14  49                 	db	73
   422  007B15  5D                 	db	93
   423  007B16  41                 	db	65
   424  007B17  63                 	db	99
   425  007B18  00                 	db	0
   426  007B19  41                 	db	65
   427  007B1A  7F                 	db	127
   428  007B1B  49                 	db	73
   429  007B1C  09                 	db	9
   430  007B1D  1D                 	db	29
   431  007B1E  01                 	db	1
   432  007B1F  03                 	db	3
   433  007B20  00                 	db	0
   434  007B21  1C                 	db	28
   435  007B22  22                 	db	34
   436  007B23  41                 	db	65
   437  007B24  49                 	db	73
   438  007B25  49                 	db	73
   439  007B26  3A                 	db	58
   440  007B27  08                 	db	8
   441  007B28  00                 	db	0
   442  007B29  41                 	db	65
   443  007B2A  7F                 	db	127
   444  007B2B  08                 	db	8
   445  007B2C  08                 	db	8
   446  007B2D  08                 	db	8
   447  007B2E  7F                 	db	127
   448  007B2F  41                 	db	65
   449  007B30  00                 	db	0
   450  007B31  00                 	db	0
   451  007B32  41                 	db	65
   452  007B33  41                 	db	65
   453  007B34  7F                 	db	127
   454  007B35  41                 	db	65
   455  007B36  41                 	db	65
   456  007B37  00                 	db	0
   457  007B38  00                 	db	0
   458  007B39  30                 	db	48
   459  007B3A  40                 	db	64
   460  007B3B  41                 	db	65
   461  007B3C  41                 	db	65
   462  007B3D  3F                 	db	63
   463  007B3E  01                 	db	1
   464  007B3F  01                 	db	1
   465  007B40  00                 	db	0
   466  007B41  41                 	db	65
   467  007B42  7F                 	db	127
   468  007B43  08                 	db	8
   469  007B44  0C                 	db	12
   470  007B45  12                 	db	18
   471  007B46  61                 	db	97
   472  007B47  41                 	db	65
   473  007B48  00                 	db	0
   474  007B49  41                 	db	65
   475  007B4A  7F                 	db	127
   476  007B4B  41                 	db	65
   477  007B4C  40                 	db	64
   478  007B4D  40                 	db	64
   479  007B4E  40                 	db	64
   480  007B4F  60                 	db	96
   481  007B50  00                 	db	0
   482  007B51  41                 	db	65
   483  007B52  7F                 	db	127
   484  007B53  42                 	db	66
   485  007B54  0C                 	db	12
   486  007B55  42                 	db	66
   487  007B56  7F                 	db	127
   488  007B57  41                 	db	65
   489  007B58  00                 	db	0
   490  007B59  41                 	db	65
   491  007B5A  7F                 	db	127
   492  007B5B  42                 	db	66
   493  007B5C  0C                 	db	12
   494  007B5D  11                 	db	17
   495  007B5E  7F                 	db	127
   496  007B5F  01                 	db	1
   497  007B60  00                 	db	0
   498  007B61  1C                 	db	28
   499  007B62  22                 	db	34
   500  007B63  41                 	db	65
   501  007B64  41                 	db	65
   502  007B65  41                 	db	65
   503  007B66  22                 	db	34
   504  007B67  1C                 	db	28
   505  007B68  00                 	db	0
   506  007B69  41                 	db	65
   507  007B6A  7F                 	db	127
   508  007B6B  49                 	db	73
   509  007B6C  09                 	db	9
   510  007B6D  09                 	db	9
   511  007B6E  09                 	db	9
   512  007B6F  06                 	db	6
   513  007B70  00                 	db	0
   514  007B71  0C                 	db	12
   515  007B72  12                 	db	18
   516  007B73  21                 	db	33
   517  007B74  21                 	db	33
   518  007B75  61                 	db	97
   519  007B76  52                 	db	82
   520  007B77  4C                 	db	76
   521  007B78  00                 	db	0
   522  007B79  41                 	db	65
   523  007B7A  7F                 	db	127
   524  007B7B  09                 	db	9
   525  007B7C  09                 	db	9
   526  007B7D  19                 	db	25
   527  007B7E  69                 	db	105
   528  007B7F  46                 	db	70
   529  007B80  00                 	db	0
   530  007B81  66                 	db	102
   531  007B82  49                 	db	73
   532  007B83  49                 	db	73
   533  007B84  49                 	db	73
   534  007B85  49                 	db	73
   535  007B86  49                 	db	73
   536  007B87  33                 	db	51
   537  007B88  00                 	db	0
   538  007B89  03                 	db	3
   539  007B8A  01                 	db	1
   540  007B8B  41                 	db	65
   541  007B8C  7F                 	db	127
   542  007B8D  41                 	db	65
   543  007B8E  01                 	db	1
   544  007B8F  03                 	db	3
   545  007B90  00                 	db	0
   546  007B91  01                 	db	1
   547  007B92  3F                 	db	63
   548  007B93  41                 	db	65
   549  007B94  40                 	db	64
   550  007B95  41                 	db	65
   551  007B96  3F                 	db	63
   552  007B97  01                 	db	1
   553  007B98  00                 	db	0
   554  007B99  01                 	db	1
   555  007B9A  0F                 	db	15
   556  007B9B  31                 	db	49
   557  007B9C  40                 	db	64
   558  007B9D  31                 	db	49
   559  007B9E  0F                 	db	15
   560  007B9F  01                 	db	1
   561  007BA0  00                 	db	0
   562  007BA1  01                 	db	1
   563  007BA2  1F                 	db	31
   564  007BA3  61                 	db	97
   565  007BA4  14                 	db	20
   566  007BA5  61                 	db	97
   567  007BA6  1F                 	db	31
   568  007BA7  01                 	db	1
   569  007BA8  00                 	db	0
   570  007BA9  41                 	db	65
   571  007BAA  41                 	db	65
   572  007BAB  36                 	db	54
   573  007BAC  08                 	db	8
   574  007BAD  36                 	db	54
   575  007BAE  41                 	db	65
   576  007BAF  41                 	db	65
   577  007BB0  00                 	db	0
   578  007BB1  01                 	db	1
   579  007BB2  03                 	db	3
   580  007BB3  44                 	db	68
   581  007BB4  78                 	db	120
   582  007BB5  44                 	db	68
   583  007BB6  03                 	db	3
   584  007BB7  01                 	db	1
   585  007BB8  00                 	db	0
   586  007BB9  43                 	db	67
   587  007BBA  61                 	db	97
   588  007BBB  51                 	db	81
   589  007BBC  49                 	db	73
   590  007BBD  45                 	db	69
   591  007BBE  43                 	db	67
   592  007BBF  61                 	db	97
   593  007BC0  00                 	db	0
   594  007BC1  00                 	db	0
   595  007BC2  00                 	db	0
   596  007BC3  7F                 	db	127
   597  007BC4  41                 	db	65
   598  007BC5  41                 	db	65
   599  007BC6  00                 	db	0
   600  007BC7  00                 	db	0
   601  007BC8  00                 	db	0
   602  007BC9  01                 	db	1
   603  007BCA  02                 	db	2
   604  007BCB  04                 	db	4
   605  007BCC  08                 	db	8
   606  007BCD  10                 	db	16
   607  007BCE  20                 	db	32
   608  007BCF  40                 	db	64
   609  007BD0  00                 	db	0
   610  007BD1  00                 	db	0
   611  007BD2  00                 	db	0
   612  007BD3  41                 	db	65
   613  007BD4  41                 	db	65
   614  007BD5  7F                 	db	127
   615  007BD6  00                 	db	0
   616  007BD7  00                 	db	0
   617  007BD8  00                 	db	0
   618  007BD9  00                 	db	0
   619  007BDA  04                 	db	4
   620  007BDB  02                 	db	2
   621  007BDC  01                 	db	1
   622  007BDD  01                 	db	1
   623  007BDE  02                 	db	2
   624  007BDF  04                 	db	4
   625  007BE0  00                 	db	0
   626  007BE1  00                 	db	0
   627  007BE2  40                 	db	64
   628  007BE3  40                 	db	64
   629  007BE4  40                 	db	64
   630  007BE5  40                 	db	64
   631  007BE6  40                 	db	64
   632  007BE7  40                 	db	64
   633  007BE8  00                 	db	0
   634  007BE9  00                 	db	0
   635  007BEA  01                 	db	1
   636  007BEB  02                 	db	2
   637  007BEC  00                 	db	0
   638  007BED  00                 	db	0
   639  007BEE  00                 	db	0
   640  007BEF  00                 	db	0
   641  007BF0  00                 	db	0
   642  007BF1  00                 	db	0
   643  007BF2  34                 	db	52
   644  007BF3  4A                 	db	74
   645  007BF4  4A                 	db	74
   646  007BF5  4A                 	db	74
   647  007BF6  3C                 	db	60
   648  007BF7  40                 	db	64
   649  007BF8  00                 	db	0
   650  007BF9  00                 	db	0
   651  007BFA  41                 	db	65
   652  007BFB  3F                 	db	63
   653  007BFC  48                 	db	72
   654  007BFD  48                 	db	72
   655  007BFE  48                 	db	72
   656  007BFF  30                 	db	48
   657  007C00  00                 	db	0
   658  007C01  00                 	db	0
   659  007C02  3C                 	db	60
   660  007C03  42                 	db	66
   661  007C04  42                 	db	66
   662  007C05  42                 	db	66
   663  007C06  24                 	db	36
   664  007C07  00                 	db	0
   665  007C08  00                 	db	0
   666  007C09  00                 	db	0
   667  007C0A  30                 	db	48
   668  007C0B  48                 	db	72
   669  007C0C  48                 	db	72
   670  007C0D  49                 	db	73
   671  007C0E  3F                 	db	63
   672  007C0F  40                 	db	64
   673  007C10  00                 	db	0
   674  007C11  00                 	db	0
   675  007C12  3C                 	db	60
   676  007C13  4A                 	db	74
   677  007C14  4A                 	db	74
   678  007C15  4A                 	db	74
   679  007C16  2C                 	db	44
   680  007C17  00                 	db	0
   681  007C18  00                 	db	0
   682  007C19  00                 	db	0
   683  007C1A  00                 	db	0
   684  007C1B  48                 	db	72
   685  007C1C  7E                 	db	126
   686  007C1D  49                 	db	73
   687  007C1E  09                 	db	9
   688  007C1F  00                 	db	0
   689  007C20  00                 	db	0
   690  007C21  00                 	db	0
   691  007C22  26                 	db	38
   692  007C23  49                 	db	73
   693  007C24  49                 	db	73
   694  007C25  49                 	db	73
   695  007C26  3F                 	db	63
   696  007C27  01                 	db	1
   697  007C28  00                 	db	0
   698  007C29  41                 	db	65
   699  007C2A  7F                 	db	127
   700  007C2B  48                 	db	72
   701  007C2C  04                 	db	4
   702  007C2D  44                 	db	68
   703  007C2E  78                 	db	120
   704  007C2F  40                 	db	64
   705  007C30  00                 	db	0
   706  007C31  00                 	db	0
   707  007C32  00                 	db	0
   708  007C33  44                 	db	68
   709  007C34  7D                 	db	125
   710  007C35  40                 	db	64
   711  007C36  00                 	db	0
   712  007C37  00                 	db	0
   713  007C38  00                 	db	0
   714  007C39  00                 	db	0
   715  007C3A  00                 	db	0
   716  007C3B  40                 	db	64
   717  007C3C  44                 	db	68
   718  007C3D  3D                 	db	61
   719  007C3E  00                 	db	0
   720  007C3F  00                 	db	0
   721  007C40  00                 	db	0
   722  007C41  41                 	db	65
   723  007C42  7F                 	db	127
   724  007C43  10                 	db	16
   725  007C44  18                 	db	24
   726  007C45  24                 	db	36
   727  007C46  42                 	db	66
   728  007C47  42                 	db	66
   729  007C48  00                 	db	0
   730  007C49  00                 	db	0
   731  007C4A  40                 	db	64
   732  007C4B  41                 	db	65
   733  007C4C  7F                 	db	127
   734  007C4D  40                 	db	64
   735  007C4E  40                 	db	64
   736  007C4F  00                 	db	0
   737  007C50  00                 	db	0
   738  007C51  42                 	db	66
   739  007C52  7E                 	db	126
   740  007C53  02                 	db	2
   741  007C54  7C                 	db	124
   742  007C55  02                 	db	2
   743  007C56  7E                 	db	126
   744  007C57  40                 	db	64
   745  007C58  00                 	db	0
   746  007C59  42                 	db	66
   747  007C5A  7E                 	db	126
   748  007C5B  44                 	db	68
   749  007C5C  02                 	db	2
   750  007C5D  42                 	db	66
   751  007C5E  7C                 	db	124
   752  007C5F  40                 	db	64
   753  007C60  00                 	db	0
   754  007C61  00                 	db	0
   755  007C62  3C                 	db	60
   756  007C63  42                 	db	66
   757  007C64  42                 	db	66
   758  007C65  42                 	db	66
   759  007C66  3C                 	db	60
   760  007C67  00                 	db	0
   761  007C68  00                 	db	0
   762  007C69  00                 	db	0
   763  007C6A  41                 	db	65
   764  007C6B  7F                 	db	127
   765  007C6C  49                 	db	73
   766  007C6D  09                 	db	9
   767  007C6E  09                 	db	9
   768  007C6F  06                 	db	6
   769  007C70  00                 	db	0
   770  007C71  00                 	db	0
   771  007C72  06                 	db	6
   772  007C73  09                 	db	9
   773  007C74  09                 	db	9
   774  007C75  49                 	db	73
   775  007C76  7F                 	db	127
   776  007C77  41                 	db	65
   777  007C78  00                 	db	0
   778  007C79  00                 	db	0
   779  007C7A  42                 	db	66
   780  007C7B  7E                 	db	126
   781  007C7C  44                 	db	68
   782  007C7D  02                 	db	2
   783  007C7E  02                 	db	2
   784  007C7F  04                 	db	4
   785  007C80  00                 	db	0
   786  007C81  00                 	db	0
   787  007C82  64                 	db	100
   788  007C83  4A                 	db	74
   789  007C84  4A                 	db	74
   790  007C85  4A                 	db	74
   791  007C86  36                 	db	54
   792  007C87  00                 	db	0
   793  007C88  00                 	db	0
   794  007C89  00                 	db	0
   795  007C8A  04                 	db	4
   796  007C8B  3F                 	db	63
   797  007C8C  44                 	db	68
   798  007C8D  44                 	db	68
   799  007C8E  20                 	db	32
   800  007C8F  00                 	db	0
   801  007C90  00                 	db	0
   802  007C91  00                 	db	0
   803  007C92  02                 	db	2
   804  007C93  3E                 	db	62
   805  007C94  40                 	db	64
   806  007C95  40                 	db	64
   807  007C96  22                 	db	34
   808  007C97  7E                 	db	126
   809  007C98  40                 	db	64
   810  007C99  02                 	db	2
   811  007C9A  0E                 	db	14
   812  007C9B  32                 	db	50
   813  007C9C  40                 	db	64
   814  007C9D  32                 	db	50
   815  007C9E  0E                 	db	14
   816  007C9F  02                 	db	2
   817  007CA0  00                 	db	0
   818  007CA1  02                 	db	2
   819  007CA2  1E                 	db	30
   820  007CA3  62                 	db	98
   821  007CA4  18                 	db	24
   822  007CA5  62                 	db	98
   823  007CA6  1E                 	db	30
   824  007CA7  02                 	db	2
   825  007CA8  00                 	db	0
   826  007CA9  42                 	db	66
   827  007CAA  62                 	db	98
   828  007CAB  14                 	db	20
   829  007CAC  08                 	db	8
   830  007CAD  14                 	db	20
   831  007CAE  62                 	db	98
   832  007CAF  42                 	db	66
   833  007CB0  00                 	db	0
   834  007CB1  01                 	db	1
   835  007CB2  43                 	db	67
   836  007CB3  45                 	db	69
   837  007CB4  38                 	db	56
   838  007CB5  05                 	db	5
   839  007CB6  03                 	db	3
   840  007CB7  01                 	db	1
   841  007CB8  00                 	db	0
   842  007CB9  00                 	db	0
   843  007CBA  46                 	db	70
   844  007CBB  62                 	db	98
   845  007CBC  52                 	db	82
   846  007CBD  4A                 	db	74
   847  007CBE  46                 	db	70
   848  007CBF  62                 	db	98
   849  007CC0  00                 	db	0
   850  007CC1  00                 	db	0
   851  007CC2  00                 	db	0
   852  007CC3  08                 	db	8
   853  007CC4  36                 	db	54
   854  007CC5  41                 	db	65
   855  007CC6  00                 	db	0
   856  007CC7  00                 	db	0
   857  007CC8  00                 	db	0
   858  007CC9  00                 	db	0
   859  007CCA  00                 	db	0
   860  007CCB  00                 	db	0
   861  007CCC  7F                 	db	127
   862  007CCD  00                 	db	0
   863  007CCE  00                 	db	0
   864  007CCF  00                 	db	0
   865  007CD0  00                 	db	0
   866  007CD1  00                 	db	0
   867  007CD2  00                 	db	0
   868  007CD3  00                 	db	0
   869  007CD4  41                 	db	65
   870  007CD5  36                 	db	54
   871  007CD6  08                 	db	8
   872  007CD7  00                 	db	0
   873  007CD8  00                 	db	0
   874  007CD9  00                 	db	0
   875  007CDA  18                 	db	24
   876  007CDB  08                 	db	8
   877  007CDC  08                 	db	8
   878  007CDD  10                 	db	16
   879  007CDE  10                 	db	16
   880  007CDF  18                 	db	24
   881  007CE0  00                 	db	0
   882  007CE1  AA                 	db	170
   883  007CE2  55                 	db	85
   884  007CE3  AA                 	db	170
   885  007CE4  55                 	db	85
   886  007CE5  AA                 	db	170
   887  007CE6  55                 	db	85
   888  007CE7  AA                 	db	170
   889  007CE8  55                 	db	85
   890  007CE9                     __end_of_OledFont0:
   891                           	callstack 0
   892  0000                     _ANSELA	set	3931
   893  0000                     _ANSELE	set	3935
   894  0000                     _ANSELB	set	3932
   895  0000                     _ANSELC	set	3933
   896  0000                     _ANSELD	set	3934
   897  0000                     _LATCbits	set	3979
   898  0000                     _LATBbits	set	3978
   899  0000                     _TRISCbits	set	3988
   900  0000                     _TRISBbits	set	3987
   901  0000                     _LATEbits	set	3981
   902  0000                     _TRISEbits	set	3990
   903  0000                     _LATAbits	set	3977
   904  0000                     _TRISAbits	set	3986
   905  0000                     _ACTCON	set	4021
   906  0000                     _OSCTUNE	set	3995
   907  0000                     _OSCCON2	set	4050
   908  0000                     _OSCCON	set	4051
   909  0000                     _INTCONbits	set	4082
   910  0000                     _INTCON2bits	set	4081
   911  0000                     _WPUB	set	3973
   912  0000                     _TRISD	set	3989
   913  0000                     _TRISC	set	3988
   914  0000                     _TRISB	set	3987
   915  0000                     _TRISA	set	3986
   916  0000                     _TRISE	set	3990
   917  0000                     _LATC	set	3979
   918  0000                     _LATB	set	3978
   919  0000                     _LATA	set	3977
   920  0000                     _LATD	set	3980
   921  0000                     _LATE	set	3981
   922  0000                     _TXREG1	set	4013
   923  0000                     _RCREG1	set	4014
   924  0000                     _RCSTA1bits	set	4011
   925  0000                     _TXSTA1bits	set	4012
   926  0000                     _PIR1bits	set	3998
   927  0000                     _SPBRGH1	set	4016
   928  0000                     _SPBRG1	set	4015
   929  0000                     _TXSTA1	set	4012
   930  0000                     _RCSTA1	set	4011
   931  0000                     _BAUDCON1	set	4024
   932  0000                     _PLLRDY	set	32407
   933  007CE9                     STR_18:
   934  007CE9  72                 	db	114	;'r'
   935  007CEA  61                 	db	97	;'a'
   936  007CEB  64                 	db	100	;'d'
   937  007CEC  69                 	db	105	;'i'
   938  007CED  6F                 	db	111	;'o'
   939  007CEE  20                 	db	32
   940  007CEF  73                 	db	115	;'s'
   941  007CF0  65                 	db	101	;'e'
   942  007CF1  74                 	db	116	;'t'
   943  007CF2  20                 	db	32
   944  007CF3  66                 	db	102	;'f'
   945  007CF4  72                 	db	114	;'r'
   946  007CF5  65                 	db	101	;'e'
   947  007CF6  71                 	db	113	;'q'
   948  007CF7  20                 	db	32
   949  007CF8  39                 	db	57	;'9'
   950  007CF9  32                 	db	50	;'2'
   951  007CFA  33                 	db	51	;'3'
   952  007CFB  33                 	db	51	;'3'
   953  007CFC  30                 	db	48	;'0'
   954  007CFD  30                 	db	48	;'0'
   955  007CFE  30                 	db	48	;'0'
   956  007CFF  30                 	db	48	;'0'
   957  007D00  30                 	db	48	;'0'
   958  007D01  0D                 	db	13
   959  007D02  0A                 	db	10
   960  007D03  00                 	db	0
   961  007D04  73                 	db	115	;'s'
   962  007D05  79                 	db	121	;'y'
   963  007D06  73                 	db	115	;'s'
   964  007D07  20                 	db	32
   965  007D08  73                 	db	115	;'s'
   966  007D09  65                 	db	101	;'e'
   967  007D0A  74                 	db	116	;'t'
   968  007D0B  20                 	db	32
   969  007D0C  70                 	db	112	;'p'
   970  007D0D  69                 	db	105	;'i'
   971  007D0E  6E                 	db	110	;'n'
   972  007D0F  64                 	db	100	;'d'
   973  007D10  69                 	db	105	;'i'
   974  007D11  67                 	db	103	;'g'
   975  007D12  20                 	db	32
   976  007D13  47                 	db	71	;'G'
   977  007D14  50                 	db	80	;'P'
   978  007D15  49                 	db	73	;'I'
   979  007D16  4F                 	db	79	;'O'
   980  007D17  31                 	db	49	;'1'
   981  007D18  30                 	db	48	;'0'
   982  007D19  20                 	db	32
   983  007D1A  30                 	db	48	;'0'
   984  007D1B  0D                 	db	13
   985  007D1C  0A                 	db	10
   986  007D1D  00                 	db	0
   987  007D1E  73                 	db	115	;'s'
   988  007D1F  79                 	db	121	;'y'
   989  007D20  73                 	db	115	;'s'
   990  007D21  20                 	db	32
   991  007D22  73                 	db	115	;'s'
   992  007D23  65                 	db	101	;'e'
   993  007D24  74                 	db	116	;'t'
   994  007D25  20                 	db	32
   995  007D26  70                 	db	112	;'p'
   996  007D27  69                 	db	105	;'i'
   997  007D28  6E                 	db	110	;'n'
   998  007D29  64                 	db	100	;'d'
   999  007D2A  69                 	db	105	;'i'
  1000  007D2B  67                 	db	103	;'g'
  1001  007D2C  20                 	db	32
  1002  007D2D  47                 	db	71	;'G'
  1003  007D2E  50                 	db	80	;'P'
  1004  007D2F  49                 	db	73	;'I'
  1005  007D30  4F                 	db	79	;'O'
  1006  007D31  31                 	db	49	;'1'
  1007  007D32  31                 	db	49	;'1'
  1008  007D33  20                 	db	32
  1009  007D34  30                 	db	48	;'0'
  1010  007D35  0D                 	db	13
  1011  007D36  0A                 	db	10
  1012  007D37  00                 	db	0
  1013  007D38  73                 	db	115	;'s'
  1014  007D39  79                 	db	121	;'y'
  1015  007D3A  73                 	db	115	;'s'
  1016  007D3B  20                 	db	32
  1017  007D3C  73                 	db	115	;'s'
  1018  007D3D  65                 	db	101	;'e'
  1019  007D3E  74                 	db	116	;'t'
  1020  007D3F  20                 	db	32
  1021  007D40  70                 	db	112	;'p'
  1022  007D41  69                 	db	105	;'i'
  1023  007D42  6E                 	db	110	;'n'
  1024  007D43  64                 	db	100	;'d'
  1025  007D44  69                 	db	105	;'i'
  1026  007D45  67                 	db	103	;'g'
  1027  007D46  20                 	db	32
  1028  007D47  47                 	db	71	;'G'
  1029  007D48  50                 	db	80	;'P'
  1030  007D49  49                 	db	73	;'I'
  1031  007D4A  4F                 	db	79	;'O'
  1032  007D4B  31                 	db	49	;'1'
  1033  007D4C  30                 	db	48	;'0'
  1034  007D4D  20                 	db	32
  1035  007D4E  31                 	db	49	;'1'
  1036  007D4F  0D                 	db	13
  1037  007D50  0A                 	db	10
  1038  007D51  00                 	db	0
  1039  007D52  73                 	db	115	;'s'
  1040  007D53  79                 	db	121	;'y'
  1041  007D54  73                 	db	115	;'s'
  1042  007D55  20                 	db	32
  1043  007D56  73                 	db	115	;'s'
  1044  007D57  65                 	db	101	;'e'
  1045  007D58  74                 	db	116	;'t'
  1046  007D59  20                 	db	32
  1047  007D5A  70                 	db	112	;'p'
  1048  007D5B  69                 	db	105	;'i'
  1049  007D5C  6E                 	db	110	;'n'
  1050  007D5D  64                 	db	100	;'d'
  1051  007D5E  69                 	db	105	;'i'
  1052  007D5F  67                 	db	103	;'g'
  1053  007D60  20                 	db	32
  1054  007D61  47                 	db	71	;'G'
  1055  007D62  50                 	db	80	;'P'
  1056  007D63  49                 	db	73	;'I'
  1057  007D64  4F                 	db	79	;'O'
  1058  007D65  31                 	db	49	;'1'
  1059  007D66  31                 	db	49	;'1'
  1060  007D67  20                 	db	32
  1061  007D68  31                 	db	49	;'1'
  1062  007D69  0D                 	db	13
  1063  007D6A  0A                 	db	10
  1064  007D6B  00                 	db	0
  1065  007D6C                     STR_38:
  1066  007D6C  72                 	db	114	;'r'
  1067  007D6D  61                 	db	97	;'a'
  1068  007D6E  64                 	db	100	;'d'
  1069  007D6F  69                 	db	105	;'i'
  1070  007D70  6F                 	db	111	;'o'
  1071  007D71  20                 	db	32
  1072  007D72  73                 	db	115	;'s'
  1073  007D73  65                 	db	101	;'e'
  1074  007D74  74                 	db	116	;'t'
  1075  007D75  20                 	db	32
  1076  007D76  77                 	db	119	;'w'
  1077  007D77  64                 	db	100	;'d'
  1078  007D78  74                 	db	116	;'t'
  1079  007D79  20                 	db	32
  1080  007D7A  31                 	db	49	;'1'
  1081  007D7B  35                 	db	53	;'5'
  1082  007D7C  30                 	db	48	;'0'
  1083  007D7D  30                 	db	48	;'0'
  1084  007D7E  30                 	db	48	;'0'
  1085  007D7F  0D                 	db	13
  1086  007D80  0A                 	db	10
  1087  007D81  00                 	db	0
  1088  007D82                     STR_30:
  1089  007D82  72                 	db	114	;'r'
  1090  007D83  61                 	db	97	;'a'
  1091  007D84  64                 	db	100	;'d'
  1092  007D85  69                 	db	105	;'i'
  1093  007D86  6F                 	db	111	;'o'
  1094  007D87  20                 	db	32
  1095  007D88  73                 	db	115	;'s'
  1096  007D89  65                 	db	101	;'e'
  1097  007D8A  74                 	db	116	;'t'
  1098  007D8B  20                 	db	32
  1099  007D8C  6D                 	db	109	;'m'
  1100  007D8D  6F                 	db	111	;'o'
  1101  007D8E  64                 	db	100	;'d'
  1102  007D8F  20                 	db	32
  1103  007D90  6C                 	db	108	;'l'
  1104  007D91  6F                 	db	111	;'o'
  1105  007D92  72                 	db	114	;'r'
  1106  007D93  61                 	db	97	;'a'
  1107  007D94  0D                 	db	13
  1108  007D95  0A                 	db	10
  1109  007D96  00                 	db	0
  1110  007D97                     STR_41:
  1111  007D97  66                 	db	102	;'f'
  1112  007D98  61                 	db	97	;'a'
  1113  007D99  63                 	db	99	;'c'
  1114  007D9A  74                 	db	116	;'t'
  1115  007D9B  6F                 	db	111	;'o'
  1116  007D9C  72                 	db	114	;'r'
  1117  007D9D  20                 	db	32
  1118  007D9E  64                 	db	100	;'d'
  1119  007D9F  65                 	db	101	;'e'
  1120  007DA0  20                 	db	32
  1121  007DA1  64                 	db	100	;'d'
  1122  007DA2  69                 	db	105	;'i'
  1123  007DA3  73                 	db	115	;'s'
  1124  007DA4  70                 	db	112	;'p'
  1125  007DA5  65                 	db	101	;'e'
  1126  007DA6  72                 	db	114	;'r'
  1127  007DA7  73                 	db	115	;'s'
  1128  007DA8  69                 	db	105	;'i'
  1129  007DA9  6F                 	db	111	;'o'
  1130  007DAA  6E                 	db	110	;'n'
  1131  007DAB  00                 	db	0
  1132  007DAC                     STR_42:
  1133  007DAC  72                 	db	114	;'r'
  1134  007DAD  61                 	db	97	;'a'
  1135  007DAE  64                 	db	100	;'d'
  1136  007DAF  69                 	db	105	;'i'
  1137  007DB0  6F                 	db	111	;'o'
  1138  007DB1  20                 	db	32
  1139  007DB2  73                 	db	115	;'s'
  1140  007DB3  65                 	db	101	;'e'
  1141  007DB4  74                 	db	116	;'t'
  1142  007DB5  20                 	db	32
  1143  007DB6  73                 	db	115	;'s'
  1144  007DB7  66                 	db	102	;'f'
  1145  007DB8  20                 	db	32
  1146  007DB9  53                 	db	83	;'S'
  1147  007DBA  46                 	db	70	;'F'
  1148  007DBB  31                 	db	49	;'1'
  1149  007DBC  32                 	db	50	;'2'
  1150  007DBD  0D                 	db	13
  1151  007DBE  0A                 	db	10
  1152  007DBF  00                 	db	0
  1153  007DC0                     STR_46:
  1154  007DC0  72                 	db	114	;'r'
  1155  007DC1  61                 	db	97	;'a'
  1156  007DC2  64                 	db	100	;'d'
  1157  007DC3  69                 	db	105	;'i'
  1158  007DC4  6F                 	db	111	;'o'
  1159  007DC5  20                 	db	32
  1160  007DC6  73                 	db	115	;'s'
  1161  007DC7  65                 	db	101	;'e'
  1162  007DC8  74                 	db	116	;'t'
  1163  007DC9  20                 	db	32
  1164  007DCA  73                 	db	115	;'s'
  1165  007DCB  79                 	db	121	;'y'
  1166  007DCC  6E                 	db	110	;'n'
  1167  007DCD  63                 	db	99	;'c'
  1168  007DCE  20                 	db	32
  1169  007DCF  33                 	db	51	;'3'
  1170  007DD0  34                 	db	52	;'4'
  1171  007DD1  0D                 	db	13
  1172  007DD2  0A                 	db	10
  1173  007DD3  00                 	db	0
  1174  007DD4                     STR_34:
  1175  007DD4  72                 	db	114	;'r'
  1176  007DD5  61                 	db	97	;'a'
  1177  007DD6  64                 	db	100	;'d'
  1178  007DD7  69                 	db	105	;'i'
  1179  007DD8  6F                 	db	111	;'o'
  1180  007DD9  20                 	db	32
  1181  007DDA  73                 	db	115	;'s'
  1182  007DDB  65                 	db	101	;'e'
  1183  007DDC  74                 	db	116	;'t'
  1184  007DDD  20                 	db	32
  1185  007DDE  69                 	db	105	;'i'
  1186  007DDF  71                 	db	113	;'q'
  1187  007DE0  69                 	db	105	;'i'
  1188  007DE1  20                 	db	32
  1189  007DE2  6F                 	db	111	;'o'
  1190  007DE3  66                 	db	102	;'f'
  1191  007DE4  66                 	db	102	;'f'
  1192  007DE5  0D                 	db	13
  1193  007DE6  0A                 	db	10
  1194  007DE7  00                 	db	0
  1195  007DE8                     STR_14:
  1196  007DE8  72                 	db	114	;'r'
  1197  007DE9  61                 	db	97	;'a'
  1198  007DEA  64                 	db	100	;'d'
  1199  007DEB  69                 	db	105	;'i'
  1200  007DEC  6F                 	db	111	;'o'
  1201  007DED  20                 	db	32
  1202  007DEE  73                 	db	115	;'s'
  1203  007DEF  65                 	db	101	;'e'
  1204  007DF0  74                 	db	116	;'t'
  1205  007DF1  20                 	db	32
  1206  007DF2  62                 	db	98	;'b'
  1207  007DF3  77                 	db	119	;'w'
  1208  007DF4  20                 	db	32
  1209  007DF5  32                 	db	50	;'2'
  1210  007DF6  35                 	db	53	;'5'
  1211  007DF7  30                 	db	48	;'0'
  1212  007DF8  0D                 	db	13
  1213  007DF9  0A                 	db	10
  1214  007DFA  00                 	db	0
  1215  007DFB                     STR_26:
  1216  007DFB  72                 	db	114	;'r'
  1217  007DFC  61                 	db	97	;'a'
  1218  007DFD  64                 	db	100	;'d'
  1219  007DFE  69                 	db	105	;'i'
  1220  007DFF  6F                 	db	111	;'o'
  1221  007E00  20                 	db	32
  1222  007E01  73                 	db	115	;'s'
  1223  007E02  65                 	db	101	;'e'
  1224  007E03  74                 	db	116	;'t'
  1225  007E04  20                 	db	32
  1226  007E05  63                 	db	99	;'c'
  1227  007E06  72                 	db	114	;'r'
  1228  007E07  20                 	db	32
  1229  007E08  34                 	db	52	;'4'
  1230  007E09  2F                 	db	47
  1231  007E0A  35                 	db	53	;'5'
  1232  007E0B  0D                 	db	13
  1233  007E0C  0A                 	db	10
  1234  007E0D  00                 	db	0
  1235  007E0E                     STR_22:
  1236  007E0E  72                 	db	114	;'r'
  1237  007E0F  61                 	db	97	;'a'
  1238  007E10  64                 	db	100	;'d'
  1239  007E11  69                 	db	105	;'i'
  1240  007E12  6F                 	db	111	;'o'
  1241  007E13  20                 	db	32
  1242  007E14  73                 	db	115	;'s'
  1243  007E15  65                 	db	101	;'e'
  1244  007E16  74                 	db	116	;'t'
  1245  007E17  20                 	db	32
  1246  007E18  63                 	db	99	;'c'
  1247  007E19  72                 	db	114	;'r'
  1248  007E1A  63                 	db	99	;'c'
  1249  007E1B  20                 	db	32
  1250  007E1C  6F                 	db	111	;'o'
  1251  007E1D  6E                 	db	110	;'n'
  1252  007E1E  0D                 	db	13
  1253  007E1F  0A                 	db	10
  1254  007E20  00                 	db	0
  1255  007E21                     STR_10:
  1256  007E21  72                 	db	114	;'r'
  1257  007E22  61                 	db	97	;'a'
  1258  007E23  64                 	db	100	;'d'
  1259  007E24  69                 	db	105	;'i'
  1260  007E25  6F                 	db	111	;'o'
  1261  007E26  20                 	db	32
  1262  007E27  73                 	db	115	;'s'
  1263  007E28  65                 	db	101	;'e'
  1264  007E29  74                 	db	116	;'t'
  1265  007E2A  20                 	db	32
  1266  007E2B  70                 	db	112	;'p'
  1267  007E2C  77                 	db	119	;'w'
  1268  007E2D  72                 	db	114	;'r'
  1269  007E2E  20                 	db	32
  1270  007E2F  33                 	db	51	;'3'
  1271  007E30  0D                 	db	13
  1272  007E31  0A                 	db	10
  1273  007E32  00                 	db	0
  1274  007E33                     STR_8:
  1275  007E33  43                 	db	67	;'C'
  1276  007E34  6F                 	db	111	;'o'
  1277  007E35  6E                 	db	110	;'n'
  1278  007E36  66                 	db	102	;'f'
  1279  007E37  69                 	db	105	;'i'
  1280  007E38  67                 	db	103	;'g'
  1281  007E39  20                 	db	32
  1282  007E3A  6D                 	db	109	;'m'
  1283  007E3B  6F                 	db	111	;'o'
  1284  007E3C  64                 	db	100	;'d'
  1285  007E3D  75                 	db	117	;'u'
  1286  007E3E  6C                 	db	108	;'l'
  1287  007E3F  6F                 	db	111	;'o'
  1288  007E40  20                 	db	32
  1289  007E41  52                 	db	82	;'R'
  1290  007E42  4E                 	db	78	;'N'
  1291  007E43  00                 	db	0
  1292  007E44                     STR_49:
  1293  007E44  63                 	db	99	;'c'
  1294  007E45  6F                 	db	111	;'o'
  1295  007E46  6D                 	db	109	;'m'
  1296  007E47  61                 	db	97	;'a'
  1297  007E48  6E                 	db	110	;'n'
  1298  007E49  64                 	db	100	;'d'
  1299  007E4A  6F                 	db	111	;'o'
  1300  007E4B  20                 	db	32
  1301  007E4C  65                 	db	101	;'e'
  1302  007E4D  6E                 	db	110	;'n'
  1303  007E4E  76                 	db	118	;'v'
  1304  007E4F  69                 	db	105	;'i'
  1305  007E50  61                 	db	97	;'a'
  1306  007E51  64                 	db	100	;'d'
  1307  007E52  6F                 	db	111	;'o'
  1308  007E53  00                 	db	0
  1309  007E54                     STR_21:
  1310  007E54  63                 	db	99	;'c'
  1311  007E55  6F                 	db	111	;'o'
  1312  007E56  64                 	db	100	;'d'
  1313  007E57  20                 	db	32
  1314  007E58  44                 	db	68	;'D'
  1315  007E59  65                 	db	101	;'e'
  1316  007E5A  63                 	db	99	;'c'
  1317  007E5B  20                 	db	32
  1318  007E5C  45                 	db	69	;'E'
  1319  007E5D  72                 	db	114	;'r'
  1320  007E5E  72                 	db	114	;'r'
  1321  007E5F  6F                 	db	111	;'o'
  1322  007E60  72                 	db	114	;'r'
  1323  007E61  65                 	db	101	;'e'
  1324  007E62  73                 	db	115	;'s'
  1325  007E63  00                 	db	0
  1326  007E64                     STR_13:
  1327  007E64  61                 	db	97	;'a'
  1328  007E65  6E                 	db	110	;'n'
  1329  007E66  63                 	db	99	;'c'
  1330  007E67  68                 	db	104	;'h'
  1331  007E68  6F                 	db	111	;'o'
  1332  007E69  20                 	db	32
  1333  007E6A  64                 	db	100	;'d'
  1334  007E6B  65                 	db	101	;'e'
  1335  007E6C  20                 	db	32
  1336  007E6D  62                 	db	98	;'b'
  1337  007E6E  61                 	db	97	;'a'
  1338  007E6F  6E                 	db	110	;'n'
  1339  007E70  64                 	db	100	;'d'
  1340  007E71  61                 	db	97	;'a'
  1341  007E72  00                 	db	0
  1342  007E73                     STR_61:
  1343  007E73  72                 	db	114	;'r'
  1344  007E74  61                 	db	97	;'a'
  1345  007E75  64                 	db	100	;'d'
  1346  007E76  69                 	db	105	;'i'
  1347  007E77  6F                 	db	111	;'o'
  1348  007E78  20                 	db	32
  1349  007E79  74                 	db	116	;'t'
  1350  007E7A  78                 	db	120	;'x'
  1351  007E7B  20                 	db	32
  1352  007E7C  31                 	db	49	;'1'
  1353  007E7D  30                 	db	48	;'0'
  1354  007E7E  0D                 	db	13
  1355  007E7F  0A                 	db	10
  1356  007E80  00                 	db	0
  1357  007E81                     STR_64:
  1358  007E81  72                 	db	114	;'r'
  1359  007E82  61                 	db	97	;'a'
  1360  007E83  64                 	db	100	;'d'
  1361  007E84  69                 	db	105	;'i'
  1362  007E85  6F                 	db	111	;'o'
  1363  007E86  20                 	db	32
  1364  007E87  74                 	db	116	;'t'
  1365  007E88  78                 	db	120	;'x'
  1366  007E89  20                 	db	32
  1367  007E8A  32                 	db	50	;'2'
  1368  007E8B  30                 	db	48	;'0'
  1369  007E8C  0D                 	db	13
  1370  007E8D  0A                 	db	10
  1371  007E8E  00                 	db	0
  1372  007E8F                     STR_67:
  1373  007E8F  72                 	db	114	;'r'
  1374  007E90  61                 	db	97	;'a'
  1375  007E91  64                 	db	100	;'d'
  1376  007E92  69                 	db	105	;'i'
  1377  007E93  6F                 	db	111	;'o'
  1378  007E94  20                 	db	32
  1379  007E95  74                 	db	116	;'t'
  1380  007E96  78                 	db	120	;'x'
  1381  007E97  20                 	db	32
  1382  007E98  33                 	db	51	;'3'
  1383  007E99  30                 	db	48	;'0'
  1384  007E9A  0D                 	db	13
  1385  007E9B  0A                 	db	10
  1386  007E9C  00                 	db	0
  1387  007E9D                     STR_70:
  1388  007E9D  72                 	db	114	;'r'
  1389  007E9E  61                 	db	97	;'a'
  1390  007E9F  64                 	db	100	;'d'
  1391  007EA0  69                 	db	105	;'i'
  1392  007EA1  6F                 	db	111	;'o'
  1393  007EA2  20                 	db	32
  1394  007EA3  74                 	db	116	;'t'
  1395  007EA4  78                 	db	120	;'x'
  1396  007EA5  20                 	db	32
  1397  007EA6  34                 	db	52	;'4'
  1398  007EA7  30                 	db	48	;'0'
  1399  007EA8  0D                 	db	13
  1400  007EA9  0A                 	db	10
  1401  007EAA  00                 	db	0
  1402  007EAB                     STR_73:
  1403  007EAB  72                 	db	114	;'r'
  1404  007EAC  61                 	db	97	;'a'
  1405  007EAD  64                 	db	100	;'d'
  1406  007EAE  69                 	db	105	;'i'
  1407  007EAF  6F                 	db	111	;'o'
  1408  007EB0  20                 	db	32
  1409  007EB1  74                 	db	116	;'t'
  1410  007EB2  78                 	db	120	;'x'
  1411  007EB3  20                 	db	32
  1412  007EB4  35                 	db	53	;'5'
  1413  007EB5  30                 	db	48	;'0'
  1414  007EB6  0D                 	db	13
  1415  007EB7  0A                 	db	10
  1416  007EB8  00                 	db	0
  1417  007EB9                     STR_76:
  1418  007EB9  72                 	db	114	;'r'
  1419  007EBA  61                 	db	97	;'a'
  1420  007EBB  64                 	db	100	;'d'
  1421  007EBC  69                 	db	105	;'i'
  1422  007EBD  6F                 	db	111	;'o'
  1423  007EBE  20                 	db	32
  1424  007EBF  74                 	db	116	;'t'
  1425  007EC0  78                 	db	120	;'x'
  1426  007EC1  20                 	db	32
  1427  007EC2  36                 	db	54	;'6'
  1428  007EC3  30                 	db	48	;'0'
  1429  007EC4  0D                 	db	13
  1430  007EC5  0A                 	db	10
  1431  007EC6  00                 	db	0
  1432  007EC7                     STR_79:
  1433  007EC7  72                 	db	114	;'r'
  1434  007EC8  61                 	db	97	;'a'
  1435  007EC9  64                 	db	100	;'d'
  1436  007ECA  69                 	db	105	;'i'
  1437  007ECB  6F                 	db	111	;'o'
  1438  007ECC  20                 	db	32
  1439  007ECD  74                 	db	116	;'t'
  1440  007ECE  78                 	db	120	;'x'
  1441  007ECF  20                 	db	32
  1442  007ED0  37                 	db	55	;'7'
  1443  007ED1  30                 	db	48	;'0'
  1444  007ED2  0D                 	db	13
  1445  007ED3  0A                 	db	10
  1446  007ED4  00                 	db	0
  1447  007ED5                     STR_82:
  1448  007ED5  72                 	db	114	;'r'
  1449  007ED6  61                 	db	97	;'a'
  1450  007ED7  64                 	db	100	;'d'
  1451  007ED8  69                 	db	105	;'i'
  1452  007ED9  6F                 	db	111	;'o'
  1453  007EDA  20                 	db	32
  1454  007EDB  74                 	db	116	;'t'
  1455  007EDC  78                 	db	120	;'x'
  1456  007EDD  20                 	db	32
  1457  007EDE  38                 	db	56	;'8'
  1458  007EDF  30                 	db	48	;'0'
  1459  007EE0  0D                 	db	13
  1460  007EE1  0A                 	db	10
  1461  007EE2  00                 	db	0
  1462  007EE3                     STR_85:
  1463  007EE3  72                 	db	114	;'r'
  1464  007EE4  61                 	db	97	;'a'
  1465  007EE5  64                 	db	100	;'d'
  1466  007EE6  69                 	db	105	;'i'
  1467  007EE7  6F                 	db	111	;'o'
  1468  007EE8  20                 	db	32
  1469  007EE9  74                 	db	116	;'t'
  1470  007EEA  78                 	db	120	;'x'
  1471  007EEB  20                 	db	32
  1472  007EEC  39                 	db	57	;'9'
  1473  007EED  30                 	db	48	;'0'
  1474  007EEE  0D                 	db	13
  1475  007EEF  0A                 	db	10
  1476  007EF0  00                 	db	0
  1477  007EF1                     STR_60:
  1478  007EF1  74                 	db	116	;'t'
  1479  007EF2  72                 	db	114	;'r'
  1480  007EF3  61                 	db	97	;'a'
  1481  007EF4  6E                 	db	110	;'n'
  1482  007EF5  73                 	db	115	;'s'
  1483  007EF6  6D                 	db	109	;'m'
  1484  007EF7  69                 	db	105	;'i'
  1485  007EF8  73                 	db	115	;'s'
  1486  007EF9  69                 	db	105	;'i'
  1487  007EFA  6F                 	db	111	;'o'
  1488  007EFB  6E                 	db	110	;'n'
  1489  007EFC  3D                 	db	61	;'='
  1490  007EFD  31                 	db	49	;'1'
  1491  007EFE  00                 	db	0
  1492  007EFF                     STR_63:
  1493  007EFF  74                 	db	116	;'t'
  1494  007F00  72                 	db	114	;'r'
  1495  007F01  61                 	db	97	;'a'
  1496  007F02  6E                 	db	110	;'n'
  1497  007F03  73                 	db	115	;'s'
  1498  007F04  6D                 	db	109	;'m'
  1499  007F05  69                 	db	105	;'i'
  1500  007F06  73                 	db	115	;'s'
  1501  007F07  69                 	db	105	;'i'
  1502  007F08  6F                 	db	111	;'o'
  1503  007F09  6E                 	db	110	;'n'
  1504  007F0A  3D                 	db	61	;'='
  1505  007F0B  32                 	db	50	;'2'
  1506  007F0C  00                 	db	0
  1507  007F0D                     STR_66:
  1508  007F0D  74                 	db	116	;'t'
  1509  007F0E  72                 	db	114	;'r'
  1510  007F0F  61                 	db	97	;'a'
  1511  007F10  6E                 	db	110	;'n'
  1512  007F11  73                 	db	115	;'s'
  1513  007F12  6D                 	db	109	;'m'
  1514  007F13  69                 	db	105	;'i'
  1515  007F14  73                 	db	115	;'s'
  1516  007F15  69                 	db	105	;'i'
  1517  007F16  6F                 	db	111	;'o'
  1518  007F17  6E                 	db	110	;'n'
  1519  007F18  3D                 	db	61	;'='
  1520  007F19  33                 	db	51	;'3'
  1521  007F1A  00                 	db	0
  1522  007F1B                     STR_69:
  1523  007F1B  74                 	db	116	;'t'
  1524  007F1C  72                 	db	114	;'r'
  1525  007F1D  61                 	db	97	;'a'
  1526  007F1E  6E                 	db	110	;'n'
  1527  007F1F  73                 	db	115	;'s'
  1528  007F20  6D                 	db	109	;'m'
  1529  007F21  69                 	db	105	;'i'
  1530  007F22  73                 	db	115	;'s'
  1531  007F23  69                 	db	105	;'i'
  1532  007F24  6F                 	db	111	;'o'
  1533  007F25  6E                 	db	110	;'n'
  1534  007F26  3D                 	db	61	;'='
  1535  007F27  34                 	db	52	;'4'
  1536  007F28  00                 	db	0
  1537  007F29                     STR_72:
  1538  007F29  74                 	db	116	;'t'
  1539  007F2A  72                 	db	114	;'r'
  1540  007F2B  61                 	db	97	;'a'
  1541  007F2C  6E                 	db	110	;'n'
  1542  007F2D  73                 	db	115	;'s'
  1543  007F2E  6D                 	db	109	;'m'
  1544  007F2F  69                 	db	105	;'i'
  1545  007F30  73                 	db	115	;'s'
  1546  007F31  69                 	db	105	;'i'
  1547  007F32  6F                 	db	111	;'o'
  1548  007F33  6E                 	db	110	;'n'
  1549  007F34  3D                 	db	61	;'='
  1550  007F35  35                 	db	53	;'5'
  1551  007F36  00                 	db	0
  1552  007F37                     STR_75:
  1553  007F37  74                 	db	116	;'t'
  1554  007F38  72                 	db	114	;'r'
  1555  007F39  61                 	db	97	;'a'
  1556  007F3A  6E                 	db	110	;'n'
  1557  007F3B  73                 	db	115	;'s'
  1558  007F3C  6D                 	db	109	;'m'
  1559  007F3D  69                 	db	105	;'i'
  1560  007F3E  73                 	db	115	;'s'
  1561  007F3F  69                 	db	105	;'i'
  1562  007F40  6F                 	db	111	;'o'
  1563  007F41  6E                 	db	110	;'n'
  1564  007F42  3D                 	db	61	;'='
  1565  007F43  36                 	db	54	;'6'
  1566  007F44  00                 	db	0
  1567  007F45                     STR_78:
  1568  007F45  74                 	db	116	;'t'
  1569  007F46  72                 	db	114	;'r'
  1570  007F47  61                 	db	97	;'a'
  1571  007F48  6E                 	db	110	;'n'
  1572  007F49  73                 	db	115	;'s'
  1573  007F4A  6D                 	db	109	;'m'
  1574  007F4B  69                 	db	105	;'i'
  1575  007F4C  73                 	db	115	;'s'
  1576  007F4D  69                 	db	105	;'i'
  1577  007F4E  6F                 	db	111	;'o'
  1578  007F4F  6E                 	db	110	;'n'
  1579  007F50  3D                 	db	61	;'='
  1580  007F51  37                 	db	55	;'7'
  1581  007F52  00                 	db	0
  1582  007F53                     STR_81:
  1583  007F53  74                 	db	116	;'t'
  1584  007F54  72                 	db	114	;'r'
  1585  007F55  61                 	db	97	;'a'
  1586  007F56  6E                 	db	110	;'n'
  1587  007F57  73                 	db	115	;'s'
  1588  007F58  6D                 	db	109	;'m'
  1589  007F59  69                 	db	105	;'i'
  1590  007F5A  73                 	db	115	;'s'
  1591  007F5B  69                 	db	105	;'i'
  1592  007F5C  6F                 	db	111	;'o'
  1593  007F5D  6E                 	db	110	;'n'
  1594  007F5E  3D                 	db	61	;'='
  1595  007F5F  38                 	db	56	;'8'
  1596  007F60  00                 	db	0
  1597  007F61                     STR_84:
  1598  007F61  74                 	db	116	;'t'
  1599  007F62  72                 	db	114	;'r'
  1600  007F63  61                 	db	97	;'a'
  1601  007F64  6E                 	db	110	;'n'
  1602  007F65  73                 	db	115	;'s'
  1603  007F66  6D                 	db	109	;'m'
  1604  007F67  69                 	db	105	;'i'
  1605  007F68  73                 	db	115	;'s'
  1606  007F69  69                 	db	105	;'i'
  1607  007F6A  6F                 	db	111	;'o'
  1608  007F6B  6E                 	db	110	;'n'
  1609  007F6C  3D                 	db	61	;'='
  1610  007F6D  39                 	db	57	;'9'
  1611  007F6E  00                 	db	0
  1612  007F6F                     STR_88:
  1613  007F6F  6D                 	db	109	;'m'
  1614  007F70  61                 	db	97	;'a'
  1615  007F71  63                 	db	99	;'c'
  1616  007F72  20                 	db	32
  1617  007F73  72                 	db	114	;'r'
  1618  007F74  65                 	db	101	;'e'
  1619  007F75  73                 	db	115	;'s'
  1620  007F76  75                 	db	117	;'u'
  1621  007F77  6D                 	db	109	;'m'
  1622  007F78  65                 	db	101	;'e'
  1623  007F79  0D                 	db	13
  1624  007F7A  0A                 	db	10
  1625  007F7B  00                 	db	0
  1626  007F7C                     STR_58:
  1627  007F7C  6D                 	db	109	;'m'
  1628  007F7D  61                 	db	97	;'a'
  1629  007F7E  63                 	db	99	;'c'
  1630  007F7F  20                 	db	32
  1631  007F80  70                 	db	112	;'p'
  1632  007F81  61                 	db	97	;'a'
  1633  007F82  75                 	db	117	;'u'
  1634  007F83  73                 	db	115	;'s'
  1635  007F84  65                 	db	101	;'e'
  1636  007F85  0D                 	db	13
  1637  007F86  0A                 	db	10
  1638  007F87  00                 	db	0
  1639  007F88                     STR_25:
  1640  007F88  74                 	db	116	;'t'
  1641  007F89  61                 	db	97	;'a'
  1642  007F8A  73                 	db	115	;'s'
  1643  007F8B  61                 	db	97	;'a'
  1644  007F8C  20                 	db	32
  1645  007F8D  64                 	db	100	;'d'
  1646  007F8E  65                 	db	101	;'e'
  1647  007F8F  20                 	db	32
  1648  007F90  63                 	db	99	;'c'
  1649  007F91  6F                 	db	111	;'o'
  1650  007F92  64                 	db	100	;'d'
  1651  007F93  00                 	db	0
  1652  007F94                     STR_17:
  1653  007F94  66                 	db	102	;'f'
  1654  007F95  72                 	db	114	;'r'
  1655  007F96  65                 	db	101	;'e'
  1656  007F97  63                 	db	99	;'c'
  1657  007F98  75                 	db	117	;'u'
  1658  007F99  65                 	db	101	;'e'
  1659  007F9A  6E                 	db	110	;'n'
  1660  007F9B  63                 	db	99	;'c'
  1661  007F9C  69                 	db	105	;'i'
  1662  007F9D  61                 	db	97	;'a'
  1663  007F9E  00                 	db	0
  1664  007F9F  4C                 	db	76	;'L'
  1665  007FA0  45                 	db	69	;'E'
  1666  007FA1  44                 	db	68	;'D'
  1667  007FA2  20                 	db	32
  1668  007FA3  54                 	db	84	;'T'
  1669  007FA4  65                 	db	101	;'e'
  1670  007FA5  73                 	db	115	;'s'
  1671  007FA6  74                 	db	116	;'t'
  1672  007FA7  3A                 	db	58	;':'
  1673  007FA8  00                 	db	0
  1674  007FA9                     STR_57:
  1675  007FA9  4D                 	db	77	;'M'
  1676  007FAA  41                 	db	65	;'A'
  1677  007FAB  43                 	db	67	;'C'
  1678  007FAC  20                 	db	32
  1679  007FAD  50                 	db	80	;'P'
  1680  007FAE  55                 	db	85	;'U'
  1681  007FAF  41                 	db	65	;'A'
  1682  007FB0  53                 	db	83	;'S'
  1683  007FB1  45                 	db	69	;'E'
  1684  007FB2  00                 	db	0
  1685  007FB3                     STR_33:
  1686  007FB3  69                 	db	105	;'i'
  1687  007FB4  6E                 	db	110	;'n'
  1688  007FB5  76                 	db	118	;'v'
  1689  007FB6  65                 	db	101	;'e'
  1690  007FB7  72                 	db	114	;'r'
  1691  007FB8  73                 	db	115	;'s'
  1692  007FB9  69                 	db	105	;'i'
  1693  007FBA  6F                 	db	111	;'o'
  1694  007FBB  6E                 	db	110	;'n'
  1695  007FBC  00                 	db	0
  1696  007FBD  45                 	db	69	;'E'
  1697  007FBE  6E                 	db	110	;'n'
  1698  007FBF  63                 	db	99	;'c'
  1699  007FC0  65                 	db	101	;'e'
  1700  007FC1  6E                 	db	110	;'n'
  1701  007FC2  64                 	db	100	;'d'
  1702  007FC3  69                 	db	105	;'i'
  1703  007FC4  64                 	db	100	;'d'
  1704  007FC5  6F                 	db	111	;'o'
  1705  007FC6  00                 	db	0
  1706  007FC7                     STR_9:
  1707  007FC7  70                 	db	112	;'p'
  1708  007FC8  6F                 	db	111	;'o'
  1709  007FC9  74                 	db	116	;'t'
  1710  007FCA  65                 	db	101	;'e'
  1711  007FCB  6E                 	db	110	;'n'
  1712  007FCC  63                 	db	99	;'c'
  1713  007FCD  69                 	db	105	;'i'
  1714  007FCE  61                 	db	97	;'a'
  1715  007FCF  00                 	db	0
  1716  007FD0                     STR_29:
  1717  007FD0  6D                 	db	109	;'m'
  1718  007FD1  6F                 	db	111	;'o'
  1719  007FD2  64                 	db	100	;'d'
  1720  007FD3  20                 	db	32
  1721  007FD4  6C                 	db	108	;'l'
  1722  007FD5  6F                 	db	111	;'o'
  1723  007FD6  72                 	db	114	;'r'
  1724  007FD7  61                 	db	97	;'a'
  1725  007FD8  00                 	db	0
  1726  007FD9  41                 	db	65	;'A'
  1727  007FDA  70                 	db	112	;'p'
  1728  007FDB  61                 	db	97	;'a'
  1729  007FDC  67                 	db	103	;'g'
  1730  007FDD  61                 	db	97	;'a'
  1731  007FDE  64                 	db	100	;'d'
  1732  007FDF  6F                 	db	111	;'o'
  1733  007FE0  00                 	db	0
  1734  007FE1                     STR_87:
  1735  007FE1  74                 	db	116	;'t'
  1736  007FE2  65                 	db	101	;'e'
  1737  007FE3  72                 	db	114	;'r'
  1738  007FE4  6D                 	db	109	;'m'
  1739  007FE5  69                 	db	105	;'i'
  1740  007FE6  6E                 	db	110	;'n'
  1741  007FE7  6F                 	db	111	;'o'
  1742  007FE8  00                 	db	0
  1743  007FE9                     STR_90:
  1744  007FE9  63                 	db	99	;'c'
  1745  007FEA  6F                 	db	111	;'o'
  1746  007FEB  6E                 	db	110	;'n'
  1747  007FEC  74                 	db	116	;'t'
  1748  007FED  3A                 	db	58	;':'
  1749  007FEE  20                 	db	32
  1750  007FEF  00                 	db	0
  1751  007FF0                     STR_45:
  1752  007FF0  73                 	db	115	;'s'
  1753  007FF1  79                 	db	121	;'y'
  1754  007FF2  6E                 	db	110	;'n'
  1755  007FF3  63                 	db	99	;'c'
  1756  007FF4  00                 	db	0
  1757  007FF5                     STR_37:
  1758  007FF5  77                 	db	119	;'w'
  1759  007FF6  64                 	db	100	;'d'
  1760  007FF7  74                 	db	116	;'t'
  1761  007FF8  00                 	db	0
  1762  007FF9                     STR_6:
  1763  007FF9  25                 	db	37
  1764  007FFA  63                 	db	99	;'c'
  1765  007FFB  00                 	db	0
  1766  007FFC                     STR_11:
  1767  007FFC  25                 	db	37
  1768  007FFD  64                 	db	100	;'d'
  1769  007FFE  00                 	db	0
  1770  007FFF  00                 	db	0	; dummy byte at the end
  1771  0000                     
  1772                           ; #config settings
  1773                           
  1774                           	psect	cinit
  1775  005D3E                     __pcinit:
  1776                           	callstack 0
  1777  005D3E                     start_initialization:
  1778                           	callstack 0
  1779  005D3E                     __initialization:
  1780                           	callstack 0
  1781                           
  1782                           ; Initialize objects allocated to BANK0 (3 bytes)
  1783                           ; load TBLPTR registers with __pidataBANK0
  1784  005D3E  0E63               	movlw	low __pidataBANK0
  1785  005D40  6EF6               	movwf	tblptrl,c
  1786  005D42  0E5B               	movlw	high __pidataBANK0
  1787  005D44  6EF7               	movwf	tblptrh,c
  1788  005D46  0E00               	movlw	low (__pidataBANK0 shr (0+16))
  1789  005D48  6EF8               	movwf	tblptru,c
  1790  005D4A  0009               	tblrd		*+	;fetch initializer
  1791  005D4C  CFF5 F0CF          	movff	tablat,__pdataBANK0
  1792  005D50  0009               	tblrd		*+	;fetch initializer
  1793  005D52  CFF5 F0D0          	movff	tablat,__pdataBANK0+1
  1794  005D56  0009               	tblrd		*+	;fetch initializer
  1795  005D58  CFF5 F0D1          	movff	tablat,__pdataBANK0+2
  1796                           
  1797                           ; Clear objects allocated to BANK0 (49 bytes)
  1798  005D5C  EE00  F09E         	lfsr	0,__pbssBANK0
  1799  005D60  0E31               	movlw	49
  1800  005D62                     clear_0:
  1801  005D62  6AEE               	clrf	postinc0,c
  1802  005D64  06E8               	decf	wreg,f,c
  1803  005D66  E1FD               	bnz	clear_0
  1804  005D68                     end_of_initialization:
  1805                           	callstack 0
  1806  005D68                     __end_of__initialization:
  1807                           	callstack 0
  1808  005D68  0E00               	movlw	low (__Lmediumconst shr (0+16))
  1809  005D6A  6EF8               	movwf	tblptru,c
  1810  005D6C  0100               	movlb	0
  1811  005D6E  EFEB  F036         	goto	_main	;jump to C main() function
  1812                           
  1813                           	psect	bssBANK0
  1814  00009E                     __pbssBANK0:
  1815                           	callstack 0
  1816  00009E                     _nout:
  1817                           	callstack 0
  1818  00009E                     	ds	2
  1819  0000A0                     _width:
  1820                           	callstack 0
  1821  0000A0                     	ds	2
  1822  0000A2                     _prec:
  1823                           	callstack 0
  1824  0000A2                     	ds	2
  1825  0000A4                     _flags:
  1826                           	callstack 0
  1827  0000A4                     	ds	2
  1828  0000A6                     _log:
  1829                           	callstack 0
  1830  0000A6                     	ds	2
  1831  0000A8                     _EUSART1_ErrorHandler:
  1832                           	callstack 0
  1833  0000A8                     	ds	2
  1834  0000AA                     _EUSART1_OverrunErrorHandler:
  1835                           	callstack 0
  1836  0000AA                     	ds	2
  1837  0000AC                     _EUSART1_FramingErrorHandler:
  1838                           	callstack 0
  1839  0000AC                     	ds	2
  1840  0000AE                     _eusart1RxLastError:
  1841                           	callstack 0
  1842  0000AE                     	ds	1
  1843  0000AF                     _dbuf:
  1844                           	callstack 0
  1845  0000AF                     	ds	32
  1846                           
  1847                           	psect	dataBANK0
  1848  0000CF                     __pdataBANK0:
  1849                           	callstack 0
  1850  0000CF                     _selectedFont:
  1851                           	callstack 0
  1852  0000CF                     	ds	2
  1853  0000D1                     _Contrast_level:
  1854                           	callstack 0
  1855  0000D1                     	ds	1
  1856                           
  1857                           	psect	cstackBANK0
  1858  000060                     __pcstackBANK0:
  1859                           	callstack 0
  1860  000060                     sprintf@ap:
  1861                           	callstack 0
  1862                           
  1863                           ; 2 bytes @ 0x0
  1864  000060                     	ds	2
  1865  000062                     sprintf@f:
  1866                           	callstack 0
  1867                           
  1868                           ; 6 bytes @ 0x2
  1869  000062                     	ds	6
  1870  000068                     init_mod_LoRa@read:
  1871                           	callstack 0
  1872                           
  1873                           ; 10 bytes @ 0x8
  1874  000068                     	ds	10
  1875  000072                     init_mod_LoRa@READ:
  1876                           	callstack 0
  1877                           
  1878                           ; 10 bytes @ 0x12
  1879  000072                     	ds	10
  1880  00007C                     ??_main:
  1881                           
  1882                           ; 1 bytes @ 0x1C
  1883  00007C                     	ds	1
  1884  00007D                     main@read:
  1885                           	callstack 0
  1886                           
  1887                           ; 32 bytes @ 0x1D
  1888  00007D                     	ds	32
  1889  00009D                     main@cont:
  1890                           	callstack 0
  1891                           
  1892                           ; 1 bytes @ 0x3D
  1893  00009D                     	ds	1
  1894                           
  1895                           	psect	cstackCOMRAM
  1896  000001                     __pcstackCOMRAM:
  1897                           	callstack 0
  1898  000001                     ?_get_Data:
  1899                           	callstack 0
  1900  000001                     ?_strlen:
  1901                           	callstack 0
  1902  000001                     ?___awdiv:
  1903                           	callstack 0
  1904  000001                     ?___awmod:
  1905                           	callstack 0
  1906  000001                     ?___aodiv:
  1907                           	callstack 0
  1908  000001                     ?___aomod:
  1909                           	callstack 0
  1910  000001                     EUSART1_Write@txData:
  1911                           	callstack 0
  1912  000001                     oled_writeCommand@command:
  1913                           	callstack 0
  1914  000001                     oled_writeData@data:
  1915                           	callstack 0
  1916  000001                     EUSART1_SetFramingErrorHandler@interruptHandler:
  1917                           	callstack 0
  1918  000001                     EUSART1_SetOverrunErrorHandler@interruptHandler:
  1919                           	callstack 0
  1920  000001                     EUSART1_SetErrorHandler@interruptHandler:
  1921                           	callstack 0
  1922  000001                     delayms@length:
  1923                           	callstack 0
  1924  000001                     oled_setFont@font:
  1925                           	callstack 0
  1926  000001                     ___awdiv@dividend:
  1927                           	callstack 0
  1928  000001                     ___awmod@dividend:
  1929                           	callstack 0
  1930  000001                     fputc@c:
  1931                           	callstack 0
  1932  000001                     strlen@s:
  1933                           	callstack 0
  1934  000001                     ___aodiv@dividend:
  1935                           	callstack 0
  1936  000001                     ___aomod@dividend:
  1937                           	callstack 0
  1938                           
  1939                           ; 8 bytes @ 0x0
  1940  000001                     	ds	1
  1941  000002                     Set_Page_Address@address:
  1942                           	callstack 0
  1943  000002                     Set_Column_Address@address:
  1944                           	callstack 0
  1945  000002                     oled_setDisplay@displayType:
  1946                           	callstack 0
  1947  000002                     oled_setContrastControlRegister@mod:
  1948                           	callstack 0
  1949  000002                     oled_initialDispayLine@line:
  1950                           	callstack 0
  1951  000002                     oled_powerControl@vol:
  1952                           	callstack 0
  1953  000002                     oled_regulorResistorSelect@r:
  1954                           	callstack 0
  1955  000002                     sendCommand@texto:
  1956                           	callstack 0
  1957                           
  1958                           ; 2 bytes @ 0x1
  1959  000002                     	ds	1
  1960  000003                     ??_get_Data:
  1961  000003                     ??_oled_devInit:
  1962  000003                     ??_delayms:
  1963  000003                     oled_putChar@station_dot:
  1964                           	callstack 0
  1965  000003                     ___awdiv@divisor:
  1966                           	callstack 0
  1967  000003                     ___awmod@divisor:
  1968                           	callstack 0
  1969  000003                     fputc@fp:
  1970                           	callstack 0
  1971  000003                     strlen@a:
  1972                           	callstack 0
  1973                           
  1974                           ; 2 bytes @ 0x2
  1975  000003                     	ds	1
  1976  000004                     oled_putChar@start_page:
  1977                           	callstack 0
  1978  000004                     delayms@counter:
  1979                           	callstack 0
  1980                           
  1981                           ; 2 bytes @ 0x3
  1982  000004                     	ds	1
  1983  000005                     ??_fputc:
  1984  000005                     ??_oled_putChar:
  1985  000005                     ___awdiv@counter:
  1986                           	callstack 0
  1987  000005                     ___awmod@counter:
  1988                           	callstack 0
  1989                           
  1990                           ; 1 bytes @ 0x4
  1991  000005                     	ds	1
  1992  000006                     ___awdiv@sign:
  1993                           	callstack 0
  1994  000006                     ___awmod@sign:
  1995                           	callstack 0
  1996                           
  1997                           ; 1 bytes @ 0x5
  1998  000006                     	ds	1
  1999  000007                     ___awdiv@quotient:
  2000                           	callstack 0
  2001                           
  2002                           ; 2 bytes @ 0x6
  2003  000007                     	ds	2
  2004  000009                     ___aodiv@divisor:
  2005                           	callstack 0
  2006  000009                     ___aomod@divisor:
  2007                           	callstack 0
  2008                           
  2009                           ; 8 bytes @ 0x8
  2010  000009                     	ds	1
  2011  00000A                     ?_ctoa:
  2012                           	callstack 0
  2013  00000A                     ctoa@fp:
  2014                           	callstack 0
  2015  00000A                     fputs@s:
  2016                           	callstack 0
  2017                           
  2018                           ; 2 bytes @ 0x9
  2019  00000A                     	ds	1
  2020  00000B                     oled_putChar@k:
  2021                           	callstack 0
  2022                           
  2023                           ; 1 bytes @ 0xA
  2024  00000B                     	ds	1
  2025  00000C                     oled_putChar@index:
  2026                           	callstack 0
  2027  00000C                     ctoa@c:
  2028                           	callstack 0
  2029  00000C                     fputs@fp:
  2030                           	callstack 0
  2031                           
  2032                           ; 2 bytes @ 0xB
  2033  00000C                     	ds	1
  2034  00000D                     ??_ctoa:
  2035  00000D                     oled_clearRow@page:
  2036                           	callstack 0
  2037  00000D                     oled_putString@string:
  2038                           	callstack 0
  2039                           
  2040                           ; 2 bytes @ 0xC
  2041  00000D                     	ds	1
  2042  00000E                     oled_clearRow@index:
  2043                           	callstack 0
  2044  00000E                     fputs@c:
  2045                           	callstack 0
  2046  00000E                     ctoa@l:
  2047                           	callstack 0
  2048                           
  2049                           ; 2 bytes @ 0xD
  2050  00000E                     	ds	1
  2051  00000F                     oled_putString@station_dot:
  2052                           	callstack 0
  2053  00000F                     fputs@i:
  2054                           	callstack 0
  2055                           
  2056                           ; 2 bytes @ 0xE
  2057  00000F                     	ds	1
  2058  000010                     oled_putString@start_page:
  2059                           	callstack 0
  2060  000010                     ctoa@w:
  2061                           	callstack 0
  2062                           
  2063                           ; 2 bytes @ 0xF
  2064  000010                     	ds	1
  2065  000011                     ?_pad:
  2066                           	callstack 0
  2067  000011                     oled_putString@index:
  2068                           	callstack 0
  2069  000011                     ___aodiv@counter:
  2070                           	callstack 0
  2071  000011                     ___aomod@counter:
  2072                           	callstack 0
  2073  000011                     pad@fp:
  2074                           	callstack 0
  2075                           
  2076                           ; 2 bytes @ 0x10
  2077  000011                     	ds	1
  2078  000012                     oled_putUint8@station_dot:
  2079                           	callstack 0
  2080  000012                     ___aodiv@sign:
  2081                           	callstack 0
  2082  000012                     ___aomod@sign:
  2083                           	callstack 0
  2084                           
  2085                           ; 1 bytes @ 0x11
  2086  000012                     	ds	1
  2087  000013                     ?_abs:
  2088                           	callstack 0
  2089  000013                     oled_putUint8@start_page:
  2090                           	callstack 0
  2091  000013                     pad@buf:
  2092                           	callstack 0
  2093  000013                     abs@a:
  2094                           	callstack 0
  2095  000013                     ___aodiv@quotient:
  2096                           	callstack 0
  2097                           
  2098                           ; 8 bytes @ 0x12
  2099  000013                     	ds	1
  2100  000014                     oled_putUint8@number:
  2101                           	callstack 0
  2102                           
  2103                           ; 1 bytes @ 0x13
  2104  000014                     	ds	1
  2105  000015                     ??_abs:
  2106  000015                     pad@p:
  2107                           	callstack 0
  2108  000015                     oled_putUint8@numData:
  2109                           	callstack 0
  2110                           
  2111                           ; 6 bytes @ 0x14
  2112  000015                     	ds	2
  2113  000017                     ??_pad:
  2114                           
  2115                           ; 1 bytes @ 0x16
  2116  000017                     	ds	1
  2117  000018                     pad@i:
  2118                           	callstack 0
  2119                           
  2120                           ; 2 bytes @ 0x17
  2121  000018                     	ds	2
  2122  00001A                     pad@w:
  2123                           	callstack 0
  2124                           
  2125                           ; 2 bytes @ 0x19
  2126  00001A                     	ds	2
  2127  00001C                     ?_dtoa:
  2128                           	callstack 0
  2129  00001C                     dtoa@fp:
  2130                           	callstack 0
  2131                           
  2132                           ; 2 bytes @ 0x1B
  2133  00001C                     	ds	2
  2134  00001E                     dtoa@d:
  2135                           	callstack 0
  2136                           
  2137                           ; 8 bytes @ 0x1D
  2138  00001E                     	ds	8
  2139  000026                     ??_dtoa:
  2140                           
  2141                           ; 1 bytes @ 0x25
  2142  000026                     	ds	8
  2143  00002E                     _dtoa$1634:
  2144                           	callstack 0
  2145                           
  2146                           ; 2 bytes @ 0x2D
  2147  00002E                     	ds	2
  2148  000030                     dtoa@p:
  2149                           	callstack 0
  2150                           
  2151                           ; 2 bytes @ 0x2F
  2152  000030                     	ds	2
  2153  000032                     dtoa@w:
  2154                           	callstack 0
  2155                           
  2156                           ; 2 bytes @ 0x31
  2157  000032                     	ds	2
  2158  000034                     dtoa@s:
  2159                           	callstack 0
  2160                           
  2161                           ; 2 bytes @ 0x33
  2162  000034                     	ds	2
  2163  000036                     dtoa@n:
  2164                           	callstack 0
  2165                           
  2166                           ; 8 bytes @ 0x35
  2167  000036                     	ds	8
  2168  00003E                     dtoa@i:
  2169                           	callstack 0
  2170                           
  2171                           ; 2 bytes @ 0x3D
  2172  00003E                     	ds	2
  2173  000040                     ?_vfpfcnvrt:
  2174                           	callstack 0
  2175  000040                     vfpfcnvrt@fp:
  2176                           	callstack 0
  2177                           
  2178                           ; 2 bytes @ 0x3F
  2179  000040                     	ds	2
  2180  000042                     vfpfcnvrt@fmt:
  2181                           	callstack 0
  2182                           
  2183                           ; 2 bytes @ 0x41
  2184  000042                     	ds	2
  2185  000044                     vfpfcnvrt@ap:
  2186                           	callstack 0
  2187                           
  2188                           ; 2 bytes @ 0x43
  2189  000044                     	ds	2
  2190  000046                     ??_vfpfcnvrt:
  2191                           
  2192                           ; 1 bytes @ 0x45
  2193  000046                     	ds	2
  2194  000048                     vfpfcnvrt@ll:
  2195                           	callstack 0
  2196                           
  2197                           ; 8 bytes @ 0x47
  2198  000048                     	ds	8
  2199  000050                     vfpfcnvrt@c:
  2200                           	callstack 0
  2201                           
  2202                           ; 1 bytes @ 0x4F
  2203  000050                     	ds	1
  2204  000051                     ?_vfprintf:
  2205                           	callstack 0
  2206  000051                     vfprintf@fp:
  2207                           	callstack 0
  2208                           
  2209                           ; 2 bytes @ 0x50
  2210  000051                     	ds	2
  2211  000053                     vfprintf@fmt:
  2212                           	callstack 0
  2213                           
  2214                           ; 2 bytes @ 0x52
  2215  000053                     	ds	2
  2216  000055                     vfprintf@ap:
  2217                           	callstack 0
  2218                           
  2219                           ; 2 bytes @ 0x54
  2220  000055                     	ds	2
  2221  000057                     vfprintf@cfmt:
  2222                           	callstack 0
  2223                           
  2224                           ; 2 bytes @ 0x56
  2225  000057                     	ds	2
  2226  000059                     ?_sprintf:
  2227                           	callstack 0
  2228  000059                     sprintf@s:
  2229                           	callstack 0
  2230                           
  2231                           ; 2 bytes @ 0x58
  2232  000059                     	ds	2
  2233  00005B                     sprintf@fmt:
  2234                           	callstack 0
  2235                           
  2236                           ; 2 bytes @ 0x5A
  2237  00005B                     	ds	4
  2238  00005F                     ??_init_mod_LoRa:
  2239                           
  2240                           ; 1 bytes @ 0x5E
  2241  00005F                     	ds	1
  2242                           
  2243 ;;
  2244 ;;Main: autosize = 0, tempsize = 1, incstack = 0, save=0
  2245 ;;
  2246 ;; *************** function _main *****************
  2247 ;; Defined at:
  2248 ;;		line 242 in file "main.c"
  2249 ;; Parameters:    Size  Location     Type
  2250 ;;		None
  2251 ;; Auto vars:     Size  Location     Type
  2252 ;;  read           32   29[BANK0 ] unsigned char [32]
  2253 ;;  cont            1   61[BANK0 ] unsigned char 
  2254 ;; Return value:  Size  Location     Type
  2255 ;;                  1    wreg      void 
  2256 ;; Registers used:
  2257 ;;		wreg, fsr0l, fsr0h, fsr1l, fsr1h, fsr2l, fsr2h, status,2, status,0, tblptrl, tblptrh, tblptru, prodl, prodh, cstack
  2258 ;; Tracked objects:
  2259 ;;		On entry : 0/0
  2260 ;;		On exit  : 0/0
  2261 ;;		Unchanged: 0/0
  2262 ;; Data sizes:     COMRAM   BANK0   BANK1   BANK2   BANK3   BANK4   BANK5   BANK6   BANK7
  2263 ;;      Params:         0       0       0       0       0       0       0       0       0
  2264 ;;      Locals:         0      33       0       0       0       0       0       0       0
  2265 ;;      Temps:          0       1       0       0       0       0       0       0       0
  2266 ;;      Totals:         0      34       0       0       0       0       0       0       0
  2267 ;;Total ram usage:       34 bytes
  2268 ;; Hardware stack levels required when called: 9
  2269 ;; This function calls:
  2270 ;;		_EUSART1_Read
  2271 ;;		_SYSTEM_Initialize
  2272 ;;		_delayms
  2273 ;;		_init_mod_LoRa
  2274 ;;		_init_port
  2275 ;;		_oled_clear
  2276 ;;		_oled_init
  2277 ;;		_oled_putString
  2278 ;;		_oled_putUint8
  2279 ;;		_sendCommand
  2280 ;;		_sprintf
  2281 ;; This function is called by:
  2282 ;;		Startup code after reset
  2283 ;; This function uses a non-reentrant model
  2284 ;;
  2285                           
  2286                           	psect	text0
  2287  006DD6                     __ptext0:
  2288                           	callstack 0
  2289  006DD6                     _main:
  2290                           	callstack 22
  2291  006DD6                     
  2292                           ;main.c: 244:     SYSTEM_Initialize();
  2293  006DD6  ECD4  F02D         	call	_SYSTEM_Initialize	;wreg free
  2294  006DDA                     
  2295                           ;main.c: 245:     init_port();
  2296  006DDA  ECDB  F02D         	call	_init_port	;wreg free
  2297  006DDE                     
  2298                           ;main.c: 247:     delayms(500);
  2299  006DDE  0E01               	movlw	1
  2300  006DE0  6E02               	movwf	(delayms@length+1)^0,c
  2301  006DE2  0EF4               	movlw	244
  2302  006DE4  6E01               	movwf	delayms@length^0,c
  2303  006DE6  EC0A  F02F         	call	_delayms	;wreg free
  2304  006DEA                     
  2305                           ;main.c: 249:     oled_init();
  2306  006DEA  EC70  F02E         	call	_oled_init	;wreg free
  2307  006DEE                     
  2308                           ;main.c: 251:     init_mod_LoRa();
  2309  006DEE  EC63  F039         	call	_init_mod_LoRa	;wreg free
  2310  006DF2                     
  2311                           ;main.c: 255:     oled_clear();
  2312  006DF2  EC1C  F02E         	call	_oled_clear	;wreg free
  2313  006DF6                     
  2314                           ;main.c: 256:     char read[32];;main.c: 257:     uint8_t cont = 0;
  2315  006DF6  0E00               	movlw	0
  2316  006DF8  0100               	movlb	0	; () banked
  2317  006DFA  6F9D               	movwf	main@cont& (0+255),b
  2318  006DFC                     l3268:
  2319                           
  2320                           ;main.c: 259:     { if(cont <1)
  2321  006DFC  0100               	movlb	0	; () banked
  2322  006DFE  519D               	movf	main@cont& (0+255),w,b
  2323  006E00  A4D8               	btfss	status,2,c
  2324  006E02  EF05  F037         	goto	u1741
  2325  006E06  EF07  F037         	goto	u1740
  2326  006E0A                     u1741:
  2327  006E0A  EF3A  F037         	goto	l3280
  2328  006E0E                     u1740:
  2329  006E0E                     
  2330                           ; BSR set to: 0
  2331                           ;main.c: 260:         {;main.c: 261:             oled_putString("MAC PUASE",0,0);
  2332  006E0E  0EA9               	movlw	low STR_57
  2333  006E10  6E0D               	movwf	oled_putString@string^0,c
  2334  006E12  0E7F               	movlw	high STR_57
  2335  006E14  6E0E               	movwf	(oled_putString@string+1)^0,c
  2336  006E16  0E00               	movlw	0
  2337  006E18  6E0F               	movwf	oled_putString@station_dot^0,c
  2338  006E1A  0E00               	movlw	0
  2339  006E1C  6E10               	movwf	oled_putString@start_page^0,c
  2340  006E1E  EC7B  F030         	call	_oled_putString	;wreg free
  2341  006E22                     
  2342                           ;main.c: 262:             sendCommand("mac pause\r\n");
  2343  006E22  0E7C               	movlw	low STR_58
  2344  006E24  6E02               	movwf	sendCommand@texto^0,c
  2345  006E26  0E7F               	movlw	high STR_58
  2346  006E28  6E03               	movwf	(sendCommand@texto+1)^0,c
  2347  006E2A  ECD4  F02E         	call	_sendCommand	;wreg free
  2348  006E2E                     
  2349                           ;main.c: 263:             sprintf(read,"%d",EUSART1_Read());
  2350  006E2E  0E7D               	movlw	low main@read
  2351  006E30  6E59               	movwf	sprintf@s^0,c
  2352  006E32  0E00               	movlw	high main@read
  2353  006E34  6E5A               	movwf	(sprintf@s+1)^0,c
  2354  006E36  0EFC               	movlw	low STR_11
  2355  006E38  6E5B               	movwf	sprintf@fmt^0,c
  2356  006E3A  0E7F               	movlw	high STR_11
  2357  006E3C  6E5C               	movwf	(sprintf@fmt+1)^0,c
  2358  006E3E  EC5B  F02E         	call	_EUSART1_Read	;wreg free
  2359  006E42  0100               	movlb	0	; () banked
  2360  006E44  6F7C               	movwf	??_main& (0+255),b
  2361  006E46  517C               	movf	??_main& (0+255),w,b
  2362  006E48  6E5D               	movwf	(?_sprintf+4)^0,c
  2363  006E4A  6A5E               	clrf	(?_sprintf+5)^0,c
  2364  006E4C  ECA7  F02F         	call	_sprintf	;wreg free
  2365  006E50                     l3276:
  2366                           
  2367                           ;main.c: 264:             oled_putString(read,0,1);
  2368  006E50  0E7D               	movlw	low main@read
  2369  006E52  6E0D               	movwf	oled_putString@string^0,c
  2370  006E54  0E00               	movlw	high main@read
  2371  006E56  6E0E               	movwf	(oled_putString@string+1)^0,c
  2372  006E58  0E00               	movlw	0
  2373  006E5A  6E0F               	movwf	oled_putString@station_dot^0,c
  2374  006E5C  0E01               	movlw	1
  2375  006E5E  6E10               	movwf	oled_putString@start_page^0,c
  2376  006E60  EC7B  F030         	call	_oled_putString	;wreg free
  2377  006E64                     
  2378                           ;main.c: 265:             delayms(200);
  2379  006E64  0E00               	movlw	0
  2380  006E66  6E02               	movwf	(delayms@length+1)^0,c
  2381  006E68  0EC8               	movlw	200
  2382  006E6A  6E01               	movwf	delayms@length^0,c
  2383  006E6C  EC0A  F02F         	call	_delayms	;wreg free
  2384                           
  2385                           ;main.c: 266:          }
  2386  006E70  EF45  F039         	goto	l3402
  2387  006E74                     l3280:
  2388                           
  2389                           ; BSR set to: 0
  2390  006E74  059D               	decf	main@cont& (0+255),w,b
  2391  006E76  A4D8               	btfss	status,2,c
  2392  006E78  EF40  F037         	goto	u1751
  2393  006E7C  EF42  F037         	goto	u1750
  2394  006E80                     u1751:
  2395  006E80  EF6F  F037         	goto	l3290
  2396  006E84                     u1750:
  2397  006E84                     
  2398                           ; BSR set to: 0
  2399                           ;main.c: 268:         {;main.c: 269:             oled_putString("transmision=1",0,2);
  2400  006E84  0EF1               	movlw	low STR_60
  2401  006E86  6E0D               	movwf	oled_putString@string^0,c
  2402  006E88  0E7E               	movlw	high STR_60
  2403  006E8A  6E0E               	movwf	(oled_putString@string+1)^0,c
  2404  006E8C  0E00               	movlw	0
  2405  006E8E  6E0F               	movwf	oled_putString@station_dot^0,c
  2406  006E90  0E02               	movlw	2
  2407  006E92  6E10               	movwf	oled_putString@start_page^0,c
  2408  006E94  EC7B  F030         	call	_oled_putString	;wreg free
  2409  006E98                     
  2410                           ;main.c: 270:             sendCommand("radio tx 10\r\n");
  2411  006E98  0E73               	movlw	low STR_61
  2412  006E9A  6E02               	movwf	sendCommand@texto^0,c
  2413  006E9C  0E7E               	movlw	high STR_61
  2414  006E9E  6E03               	movwf	(sendCommand@texto+1)^0,c
  2415  006EA0  ECD4  F02E         	call	_sendCommand	;wreg free
  2416  006EA4                     
  2417                           ;main.c: 271:             sprintf(read,"%d",EUSART1_Read());
  2418  006EA4  0E7D               	movlw	low main@read
  2419  006EA6  6E59               	movwf	sprintf@s^0,c
  2420  006EA8  0E00               	movlw	high main@read
  2421  006EAA  6E5A               	movwf	(sprintf@s+1)^0,c
  2422  006EAC  0EFC               	movlw	low STR_11
  2423  006EAE  6E5B               	movwf	sprintf@fmt^0,c
  2424  006EB0  0E7F               	movlw	high STR_11
  2425  006EB2  6E5C               	movwf	(sprintf@fmt+1)^0,c
  2426  006EB4  EC5B  F02E         	call	_EUSART1_Read	;wreg free
  2427  006EB8  0100               	movlb	0	; () banked
  2428  006EBA  6F7C               	movwf	??_main& (0+255),b
  2429  006EBC  517C               	movf	??_main& (0+255),w,b
  2430  006EBE  6E5D               	movwf	(?_sprintf+4)^0,c
  2431  006EC0  6A5E               	clrf	(?_sprintf+5)^0,c
  2432  006EC2  ECA7  F02F         	call	_sprintf	;wreg free
  2433  006EC6                     l3288:
  2434                           
  2435                           ;main.c: 272:             oled_putString(read,0,3);
  2436  006EC6  0E7D               	movlw	low main@read
  2437  006EC8  6E0D               	movwf	oled_putString@string^0,c
  2438  006ECA  0E00               	movlw	high main@read
  2439  006ECC  6E0E               	movwf	(oled_putString@string+1)^0,c
  2440  006ECE  0E00               	movlw	0
  2441  006ED0  6E0F               	movwf	oled_putString@station_dot^0,c
  2442  006ED2  0E03               	movlw	3
  2443  006ED4  6E10               	movwf	oled_putString@start_page^0,c
  2444  006ED6  EC7B  F030         	call	_oled_putString	;wreg free
  2445                           
  2446                           ;main.c: 273:         }
  2447  006EDA  EF45  F039         	goto	l3402
  2448  006EDE                     l3290:
  2449                           
  2450                           ; BSR set to: 0
  2451  006EDE  0E02               	movlw	2
  2452  006EE0  199D               	xorwf	main@cont& (0+255),w,b
  2453  006EE2  A4D8               	btfss	status,2,c
  2454  006EE4  EF76  F037         	goto	u1761
  2455  006EE8  EF78  F037         	goto	u1760
  2456  006EEC                     u1761:
  2457  006EEC  EF9B  F037         	goto	l3300
  2458  006EF0                     u1760:
  2459  006EF0                     
  2460                           ; BSR set to: 0
  2461                           ;main.c: 275:         {;main.c: 276:             oled_putString("transmision=2",0,2);
  2462  006EF0  0EFF               	movlw	low STR_63
  2463  006EF2  6E0D               	movwf	oled_putString@string^0,c
  2464  006EF4  0E7E               	movlw	high STR_63
  2465  006EF6  6E0E               	movwf	(oled_putString@string+1)^0,c
  2466  006EF8  0E00               	movlw	0
  2467  006EFA  6E0F               	movwf	oled_putString@station_dot^0,c
  2468  006EFC  0E02               	movlw	2
  2469  006EFE  6E10               	movwf	oled_putString@start_page^0,c
  2470  006F00  EC7B  F030         	call	_oled_putString	;wreg free
  2471  006F04                     
  2472                           ;main.c: 277:             sendCommand("radio tx 20\r\n");
  2473  006F04  0E81               	movlw	low STR_64
  2474  006F06  6E02               	movwf	sendCommand@texto^0,c
  2475  006F08  0E7E               	movlw	high STR_64
  2476  006F0A  6E03               	movwf	(sendCommand@texto+1)^0,c
  2477  006F0C  ECD4  F02E         	call	_sendCommand	;wreg free
  2478  006F10                     
  2479                           ;main.c: 278:             sprintf(read,"%d",EUSART1_Read());
  2480  006F10  0E7D               	movlw	low main@read
  2481  006F12  6E59               	movwf	sprintf@s^0,c
  2482  006F14  0E00               	movlw	high main@read
  2483  006F16  6E5A               	movwf	(sprintf@s+1)^0,c
  2484  006F18  0EFC               	movlw	low STR_11
  2485  006F1A  6E5B               	movwf	sprintf@fmt^0,c
  2486  006F1C  0E7F               	movlw	high STR_11
  2487  006F1E  6E5C               	movwf	(sprintf@fmt+1)^0,c
  2488  006F20  EC5B  F02E         	call	_EUSART1_Read	;wreg free
  2489  006F24  0100               	movlb	0	; () banked
  2490  006F26  6F7C               	movwf	??_main& (0+255),b
  2491  006F28  517C               	movf	??_main& (0+255),w,b
  2492  006F2A  6E5D               	movwf	(?_sprintf+4)^0,c
  2493  006F2C  6A5E               	clrf	(?_sprintf+5)^0,c
  2494  006F2E  ECA7  F02F         	call	_sprintf	;wreg free
  2495  006F32  EF63  F037         	goto	l3288
  2496  006F36                     l3300:
  2497                           
  2498                           ; BSR set to: 0
  2499  006F36  0E03               	movlw	3
  2500  006F38  199D               	xorwf	main@cont& (0+255),w,b
  2501  006F3A  A4D8               	btfss	status,2,c
  2502  006F3C  EFA2  F037         	goto	u1771
  2503  006F40  EFA4  F037         	goto	u1770
  2504  006F44                     u1771:
  2505  006F44  EFC7  F037         	goto	l3310
  2506  006F48                     u1770:
  2507  006F48                     
  2508                           ; BSR set to: 0
  2509                           ;main.c: 282:         {;main.c: 283:             oled_putString("transmision=3",0,2);
  2510  006F48  0E0D               	movlw	low STR_66
  2511  006F4A  6E0D               	movwf	oled_putString@string^0,c
  2512  006F4C  0E7F               	movlw	high STR_66
  2513  006F4E  6E0E               	movwf	(oled_putString@string+1)^0,c
  2514  006F50  0E00               	movlw	0
  2515  006F52  6E0F               	movwf	oled_putString@station_dot^0,c
  2516  006F54  0E02               	movlw	2
  2517  006F56  6E10               	movwf	oled_putString@start_page^0,c
  2518  006F58  EC7B  F030         	call	_oled_putString	;wreg free
  2519  006F5C                     
  2520                           ;main.c: 284:             sendCommand("radio tx 30\r\n");
  2521  006F5C  0E8F               	movlw	low STR_67
  2522  006F5E  6E02               	movwf	sendCommand@texto^0,c
  2523  006F60  0E7E               	movlw	high STR_67
  2524  006F62  6E03               	movwf	(sendCommand@texto+1)^0,c
  2525  006F64  ECD4  F02E         	call	_sendCommand	;wreg free
  2526  006F68                     
  2527                           ;main.c: 285:             sprintf(read,"%d",EUSART1_Read());
  2528  006F68  0E7D               	movlw	low main@read
  2529  006F6A  6E59               	movwf	sprintf@s^0,c
  2530  006F6C  0E00               	movlw	high main@read
  2531  006F6E  6E5A               	movwf	(sprintf@s+1)^0,c
  2532  006F70  0EFC               	movlw	low STR_11
  2533  006F72  6E5B               	movwf	sprintf@fmt^0,c
  2534  006F74  0E7F               	movlw	high STR_11
  2535  006F76  6E5C               	movwf	(sprintf@fmt+1)^0,c
  2536  006F78  EC5B  F02E         	call	_EUSART1_Read	;wreg free
  2537  006F7C  0100               	movlb	0	; () banked
  2538  006F7E  6F7C               	movwf	??_main& (0+255),b
  2539  006F80  517C               	movf	??_main& (0+255),w,b
  2540  006F82  6E5D               	movwf	(?_sprintf+4)^0,c
  2541  006F84  6A5E               	clrf	(?_sprintf+5)^0,c
  2542  006F86  ECA7  F02F         	call	_sprintf	;wreg free
  2543  006F8A  EF63  F037         	goto	l3288
  2544  006F8E                     l3310:
  2545                           
  2546                           ; BSR set to: 0
  2547  006F8E  0E04               	movlw	4
  2548  006F90  199D               	xorwf	main@cont& (0+255),w,b
  2549  006F92  A4D8               	btfss	status,2,c
  2550  006F94  EFCE  F037         	goto	u1781
  2551  006F98  EFD0  F037         	goto	u1780
  2552  006F9C                     u1781:
  2553  006F9C  EFF3  F037         	goto	l3320
  2554  006FA0                     u1780:
  2555  006FA0                     
  2556                           ; BSR set to: 0
  2557                           ;main.c: 289:         {;main.c: 290:             oled_putString("transmision=4",0,2);
  2558  006FA0  0E1B               	movlw	low STR_69
  2559  006FA2  6E0D               	movwf	oled_putString@string^0,c
  2560  006FA4  0E7F               	movlw	high STR_69
  2561  006FA6  6E0E               	movwf	(oled_putString@string+1)^0,c
  2562  006FA8  0E00               	movlw	0
  2563  006FAA  6E0F               	movwf	oled_putString@station_dot^0,c
  2564  006FAC  0E02               	movlw	2
  2565  006FAE  6E10               	movwf	oled_putString@start_page^0,c
  2566  006FB0  EC7B  F030         	call	_oled_putString	;wreg free
  2567  006FB4                     
  2568                           ;main.c: 291:             sendCommand("radio tx 40\r\n");
  2569  006FB4  0E9D               	movlw	low STR_70
  2570  006FB6  6E02               	movwf	sendCommand@texto^0,c
  2571  006FB8  0E7E               	movlw	high STR_70
  2572  006FBA  6E03               	movwf	(sendCommand@texto+1)^0,c
  2573  006FBC  ECD4  F02E         	call	_sendCommand	;wreg free
  2574  006FC0                     
  2575                           ;main.c: 292:             sprintf(read,"%d",EUSART1_Read());
  2576  006FC0  0E7D               	movlw	low main@read
  2577  006FC2  6E59               	movwf	sprintf@s^0,c
  2578  006FC4  0E00               	movlw	high main@read
  2579  006FC6  6E5A               	movwf	(sprintf@s+1)^0,c
  2580  006FC8  0EFC               	movlw	low STR_11
  2581  006FCA  6E5B               	movwf	sprintf@fmt^0,c
  2582  006FCC  0E7F               	movlw	high STR_11
  2583  006FCE  6E5C               	movwf	(sprintf@fmt+1)^0,c
  2584  006FD0  EC5B  F02E         	call	_EUSART1_Read	;wreg free
  2585  006FD4  0100               	movlb	0	; () banked
  2586  006FD6  6F7C               	movwf	??_main& (0+255),b
  2587  006FD8  517C               	movf	??_main& (0+255),w,b
  2588  006FDA  6E5D               	movwf	(?_sprintf+4)^0,c
  2589  006FDC  6A5E               	clrf	(?_sprintf+5)^0,c
  2590  006FDE  ECA7  F02F         	call	_sprintf	;wreg free
  2591  006FE2  EF63  F037         	goto	l3288
  2592  006FE6                     l3320:
  2593                           
  2594                           ; BSR set to: 0
  2595  006FE6  0E05               	movlw	5
  2596  006FE8  199D               	xorwf	main@cont& (0+255),w,b
  2597  006FEA  A4D8               	btfss	status,2,c
  2598  006FEC  EFFA  F037         	goto	u1791
  2599  006FF0  EFFC  F037         	goto	u1790
  2600  006FF4                     u1791:
  2601  006FF4  EF1F  F038         	goto	l3330
  2602  006FF8                     u1790:
  2603  006FF8                     
  2604                           ; BSR set to: 0
  2605                           ;main.c: 296:         {;main.c: 297:             oled_putString("transmision=5",0,2);
  2606  006FF8  0E29               	movlw	low STR_72
  2607  006FFA  6E0D               	movwf	oled_putString@string^0,c
  2608  006FFC  0E7F               	movlw	high STR_72
  2609  006FFE  6E0E               	movwf	(oled_putString@string+1)^0,c
  2610  007000  0E00               	movlw	0
  2611  007002  6E0F               	movwf	oled_putString@station_dot^0,c
  2612  007004  0E02               	movlw	2
  2613  007006  6E10               	movwf	oled_putString@start_page^0,c
  2614  007008  EC7B  F030         	call	_oled_putString	;wreg free
  2615  00700C                     
  2616                           ;main.c: 298:             sendCommand("radio tx 50\r\n");
  2617  00700C  0EAB               	movlw	low STR_73
  2618  00700E  6E02               	movwf	sendCommand@texto^0,c
  2619  007010  0E7E               	movlw	high STR_73
  2620  007012  6E03               	movwf	(sendCommand@texto+1)^0,c
  2621  007014  ECD4  F02E         	call	_sendCommand	;wreg free
  2622  007018                     
  2623                           ;main.c: 299:             sprintf(read,"%d",EUSART1_Read());
  2624  007018  0E7D               	movlw	low main@read
  2625  00701A  6E59               	movwf	sprintf@s^0,c
  2626  00701C  0E00               	movlw	high main@read
  2627  00701E  6E5A               	movwf	(sprintf@s+1)^0,c
  2628  007020  0EFC               	movlw	low STR_11
  2629  007022  6E5B               	movwf	sprintf@fmt^0,c
  2630  007024  0E7F               	movlw	high STR_11
  2631  007026  6E5C               	movwf	(sprintf@fmt+1)^0,c
  2632  007028  EC5B  F02E         	call	_EUSART1_Read	;wreg free
  2633  00702C  0100               	movlb	0	; () banked
  2634  00702E  6F7C               	movwf	??_main& (0+255),b
  2635  007030  517C               	movf	??_main& (0+255),w,b
  2636  007032  6E5D               	movwf	(?_sprintf+4)^0,c
  2637  007034  6A5E               	clrf	(?_sprintf+5)^0,c
  2638  007036  ECA7  F02F         	call	_sprintf	;wreg free
  2639  00703A  EF63  F037         	goto	l3288
  2640  00703E                     l3330:
  2641                           
  2642                           ; BSR set to: 0
  2643  00703E  0E06               	movlw	6
  2644  007040  199D               	xorwf	main@cont& (0+255),w,b
  2645  007042  A4D8               	btfss	status,2,c
  2646  007044  EF26  F038         	goto	u1801
  2647  007048  EF28  F038         	goto	u1800
  2648  00704C                     u1801:
  2649  00704C  EF4B  F038         	goto	l3340
  2650  007050                     u1800:
  2651  007050                     
  2652                           ; BSR set to: 0
  2653                           ;main.c: 303:         {;main.c: 304:             oled_putString("transmision=6",0,2);
  2654  007050  0E37               	movlw	low STR_75
  2655  007052  6E0D               	movwf	oled_putString@string^0,c
  2656  007054  0E7F               	movlw	high STR_75
  2657  007056  6E0E               	movwf	(oled_putString@string+1)^0,c
  2658  007058  0E00               	movlw	0
  2659  00705A  6E0F               	movwf	oled_putString@station_dot^0,c
  2660  00705C  0E02               	movlw	2
  2661  00705E  6E10               	movwf	oled_putString@start_page^0,c
  2662  007060  EC7B  F030         	call	_oled_putString	;wreg free
  2663  007064                     
  2664                           ;main.c: 305:             sendCommand("radio tx 60\r\n");
  2665  007064  0EB9               	movlw	low STR_76
  2666  007066  6E02               	movwf	sendCommand@texto^0,c
  2667  007068  0E7E               	movlw	high STR_76
  2668  00706A  6E03               	movwf	(sendCommand@texto+1)^0,c
  2669  00706C  ECD4  F02E         	call	_sendCommand	;wreg free
  2670  007070                     
  2671                           ;main.c: 306:             sprintf(read,"%d",EUSART1_Read());
  2672  007070  0E7D               	movlw	low main@read
  2673  007072  6E59               	movwf	sprintf@s^0,c
  2674  007074  0E00               	movlw	high main@read
  2675  007076  6E5A               	movwf	(sprintf@s+1)^0,c
  2676  007078  0EFC               	movlw	low STR_11
  2677  00707A  6E5B               	movwf	sprintf@fmt^0,c
  2678  00707C  0E7F               	movlw	high STR_11
  2679  00707E  6E5C               	movwf	(sprintf@fmt+1)^0,c
  2680  007080  EC5B  F02E         	call	_EUSART1_Read	;wreg free
  2681  007084  0100               	movlb	0	; () banked
  2682  007086  6F7C               	movwf	??_main& (0+255),b
  2683  007088  517C               	movf	??_main& (0+255),w,b
  2684  00708A  6E5D               	movwf	(?_sprintf+4)^0,c
  2685  00708C  6A5E               	clrf	(?_sprintf+5)^0,c
  2686  00708E  ECA7  F02F         	call	_sprintf	;wreg free
  2687  007092  EF63  F037         	goto	l3288
  2688  007096                     l3340:
  2689                           
  2690                           ; BSR set to: 0
  2691  007096  0E07               	movlw	7
  2692  007098  199D               	xorwf	main@cont& (0+255),w,b
  2693  00709A  A4D8               	btfss	status,2,c
  2694  00709C  EF52  F038         	goto	u1811
  2695  0070A0  EF54  F038         	goto	u1810
  2696  0070A4                     u1811:
  2697  0070A4  EF77  F038         	goto	l3350
  2698  0070A8                     u1810:
  2699  0070A8                     
  2700                           ; BSR set to: 0
  2701                           ;main.c: 310:         {;main.c: 311:             oled_putString("transmision=7",0,2);
  2702  0070A8  0E45               	movlw	low STR_78
  2703  0070AA  6E0D               	movwf	oled_putString@string^0,c
  2704  0070AC  0E7F               	movlw	high STR_78
  2705  0070AE  6E0E               	movwf	(oled_putString@string+1)^0,c
  2706  0070B0  0E00               	movlw	0
  2707  0070B2  6E0F               	movwf	oled_putString@station_dot^0,c
  2708  0070B4  0E02               	movlw	2
  2709  0070B6  6E10               	movwf	oled_putString@start_page^0,c
  2710  0070B8  EC7B  F030         	call	_oled_putString	;wreg free
  2711  0070BC                     
  2712                           ;main.c: 312:             sendCommand("radio tx 70\r\n");
  2713  0070BC  0EC7               	movlw	low STR_79
  2714  0070BE  6E02               	movwf	sendCommand@texto^0,c
  2715  0070C0  0E7E               	movlw	high STR_79
  2716  0070C2  6E03               	movwf	(sendCommand@texto+1)^0,c
  2717  0070C4  ECD4  F02E         	call	_sendCommand	;wreg free
  2718  0070C8                     
  2719                           ;main.c: 313:             sprintf(read,"%d",EUSART1_Read());
  2720  0070C8  0E7D               	movlw	low main@read
  2721  0070CA  6E59               	movwf	sprintf@s^0,c
  2722  0070CC  0E00               	movlw	high main@read
  2723  0070CE  6E5A               	movwf	(sprintf@s+1)^0,c
  2724  0070D0  0EFC               	movlw	low STR_11
  2725  0070D2  6E5B               	movwf	sprintf@fmt^0,c
  2726  0070D4  0E7F               	movlw	high STR_11
  2727  0070D6  6E5C               	movwf	(sprintf@fmt+1)^0,c
  2728  0070D8  EC5B  F02E         	call	_EUSART1_Read	;wreg free
  2729  0070DC  0100               	movlb	0	; () banked
  2730  0070DE  6F7C               	movwf	??_main& (0+255),b
  2731  0070E0  517C               	movf	??_main& (0+255),w,b
  2732  0070E2  6E5D               	movwf	(?_sprintf+4)^0,c
  2733  0070E4  6A5E               	clrf	(?_sprintf+5)^0,c
  2734  0070E6  ECA7  F02F         	call	_sprintf	;wreg free
  2735  0070EA  EF63  F037         	goto	l3288
  2736  0070EE                     l3350:
  2737                           
  2738                           ; BSR set to: 0
  2739  0070EE  0E08               	movlw	8
  2740  0070F0  199D               	xorwf	main@cont& (0+255),w,b
  2741  0070F2  A4D8               	btfss	status,2,c
  2742  0070F4  EF7E  F038         	goto	u1821
  2743  0070F8  EF80  F038         	goto	u1820
  2744  0070FC                     u1821:
  2745  0070FC  EFA3  F038         	goto	l3360
  2746  007100                     u1820:
  2747  007100                     
  2748                           ; BSR set to: 0
  2749                           ;main.c: 317:         {;main.c: 318:             oled_putString("transmision=8",0,2);
  2750  007100  0E53               	movlw	low STR_81
  2751  007102  6E0D               	movwf	oled_putString@string^0,c
  2752  007104  0E7F               	movlw	high STR_81
  2753  007106  6E0E               	movwf	(oled_putString@string+1)^0,c
  2754  007108  0E00               	movlw	0
  2755  00710A  6E0F               	movwf	oled_putString@station_dot^0,c
  2756  00710C  0E02               	movlw	2
  2757  00710E  6E10               	movwf	oled_putString@start_page^0,c
  2758  007110  EC7B  F030         	call	_oled_putString	;wreg free
  2759  007114                     
  2760                           ;main.c: 319:             sendCommand("radio tx 80\r\n");
  2761  007114  0ED5               	movlw	low STR_82
  2762  007116  6E02               	movwf	sendCommand@texto^0,c
  2763  007118  0E7E               	movlw	high STR_82
  2764  00711A  6E03               	movwf	(sendCommand@texto+1)^0,c
  2765  00711C  ECD4  F02E         	call	_sendCommand	;wreg free
  2766  007120                     
  2767                           ;main.c: 320:             sprintf(read,"%d",EUSART1_Read());
  2768  007120  0E7D               	movlw	low main@read
  2769  007122  6E59               	movwf	sprintf@s^0,c
  2770  007124  0E00               	movlw	high main@read
  2771  007126  6E5A               	movwf	(sprintf@s+1)^0,c
  2772  007128  0EFC               	movlw	low STR_11
  2773  00712A  6E5B               	movwf	sprintf@fmt^0,c
  2774  00712C  0E7F               	movlw	high STR_11
  2775  00712E  6E5C               	movwf	(sprintf@fmt+1)^0,c
  2776  007130  EC5B  F02E         	call	_EUSART1_Read	;wreg free
  2777  007134  0100               	movlb	0	; () banked
  2778  007136  6F7C               	movwf	??_main& (0+255),b
  2779  007138  517C               	movf	??_main& (0+255),w,b
  2780  00713A  6E5D               	movwf	(?_sprintf+4)^0,c
  2781  00713C  6A5E               	clrf	(?_sprintf+5)^0,c
  2782  00713E  ECA7  F02F         	call	_sprintf	;wreg free
  2783  007142  EF63  F037         	goto	l3288
  2784  007146                     l3360:
  2785                           
  2786                           ; BSR set to: 0
  2787  007146  0E09               	movlw	9
  2788  007148  199D               	xorwf	main@cont& (0+255),w,b
  2789  00714A  A4D8               	btfss	status,2,c
  2790  00714C  EFAA  F038         	goto	u1831
  2791  007150  EFAC  F038         	goto	u1830
  2792  007154                     u1831:
  2793  007154  EFCF  F038         	goto	l3370
  2794  007158                     u1830:
  2795  007158                     
  2796                           ; BSR set to: 0
  2797                           ;main.c: 324:         {;main.c: 325:             oled_putString("transmision=9",0,2);
  2798  007158  0E61               	movlw	low STR_84
  2799  00715A  6E0D               	movwf	oled_putString@string^0,c
  2800  00715C  0E7F               	movlw	high STR_84
  2801  00715E  6E0E               	movwf	(oled_putString@string+1)^0,c
  2802  007160  0E00               	movlw	0
  2803  007162  6E0F               	movwf	oled_putString@station_dot^0,c
  2804  007164  0E02               	movlw	2
  2805  007166  6E10               	movwf	oled_putString@start_page^0,c
  2806  007168  EC7B  F030         	call	_oled_putString	;wreg free
  2807  00716C                     
  2808                           ;main.c: 326:             sendCommand("radio tx 90\r\n");
  2809  00716C  0EE3               	movlw	low STR_85
  2810  00716E  6E02               	movwf	sendCommand@texto^0,c
  2811  007170  0E7E               	movlw	high STR_85
  2812  007172  6E03               	movwf	(sendCommand@texto+1)^0,c
  2813  007174  ECD4  F02E         	call	_sendCommand	;wreg free
  2814  007178                     
  2815                           ;main.c: 327:             sprintf(read,"%d",EUSART1_Read());
  2816  007178  0E7D               	movlw	low main@read
  2817  00717A  6E59               	movwf	sprintf@s^0,c
  2818  00717C  0E00               	movlw	high main@read
  2819  00717E  6E5A               	movwf	(sprintf@s+1)^0,c
  2820  007180  0EFC               	movlw	low STR_11
  2821  007182  6E5B               	movwf	sprintf@fmt^0,c
  2822  007184  0E7F               	movlw	high STR_11
  2823  007186  6E5C               	movwf	(sprintf@fmt+1)^0,c
  2824  007188  EC5B  F02E         	call	_EUSART1_Read	;wreg free
  2825  00718C  0100               	movlb	0	; () banked
  2826  00718E  6F7C               	movwf	??_main& (0+255),b
  2827  007190  517C               	movf	??_main& (0+255),w,b
  2828  007192  6E5D               	movwf	(?_sprintf+4)^0,c
  2829  007194  6A5E               	clrf	(?_sprintf+5)^0,c
  2830  007196  ECA7  F02F         	call	_sprintf	;wreg free
  2831  00719A  EF63  F037         	goto	l3288
  2832  00719E                     l3370:
  2833                           
  2834                           ; BSR set to: 0
  2835  00719E  0E0A               	movlw	10
  2836  0071A0  199D               	xorwf	main@cont& (0+255),w,b
  2837  0071A2  A4D8               	btfss	status,2,c
  2838  0071A4  EFD6  F038         	goto	u1841
  2839  0071A8  EFD8  F038         	goto	u1840
  2840  0071AC                     u1841:
  2841  0071AC  EF45  F039         	goto	l243
  2842  0071B0                     u1840:
  2843  0071B0                     
  2844                           ; BSR set to: 0
  2845                           ;main.c: 331:         {;main.c: 332:             oled_clear();
  2846  0071B0  EC1C  F02E         	call	_oled_clear	;wreg free
  2847  0071B4                     
  2848                           ;main.c: 333:             oled_putString("termino",0,0);
  2849  0071B4  0EE1               	movlw	low STR_87
  2850  0071B6  6E0D               	movwf	oled_putString@string^0,c
  2851  0071B8  0E7F               	movlw	high STR_87
  2852  0071BA  6E0E               	movwf	(oled_putString@string+1)^0,c
  2853  0071BC  0E00               	movlw	0
  2854  0071BE  6E0F               	movwf	oled_putString@station_dot^0,c
  2855  0071C0  0E00               	movlw	0
  2856  0071C2  6E10               	movwf	oled_putString@start_page^0,c
  2857  0071C4  EC7B  F030         	call	_oled_putString	;wreg free
  2858  0071C8                     
  2859                           ;main.c: 334:             sendCommand("mac resume\r\n");
  2860  0071C8  0E6F               	movlw	low STR_88
  2861  0071CA  6E02               	movwf	sendCommand@texto^0,c
  2862  0071CC  0E7F               	movlw	high STR_88
  2863  0071CE  6E03               	movwf	(sendCommand@texto+1)^0,c
  2864  0071D0  ECD4  F02E         	call	_sendCommand	;wreg free
  2865  0071D4                     
  2866                           ;main.c: 335:             sprintf(read,"%d",EUSART1_Read());
  2867  0071D4  0E7D               	movlw	low main@read
  2868  0071D6  6E59               	movwf	sprintf@s^0,c
  2869  0071D8  0E00               	movlw	high main@read
  2870  0071DA  6E5A               	movwf	(sprintf@s+1)^0,c
  2871  0071DC  0EFC               	movlw	low STR_11
  2872  0071DE  6E5B               	movwf	sprintf@fmt^0,c
  2873  0071E0  0E7F               	movlw	high STR_11
  2874  0071E2  6E5C               	movwf	(sprintf@fmt+1)^0,c
  2875  0071E4  EC5B  F02E         	call	_EUSART1_Read	;wreg free
  2876  0071E8  0100               	movlb	0	; () banked
  2877  0071EA  6F7C               	movwf	??_main& (0+255),b
  2878  0071EC  517C               	movf	??_main& (0+255),w,b
  2879  0071EE  6E5D               	movwf	(?_sprintf+4)^0,c
  2880  0071F0  6A5E               	clrf	(?_sprintf+5)^0,c
  2881  0071F2  ECA7  F02F         	call	_sprintf	;wreg free
  2882  0071F6                     
  2883                           ;main.c: 336:             oled_putString(read,0,3);
  2884  0071F6  0E7D               	movlw	low main@read
  2885  0071F8  6E0D               	movwf	oled_putString@string^0,c
  2886  0071FA  0E00               	movlw	high main@read
  2887  0071FC  6E0E               	movwf	(oled_putString@string+1)^0,c
  2888  0071FE  0E00               	movlw	0
  2889  007200  6E0F               	movwf	oled_putString@station_dot^0,c
  2890  007202  0E03               	movlw	3
  2891  007204  6E10               	movwf	oled_putString@start_page^0,c
  2892  007206  EC7B  F030         	call	_oled_putString	;wreg free
  2893  00720A                     
  2894                           ;main.c: 337:             oled_putUint8(cont,9,1);
  2895  00720A  0E09               	movlw	9
  2896  00720C  6E12               	movwf	oled_putUint8@station_dot^0,c
  2897  00720E  0E01               	movlw	1
  2898  007210  6E13               	movwf	oled_putUint8@start_page^0,c
  2899  007212  0100               	movlb	0	; () banked
  2900  007214  519D               	movf	main@cont& (0+255),w,b
  2901  007216  ECBB  F030         	call	_oled_putUint8
  2902  00721A                     
  2903                           ;main.c: 338:             oled_putString("cont: ",4,1);
  2904  00721A  0EE9               	movlw	low STR_90
  2905  00721C  6E0D               	movwf	oled_putString@string^0,c
  2906  00721E  0E7F               	movlw	high STR_90
  2907  007220  6E0E               	movwf	(oled_putString@string+1)^0,c
  2908  007222  0E04               	movlw	4
  2909  007224  6E0F               	movwf	oled_putString@station_dot^0,c
  2910  007226  0E01               	movlw	1
  2911  007228  6E10               	movwf	oled_putString@start_page^0,c
  2912  00722A  EC7B  F030         	call	_oled_putString	;wreg free
  2913  00722E                     
  2914                           ;main.c: 339:             cont = 0;
  2915  00722E  0E00               	movlw	0
  2916  007230  0100               	movlb	0	; () banked
  2917  007232  6F9D               	movwf	main@cont& (0+255),b
  2918  007234                     
  2919                           ; BSR set to: 0
  2920                           ;main.c: 340:             delayms(200);
  2921  007234  0E00               	movlw	0
  2922  007236  6E02               	movwf	(delayms@length+1)^0,c
  2923  007238  0EC8               	movlw	200
  2924  00723A  6E01               	movwf	delayms@length^0,c
  2925  00723C  EC0A  F02F         	call	_delayms	;wreg free
  2926  007240                     
  2927                           ;main.c: 341:             oled_clear();
  2928  007240  EC1C  F02E         	call	_oled_clear	;wreg free
  2929  007244                     
  2930                           ;main.c: 342:             oled_putString("MAC PUASE",0,0);
  2931  007244  0EA9               	movlw	low STR_57
  2932  007246  6E0D               	movwf	oled_putString@string^0,c
  2933  007248  0E7F               	movlw	high STR_57
  2934  00724A  6E0E               	movwf	(oled_putString@string+1)^0,c
  2935  00724C  0E00               	movlw	0
  2936  00724E  6E0F               	movwf	oled_putString@station_dot^0,c
  2937  007250  0E00               	movlw	0
  2938  007252  6E10               	movwf	oled_putString@start_page^0,c
  2939  007254  EC7B  F030         	call	_oled_putString	;wreg free
  2940  007258                     
  2941                           ;main.c: 343:             sendCommand("mac pause\r\n");
  2942  007258  0E7C               	movlw	low STR_58
  2943  00725A  6E02               	movwf	sendCommand@texto^0,c
  2944  00725C  0E7F               	movlw	high STR_58
  2945  00725E  6E03               	movwf	(sendCommand@texto+1)^0,c
  2946  007260  ECD4  F02E         	call	_sendCommand	;wreg free
  2947  007264                     
  2948                           ;main.c: 344:             sprintf(read,"%d",EUSART1_Read());
  2949  007264  0E7D               	movlw	low main@read
  2950  007266  6E59               	movwf	sprintf@s^0,c
  2951  007268  0E00               	movlw	high main@read
  2952  00726A  6E5A               	movwf	(sprintf@s+1)^0,c
  2953  00726C  0EFC               	movlw	low STR_11
  2954  00726E  6E5B               	movwf	sprintf@fmt^0,c
  2955  007270  0E7F               	movlw	high STR_11
  2956  007272  6E5C               	movwf	(sprintf@fmt+1)^0,c
  2957  007274  EC5B  F02E         	call	_EUSART1_Read	;wreg free
  2958  007278  0100               	movlb	0	; () banked
  2959  00727A  6F7C               	movwf	??_main& (0+255),b
  2960  00727C  517C               	movf	??_main& (0+255),w,b
  2961  00727E  6E5D               	movwf	(?_sprintf+4)^0,c
  2962  007280  6A5E               	clrf	(?_sprintf+5)^0,c
  2963  007282  ECA7  F02F         	call	_sprintf	;wreg free
  2964  007286  EF28  F037         	goto	l3276
  2965  00728A                     l243:
  2966  00728A                     l3402:
  2967                           
  2968                           ;main.c: 348:         oled_putUint8(cont,9,1);
  2969  00728A  0E09               	movlw	9
  2970  00728C  6E12               	movwf	oled_putUint8@station_dot^0,c
  2971  00728E  0E01               	movlw	1
  2972  007290  6E13               	movwf	oled_putUint8@start_page^0,c
  2973  007292  0100               	movlb	0	; () banked
  2974  007294  519D               	movf	main@cont& (0+255),w,b
  2975  007296  ECBB  F030         	call	_oled_putUint8
  2976  00729A                     
  2977                           ;main.c: 349:         oled_putString("cont: ",4,1);
  2978  00729A  0EE9               	movlw	low STR_90
  2979  00729C  6E0D               	movwf	oled_putString@string^0,c
  2980  00729E  0E7F               	movlw	high STR_90
  2981  0072A0  6E0E               	movwf	(oled_putString@string+1)^0,c
  2982  0072A2  0E04               	movlw	4
  2983  0072A4  6E0F               	movwf	oled_putString@station_dot^0,c
  2984  0072A6  0E01               	movlw	1
  2985  0072A8  6E10               	movwf	oled_putString@start_page^0,c
  2986  0072AA  EC7B  F030         	call	_oled_putString	;wreg free
  2987  0072AE                     
  2988                           ;main.c: 350:         cont++;
  2989  0072AE  0100               	movlb	0	; () banked
  2990  0072B0  2B9D               	incf	main@cont& (0+255),f,b
  2991  0072B2                     
  2992                           ; BSR set to: 0
  2993                           ;main.c: 351:         delayms(3000);
  2994  0072B2  0E0B               	movlw	11
  2995  0072B4  6E02               	movwf	(delayms@length+1)^0,c
  2996  0072B6  0EB8               	movlw	184
  2997  0072B8  6E01               	movwf	delayms@length^0,c
  2998  0072BA  EC0A  F02F         	call	_delayms	;wreg free
  2999  0072BE  EFFE  F036         	goto	l3268
  3000  0072C2  EF00  F000         	goto	start
  3001  0072C6                     __end_of_main:
  3002                           	callstack 0
  3003                           
  3004 ;; *************** function _oled_putUint8 *****************
  3005 ;; Defined at:
  3006 ;;		line 264 in file "SSD1306oLED.c"
  3007 ;; Parameters:    Size  Location     Type
  3008 ;;  number          1    wreg     unsigned char 
  3009 ;;  station_dot     1   17[COMRAM] unsigned char 
  3010 ;;  start_page      1   18[COMRAM] unsigned char 
  3011 ;; Auto vars:     Size  Location     Type
  3012 ;;  number          1   19[COMRAM] unsigned char 
  3013 ;;  numData         6   20[COMRAM] struct .
  3014 ;; Return value:  Size  Location     Type
  3015 ;;                  1    wreg      void 
  3016 ;; Registers used:
  3017 ;;		wreg, fsr0l, fsr0h, status,2, status,0, tblptrl, tblptrh, tblptru, prodl, prodh, cstack
  3018 ;; Tracked objects:
  3019 ;;		On entry : 0/0
  3020 ;;		On exit  : 0/0
  3021 ;;		Unchanged: 0/0
  3022 ;; Data sizes:     COMRAM   BANK0   BANK1   BANK2   BANK3   BANK4   BANK5   BANK6   BANK7
  3023 ;;      Params:         2       0       0       0       0       0       0       0       0
  3024 ;;      Locals:         7       0       0       0       0       0       0       0       0
  3025 ;;      Temps:          0       0       0       0       0       0       0       0       0
  3026 ;;      Totals:         9       0       0       0       0       0       0       0       0
  3027 ;;Total ram usage:        9 bytes
  3028 ;; Hardware stack levels used: 1
  3029 ;; Hardware stack levels required when called: 4
  3030 ;; This function calls:
  3031 ;;		___awdiv
  3032 ;;		___awmod
  3033 ;;		_oled_putString
  3034 ;; This function is called by:
  3035 ;;		_main
  3036 ;; This function uses a non-reentrant model
  3037 ;;
  3038                           
  3039                           	psect	text1
  3040  006176                     __ptext1:
  3041                           	callstack 0
  3042  006176                     _oled_putUint8:
  3043                           	callstack 26
  3044                           
  3045                           ;incstack = 0
  3046                           ;oled_putUint8@number stored from wreg
  3047  006176  6E14               	movwf	oled_putUint8@number^0,c
  3048  006178                     
  3049                           ;SSD1306oLED.c: 264: void oled_putUint8(uint8_t number, uint8_t station_dot, uint8_t sta
      +                          rt_page);SSD1306oLED.c: 265: {;SSD1306oLED.c: 266:     display_data_t numData;;SSD1306oL
      +                          ED.c: 267:     numData.d2 = '0' + (number % 10);
  3050  006178  C014  F001         	movff	oled_putUint8@number,___awmod@dividend
  3051  00617C  6A02               	clrf	(___awmod@dividend+1)^0,c
  3052  00617E  0E00               	movlw	0
  3053  006180  6E04               	movwf	(___awmod@divisor+1)^0,c
  3054  006182  0E0A               	movlw	10
  3055  006184  6E03               	movwf	___awmod@divisor^0,c
  3056  006186  EC03  F031         	call	___awmod	;wreg free
  3057  00618A  5001               	movf	?___awmod^0,w,c
  3058  00618C  0F30               	addlw	48
  3059  00618E  6E17               	movwf	(oled_putUint8@numData+2)^0,c
  3060                           
  3061                           ;SSD1306oLED.c: 268:     number /= 10;
  3062  006190  C014  F001         	movff	oled_putUint8@number,___awdiv@dividend
  3063  006194  6A02               	clrf	(___awdiv@dividend+1)^0,c
  3064  006196  0E00               	movlw	0
  3065  006198  6E04               	movwf	(___awdiv@divisor+1)^0,c
  3066  00619A  0E0A               	movlw	10
  3067  00619C  6E03               	movwf	___awdiv@divisor^0,c
  3068  00619E  EC5B  F031         	call	___awdiv	;wreg free
  3069  0061A2  5001               	movf	?___awdiv^0,w,c
  3070  0061A4  6E14               	movwf	oled_putUint8@number^0,c
  3071                           
  3072                           ;SSD1306oLED.c: 269:     numData.d1 = '0' + (number % 10);
  3073  0061A6  C014  F001         	movff	oled_putUint8@number,___awmod@dividend
  3074  0061AA  6A02               	clrf	(___awmod@dividend+1)^0,c
  3075  0061AC  0E00               	movlw	0
  3076  0061AE  6E04               	movwf	(___awmod@divisor+1)^0,c
  3077  0061B0  0E0A               	movlw	10
  3078  0061B2  6E03               	movwf	___awmod@divisor^0,c
  3079  0061B4  EC03  F031         	call	___awmod	;wreg free
  3080  0061B8  5001               	movf	?___awmod^0,w,c
  3081  0061BA  0F30               	addlw	48
  3082  0061BC  6E16               	movwf	(oled_putUint8@numData+1)^0,c
  3083                           
  3084                           ;SSD1306oLED.c: 270:     number /= 10;
  3085  0061BE  C014  F001         	movff	oled_putUint8@number,___awdiv@dividend
  3086  0061C2  6A02               	clrf	(___awdiv@dividend+1)^0,c
  3087  0061C4  0E00               	movlw	0
  3088  0061C6  6E04               	movwf	(___awdiv@divisor+1)^0,c
  3089  0061C8  0E0A               	movlw	10
  3090  0061CA  6E03               	movwf	___awdiv@divisor^0,c
  3091  0061CC  EC5B  F031         	call	___awdiv	;wreg free
  3092  0061D0  5001               	movf	?___awdiv^0,w,c
  3093  0061D2  6E14               	movwf	oled_putUint8@number^0,c
  3094                           
  3095                           ;SSD1306oLED.c: 271:     numData.d0 = '0' + (number % 10);
  3096  0061D4  C014  F001         	movff	oled_putUint8@number,___awmod@dividend
  3097  0061D8  6A02               	clrf	(___awmod@dividend+1)^0,c
  3098  0061DA  0E00               	movlw	0
  3099  0061DC  6E04               	movwf	(___awmod@divisor+1)^0,c
  3100  0061DE  0E0A               	movlw	10
  3101  0061E0  6E03               	movwf	___awmod@divisor^0,c
  3102  0061E2  EC03  F031         	call	___awmod	;wreg free
  3103  0061E6  5001               	movf	?___awmod^0,w,c
  3104  0061E8  0F30               	addlw	48
  3105  0061EA  6E15               	movwf	oled_putUint8@numData^0,c
  3106  0061EC                     
  3107                           ;SSD1306oLED.c: 273:     numData.b[3]=0;
  3108  0061EC  0E00               	movlw	0
  3109  0061EE  6E18               	movwf	(oled_putUint8@numData+3)^0,c
  3110  0061F0                     
  3111                           ;SSD1306oLED.c: 275:     oled_putString(numData.b,station_dot,start_page);
  3112  0061F0  0E15               	movlw	low oled_putUint8@numData
  3113  0061F2  6E0D               	movwf	oled_putString@string^0,c
  3114  0061F4  0E00               	movlw	high oled_putUint8@numData
  3115  0061F6  6E0E               	movwf	(oled_putString@string+1)^0,c
  3116  0061F8  C012  F00F         	movff	oled_putUint8@station_dot,oled_putString@station_dot
  3117  0061FC  C013  F010         	movff	oled_putUint8@start_page,oled_putString@start_page
  3118  006200  EC7B  F030         	call	_oled_putString	;wreg free
  3119  006204  0012               	return		;funcret
  3120  006206                     __end_of_oled_putUint8:
  3121                           	callstack 0
  3122                           
  3123 ;; *************** function ___awmod *****************
  3124 ;; Defined at:
  3125 ;;		line 7 in file "C:\Program Files\Microchip\xc8\v2.32\pic\sources\c99\common\awmod.c"
  3126 ;; Parameters:    Size  Location     Type
  3127 ;;  dividend        2    0[COMRAM] int 
  3128 ;;  divisor         2    2[COMRAM] int 
  3129 ;; Auto vars:     Size  Location     Type
  3130 ;;  sign            1    5[COMRAM] unsigned char 
  3131 ;;  counter         1    4[COMRAM] unsigned char 
  3132 ;; Return value:  Size  Location     Type
  3133 ;;                  2    0[COMRAM] int 
  3134 ;; Registers used:
  3135 ;;		wreg, status,2, status,0
  3136 ;; Tracked objects:
  3137 ;;		On entry : 0/0
  3138 ;;		On exit  : 0/0
  3139 ;;		Unchanged: 0/0
  3140 ;; Data sizes:     COMRAM   BANK0   BANK1   BANK2   BANK3   BANK4   BANK5   BANK6   BANK7
  3141 ;;      Params:         4       0       0       0       0       0       0       0       0
  3142 ;;      Locals:         2       0       0       0       0       0       0       0       0
  3143 ;;      Temps:          0       0       0       0       0       0       0       0       0
  3144 ;;      Totals:         6       0       0       0       0       0       0       0       0
  3145 ;;Total ram usage:        6 bytes
  3146 ;; Hardware stack levels used: 1
  3147 ;; This function calls:
  3148 ;;		Nothing
  3149 ;; This function is called by:
  3150 ;;		_oled_putUint8
  3151 ;;		_oled_putint8
  3152 ;; This function uses a non-reentrant model
  3153 ;;
  3154                           
  3155                           	psect	text2
  3156  006206                     __ptext2:
  3157                           	callstack 0
  3158  006206                     ___awmod:
  3159                           	callstack 29
  3160  006206  0E00               	movlw	0
  3161  006208  6E06               	movwf	___awmod@sign^0,c
  3162  00620A  BE02               	btfsc	(___awmod@dividend+1)^0,7,c
  3163  00620C  EF0C  F031         	goto	u1670
  3164  006210  EF0A  F031         	goto	u1671
  3165  006214                     u1671:
  3166  006214  EF12  F031         	goto	l2890
  3167  006218                     u1670:
  3168  006218  6C01               	negf	___awmod@dividend^0,c
  3169  00621A  1E02               	comf	(___awmod@dividend+1)^0,f,c
  3170  00621C  B0D8               	btfsc	status,0,c
  3171  00621E  2A02               	incf	(___awmod@dividend+1)^0,f,c
  3172  006220  0E01               	movlw	1
  3173  006222  6E06               	movwf	___awmod@sign^0,c
  3174  006224                     l2890:
  3175  006224  BE04               	btfsc	(___awmod@divisor+1)^0,7,c
  3176  006226  EF19  F031         	goto	u1680
  3177  00622A  EF17  F031         	goto	u1681
  3178  00622E                     u1681:
  3179  00622E  EF1D  F031         	goto	l2894
  3180  006232                     u1680:
  3181  006232  6C03               	negf	___awmod@divisor^0,c
  3182  006234  1E04               	comf	(___awmod@divisor+1)^0,f,c
  3183  006236  B0D8               	btfsc	status,0,c
  3184  006238  2A04               	incf	(___awmod@divisor+1)^0,f,c
  3185  00623A                     l2894:
  3186  00623A  5003               	movf	___awmod@divisor^0,w,c
  3187  00623C  1004               	iorwf	(___awmod@divisor+1)^0,w,c
  3188  00623E  B4D8               	btfsc	status,2,c
  3189  006240  EF24  F031         	goto	u1691
  3190  006244  EF26  F031         	goto	u1690
  3191  006248                     u1691:
  3192  006248  EF4A  F031         	goto	l2910
  3193  00624C                     u1690:
  3194  00624C  0E01               	movlw	1
  3195  00624E  6E05               	movwf	___awmod@counter^0,c
  3196  006250  EF2E  F031         	goto	l2900
  3197  006254                     l2898:
  3198  006254  90D8               	bcf	status,0,c
  3199  006256  3603               	rlcf	___awmod@divisor^0,f,c
  3200  006258  3604               	rlcf	(___awmod@divisor+1)^0,f,c
  3201  00625A  2A05               	incf	___awmod@counter^0,f,c
  3202  00625C                     l2900:
  3203  00625C  AE04               	btfss	(___awmod@divisor+1)^0,7,c
  3204  00625E  EF33  F031         	goto	u1701
  3205  006262  EF35  F031         	goto	u1700
  3206  006266                     u1701:
  3207  006266  EF2A  F031         	goto	l2898
  3208  00626A                     u1700:
  3209  00626A                     l2902:
  3210  00626A  5003               	movf	___awmod@divisor^0,w,c
  3211  00626C  5C01               	subwf	___awmod@dividend^0,w,c
  3212  00626E  5004               	movf	(___awmod@divisor+1)^0,w,c
  3213  006270  5802               	subwfb	(___awmod@dividend+1)^0,w,c
  3214  006272  A0D8               	btfss	status,0,c
  3215  006274  EF3E  F031         	goto	u1711
  3216  006278  EF40  F031         	goto	u1710
  3217  00627C                     u1711:
  3218  00627C  EF44  F031         	goto	l2906
  3219  006280                     u1710:
  3220  006280  5003               	movf	___awmod@divisor^0,w,c
  3221  006282  5E01               	subwf	___awmod@dividend^0,f,c
  3222  006284  5004               	movf	(___awmod@divisor+1)^0,w,c
  3223  006286  5A02               	subwfb	(___awmod@dividend+1)^0,f,c
  3224  006288                     l2906:
  3225  006288  90D8               	bcf	status,0,c
  3226  00628A  3204               	rrcf	(___awmod@divisor+1)^0,f,c
  3227  00628C  3203               	rrcf	___awmod@divisor^0,f,c
  3228  00628E  2E05               	decfsz	___awmod@counter^0,f,c
  3229  006290  EF35  F031         	goto	l2902
  3230  006294                     l2910:
  3231  006294  5006               	movf	___awmod@sign^0,w,c
  3232  006296  B4D8               	btfsc	status,2,c
  3233  006298  EF50  F031         	goto	u1721
  3234  00629C  EF52  F031         	goto	u1720
  3235  0062A0                     u1721:
  3236  0062A0  EF56  F031         	goto	l2914
  3237  0062A4                     u1720:
  3238  0062A4  6C01               	negf	___awmod@dividend^0,c
  3239  0062A6  1E02               	comf	(___awmod@dividend+1)^0,f,c
  3240  0062A8  B0D8               	btfsc	status,0,c
  3241  0062AA  2A02               	incf	(___awmod@dividend+1)^0,f,c
  3242  0062AC                     l2914:
  3243  0062AC  C001  F001         	movff	___awmod@dividend,?___awmod
  3244  0062B0  C002  F002         	movff	___awmod@dividend+1,?___awmod+1
  3245  0062B4  0012               	return		;funcret
  3246  0062B6                     __end_of___awmod:
  3247                           	callstack 0
  3248                           
  3249 ;; *************** function ___awdiv *****************
  3250 ;; Defined at:
  3251 ;;		line 7 in file "C:\Program Files\Microchip\xc8\v2.32\pic\sources\c99\common\awdiv.c"
  3252 ;; Parameters:    Size  Location     Type
  3253 ;;  dividend        2    0[COMRAM] int 
  3254 ;;  divisor         2    2[COMRAM] int 
  3255 ;; Auto vars:     Size  Location     Type
  3256 ;;  quotient        2    6[COMRAM] int 
  3257 ;;  sign            1    5[COMRAM] unsigned char 
  3258 ;;  counter         1    4[COMRAM] unsigned char 
  3259 ;; Return value:  Size  Location     Type
  3260 ;;                  2    0[COMRAM] int 
  3261 ;; Registers used:
  3262 ;;		wreg, status,2, status,0
  3263 ;; Tracked objects:
  3264 ;;		On entry : 0/0
  3265 ;;		On exit  : 0/0
  3266 ;;		Unchanged: 0/0
  3267 ;; Data sizes:     COMRAM   BANK0   BANK1   BANK2   BANK3   BANK4   BANK5   BANK6   BANK7
  3268 ;;      Params:         4       0       0       0       0       0       0       0       0
  3269 ;;      Locals:         4       0       0       0       0       0       0       0       0
  3270 ;;      Temps:          0       0       0       0       0       0       0       0       0
  3271 ;;      Totals:         8       0       0       0       0       0       0       0       0
  3272 ;;Total ram usage:        8 bytes
  3273 ;; Hardware stack levels used: 1
  3274 ;; This function calls:
  3275 ;;		Nothing
  3276 ;; This function is called by:
  3277 ;;		_oled_putUint8
  3278 ;;		_oled_putint8
  3279 ;; This function uses a non-reentrant model
  3280 ;;
  3281                           
  3282                           	psect	text3
  3283  0062B6                     __ptext3:
  3284                           	callstack 0
  3285  0062B6                     ___awdiv:
  3286                           	callstack 29
  3287  0062B6  0E00               	movlw	0
  3288  0062B8  6E06               	movwf	___awdiv@sign^0,c
  3289  0062BA  BE04               	btfsc	(___awdiv@divisor+1)^0,7,c
  3290  0062BC  EF64  F031         	goto	u1610
  3291  0062C0  EF62  F031         	goto	u1611
  3292  0062C4                     u1611:
  3293  0062C4  EF6A  F031         	goto	l2846
  3294  0062C8                     u1610:
  3295  0062C8  6C03               	negf	___awdiv@divisor^0,c
  3296  0062CA  1E04               	comf	(___awdiv@divisor+1)^0,f,c
  3297  0062CC  B0D8               	btfsc	status,0,c
  3298  0062CE  2A04               	incf	(___awdiv@divisor+1)^0,f,c
  3299  0062D0  0E01               	movlw	1
  3300  0062D2  6E06               	movwf	___awdiv@sign^0,c
  3301  0062D4                     l2846:
  3302  0062D4  BE02               	btfsc	(___awdiv@dividend+1)^0,7,c
  3303  0062D6  EF71  F031         	goto	u1620
  3304  0062DA  EF6F  F031         	goto	u1621
  3305  0062DE                     u1621:
  3306  0062DE  EF77  F031         	goto	l2852
  3307  0062E2                     u1620:
  3308  0062E2  6C01               	negf	___awdiv@dividend^0,c
  3309  0062E4  1E02               	comf	(___awdiv@dividend+1)^0,f,c
  3310  0062E6  B0D8               	btfsc	status,0,c
  3311  0062E8  2A02               	incf	(___awdiv@dividend+1)^0,f,c
  3312  0062EA  0E01               	movlw	1
  3313  0062EC  1A06               	xorwf	___awdiv@sign^0,f,c
  3314  0062EE                     l2852:
  3315  0062EE  0E00               	movlw	0
  3316  0062F0  6E08               	movwf	(___awdiv@quotient+1)^0,c
  3317  0062F2  0E00               	movlw	0
  3318  0062F4  6E07               	movwf	___awdiv@quotient^0,c
  3319  0062F6  5003               	movf	___awdiv@divisor^0,w,c
  3320  0062F8  1004               	iorwf	(___awdiv@divisor+1)^0,w,c
  3321  0062FA  B4D8               	btfsc	status,2,c
  3322  0062FC  EF82  F031         	goto	u1631
  3323  006300  EF84  F031         	goto	u1630
  3324  006304                     u1631:
  3325  006304  EFAC  F031         	goto	l2874
  3326  006308                     u1630:
  3327  006308  0E01               	movlw	1
  3328  00630A  6E05               	movwf	___awdiv@counter^0,c
  3329  00630C  EF8C  F031         	goto	l2860
  3330  006310                     l2858:
  3331  006310  90D8               	bcf	status,0,c
  3332  006312  3603               	rlcf	___awdiv@divisor^0,f,c
  3333  006314  3604               	rlcf	(___awdiv@divisor+1)^0,f,c
  3334  006316  2A05               	incf	___awdiv@counter^0,f,c
  3335  006318                     l2860:
  3336  006318  AE04               	btfss	(___awdiv@divisor+1)^0,7,c
  3337  00631A  EF91  F031         	goto	u1641
  3338  00631E  EF93  F031         	goto	u1640
  3339  006322                     u1641:
  3340  006322  EF88  F031         	goto	l2858
  3341  006326                     u1640:
  3342  006326                     l2862:
  3343  006326  90D8               	bcf	status,0,c
  3344  006328  3607               	rlcf	___awdiv@quotient^0,f,c
  3345  00632A  3608               	rlcf	(___awdiv@quotient+1)^0,f,c
  3346  00632C  5003               	movf	___awdiv@divisor^0,w,c
  3347  00632E  5C01               	subwf	___awdiv@dividend^0,w,c
  3348  006330  5004               	movf	(___awdiv@divisor+1)^0,w,c
  3349  006332  5802               	subwfb	(___awdiv@dividend+1)^0,w,c
  3350  006334  A0D8               	btfss	status,0,c
  3351  006336  EF9F  F031         	goto	u1651
  3352  00633A  EFA1  F031         	goto	u1650
  3353  00633E                     u1651:
  3354  00633E  EFA6  F031         	goto	l2870
  3355  006342                     u1650:
  3356  006342  5003               	movf	___awdiv@divisor^0,w,c
  3357  006344  5E01               	subwf	___awdiv@dividend^0,f,c
  3358  006346  5004               	movf	(___awdiv@divisor+1)^0,w,c
  3359  006348  5A02               	subwfb	(___awdiv@dividend+1)^0,f,c
  3360  00634A  8007               	bsf	___awdiv@quotient^0,0,c
  3361  00634C                     l2870:
  3362  00634C  90D8               	bcf	status,0,c
  3363  00634E  3204               	rrcf	(___awdiv@divisor+1)^0,f,c
  3364  006350  3203               	rrcf	___awdiv@divisor^0,f,c
  3365  006352  2E05               	decfsz	___awdiv@counter^0,f,c
  3366  006354  EF93  F031         	goto	l2862
  3367  006358                     l2874:
  3368  006358  5006               	movf	___awdiv@sign^0,w,c
  3369  00635A  B4D8               	btfsc	status,2,c
  3370  00635C  EFB2  F031         	goto	u1661
  3371  006360  EFB4  F031         	goto	u1660
  3372  006364                     u1661:
  3373  006364  EFB8  F031         	goto	l2878
  3374  006368                     u1660:
  3375  006368  6C07               	negf	___awdiv@quotient^0,c
  3376  00636A  1E08               	comf	(___awdiv@quotient+1)^0,f,c
  3377  00636C  B0D8               	btfsc	status,0,c
  3378  00636E  2A08               	incf	(___awdiv@quotient+1)^0,f,c
  3379  006370                     l2878:
  3380  006370  C007  F001         	movff	___awdiv@quotient,?___awdiv
  3381  006374  C008  F002         	movff	___awdiv@quotient+1,?___awdiv+1
  3382  006378  0012               	return		;funcret
  3383  00637A                     __end_of___awdiv:
  3384                           	callstack 0
  3385                           
  3386 ;; *************** function _oled_init *****************
  3387 ;; Defined at:
  3388 ;;		line 366 in file "SSD1306oLED.c"
  3389 ;; Parameters:    Size  Location     Type
  3390 ;;		None
  3391 ;; Auto vars:     Size  Location     Type
  3392 ;;		None
  3393 ;; Return value:  Size  Location     Type
  3394 ;;                  1    wreg      void 
  3395 ;; Registers used:
  3396 ;;		wreg, status,2, status,0, tblptrl, tblptrh, tblptru, prodl, prodh, cstack
  3397 ;; Tracked objects:
  3398 ;;		On entry : 0/0
  3399 ;;		On exit  : 0/0
  3400 ;;		Unchanged: 0/0
  3401 ;; Data sizes:     COMRAM   BANK0   BANK1   BANK2   BANK3   BANK4   BANK5   BANK6   BANK7
  3402 ;;      Params:         0       0       0       0       0       0       0       0       0
  3403 ;;      Locals:         0       0       0       0       0       0       0       0       0
  3404 ;;      Temps:          0       0       0       0       0       0       0       0       0
  3405 ;;      Totals:         0       0       0       0       0       0       0       0       0
  3406 ;;Total ram usage:        0 bytes
  3407 ;; Hardware stack levels used: 1
  3408 ;; Hardware stack levels required when called: 5
  3409 ;; This function calls:
  3410 ;;		_oled_clear
  3411 ;;		_oled_devInit
  3412 ;;		_oled_setDisplay
  3413 ;;		_oled_setFont
  3414 ;; This function is called by:
  3415 ;;		_main
  3416 ;; This function uses a non-reentrant model
  3417 ;;
  3418                           
  3419                           	psect	text4
  3420  005CE0                     __ptext4:
  3421                           	callstack 0
  3422  005CE0                     _oled_init:
  3423                           	callstack 25
  3424  005CE0                     
  3425                           ;SSD1306oLED.c: 369:     TRISEbits.TRISE2 = 0;
  3426  005CE0  9496               	bcf	150,2,c	;volatile
  3427                           
  3428                           ;SSD1306oLED.c: 370:     LATEbits.LATE2 = 1;
  3429  005CE2  848D               	bsf	141,2,c	;volatile
  3430                           
  3431                           ;SSD1306oLED.c: 371:     TRISBbits.TRISB2 = 0;
  3432  005CE4  9493               	bcf	147,2,c	;volatile
  3433                           
  3434                           ;SSD1306oLED.c: 372:     TRISBbits.TRISB3 = 0;
  3435  005CE6  9693               	bcf	147,3,c	;volatile
  3436                           
  3437                           ;SSD1306oLED.c: 373:     TRISBbits.TRISB4 = 0;
  3438  005CE8  9893               	bcf	147,4,c	;volatile
  3439                           
  3440                           ;SSD1306oLED.c: 374:     TRISCbits.TRISC0 = 0;
  3441  005CEA  9094               	bcf	148,0,c	;volatile
  3442                           
  3443                           ;SSD1306oLED.c: 375:     TRISCbits.TRISC1 = 0;
  3444  005CEC  9294               	bcf	148,1,c	;volatile
  3445                           
  3446                           ;SSD1306oLED.c: 377:     LATBbits.LATB3 = 1;
  3447  005CEE  868A               	bsf	138,3,c	;volatile
  3448                           
  3449                           ;SSD1306oLED.c: 379:     LATBbits.LATB4 = 0;
  3450  005CF0  988A               	bcf	138,4,c	;volatile
  3451  005CF2                     
  3452                           ;SSD1306oLED.c: 381:     oled_devInit();
  3453  005CF2  EC01  F030         	call	_oled_devInit	;wreg free
  3454  005CF6                     
  3455                           ;SSD1306oLED.c: 383:     oled_setDisplay(Inverse);
  3456  005CF6  0E01               	movlw	1
  3457  005CF8  EC87  F02E         	call	_oled_setDisplay
  3458  005CFC                     
  3459                           ;SSD1306oLED.c: 384:     oled_setFont(OledFont0);
  3460  005CFC  0EE9               	movlw	low _OledFont0
  3461  005CFE  6E01               	movwf	oled_setFont@font^0,c
  3462  005D00  0E79               	movlw	high _OledFont0
  3463  005D02  6E02               	movwf	(oled_setFont@font+1)^0,c
  3464  005D04  EC29  F02E         	call	_oled_setFont	;wreg free
  3465  005D08                     
  3466                           ;SSD1306oLED.c: 385:     oled_clear();
  3467  005D08  EC1C  F02E         	call	_oled_clear	;wreg free
  3468  005D0C  0012               	return		;funcret
  3469  005D0E                     __end_of_oled_init:
  3470                           	callstack 0
  3471                           
  3472 ;; *************** function _oled_setFont *****************
  3473 ;; Defined at:
  3474 ;;		line 256 in file "SSD1306oLED.c"
  3475 ;; Parameters:    Size  Location     Type
  3476 ;;  font            2    0[COMRAM] PTR const unsigned char 
  3477 ;;		 -> OledFont0(768), 
  3478 ;; Auto vars:     Size  Location     Type
  3479 ;;		None
  3480 ;; Return value:  Size  Location     Type
  3481 ;;                  1    wreg      void 
  3482 ;; Registers used:
  3483 ;;		wreg, status,2, status,0
  3484 ;; Tracked objects:
  3485 ;;		On entry : 0/0
  3486 ;;		On exit  : 0/0
  3487 ;;		Unchanged: 0/0
  3488 ;; Data sizes:     COMRAM   BANK0   BANK1   BANK2   BANK3   BANK4   BANK5   BANK6   BANK7
  3489 ;;      Params:         2       0       0       0       0       0       0       0       0
  3490 ;;      Locals:         0       0       0       0       0       0       0       0       0
  3491 ;;      Temps:          0       0       0       0       0       0       0       0       0
  3492 ;;      Totals:         2       0       0       0       0       0       0       0       0
  3493 ;;Total ram usage:        2 bytes
  3494 ;; Hardware stack levels used: 1
  3495 ;; This function calls:
  3496 ;;		Nothing
  3497 ;; This function is called by:
  3498 ;;		_oled_init
  3499 ;; This function uses a non-reentrant model
  3500 ;;
  3501                           
  3502                           	psect	text5
  3503  005C52                     __ptext5:
  3504                           	callstack 0
  3505  005C52                     _oled_setFont:
  3506                           	callstack 29
  3507  005C52                     
  3508                           ;SSD1306oLED.c: 256: void oled_setFont(const uint8_t *font);SSD1306oLED.c: 257: {;SSD130
      +                          6oLED.c: 258:     if(font!=0)
  3509  005C52  5001               	movf	oled_setFont@font^0,w,c
  3510  005C54  1002               	iorwf	(oled_setFont@font+1)^0,w,c
  3511  005C56  B4D8               	btfsc	status,2,c
  3512  005C58  EF30  F02E         	goto	u1591
  3513  005C5C  EF32  F02E         	goto	u1590
  3514  005C60                     u1591:
  3515  005C60  EF36  F02E         	goto	l307
  3516  005C64                     u1590:
  3517  005C64                     
  3518                           ;SSD1306oLED.c: 259:     {;SSD1306oLED.c: 260:         selectedFont=font;
  3519  005C64  C001  F0CF         	movff	oled_setFont@font,_selectedFont
  3520  005C68  C002  F0D0         	movff	oled_setFont@font+1,_selectedFont+1
  3521  005C6C                     l307:
  3522  005C6C  0012               	return		;funcret
  3523  005C6E                     __end_of_oled_setFont:
  3524                           	callstack 0
  3525                           
  3526 ;; *************** function _oled_setDisplay *****************
  3527 ;; Defined at:
  3528 ;;		line 411 in file "SSD1306oLED.c"
  3529 ;; Parameters:    Size  Location     Type
  3530 ;;  displayType     1    wreg     enum E4838
  3531 ;; Auto vars:     Size  Location     Type
  3532 ;;  displayType     1    1[COMRAM] enum E4838
  3533 ;; Return value:  Size  Location     Type
  3534 ;;                  1    wreg      void 
  3535 ;; Registers used:
  3536 ;;		wreg, status,2, cstack
  3537 ;; Tracked objects:
  3538 ;;		On entry : 0/0
  3539 ;;		On exit  : 0/0
  3540 ;;		Unchanged: 0/0
  3541 ;; Data sizes:     COMRAM   BANK0   BANK1   BANK2   BANK3   BANK4   BANK5   BANK6   BANK7
  3542 ;;      Params:         0       0       0       0       0       0       0       0       0
  3543 ;;      Locals:         1       0       0       0       0       0       0       0       0
  3544 ;;      Temps:          0       0       0       0       0       0       0       0       0
  3545 ;;      Totals:         1       0       0       0       0       0       0       0       0
  3546 ;;Total ram usage:        1 bytes
  3547 ;; Hardware stack levels used: 1
  3548 ;; Hardware stack levels required when called: 1
  3549 ;; This function calls:
  3550 ;;		_oled_writeCommand
  3551 ;; This function is called by:
  3552 ;;		_oled_init
  3553 ;; This function uses a non-reentrant model
  3554 ;;
  3555                           
  3556                           	psect	text6
  3557  005D0E                     __ptext6:
  3558                           	callstack 0
  3559  005D0E                     _oled_setDisplay:
  3560                           	callstack 28
  3561                           
  3562                           ;incstack = 0
  3563                           ;oled_setDisplay@displayType stored from wreg
  3564  005D0E  6E02               	movwf	oled_setDisplay@displayType^0,c
  3565  005D10                     
  3566                           ;SSD1306oLED.c: 411: void oled_setDisplay (oLED_DisplayMode_t displayType);SSD1306oLED.c
      +                          : 412: {;SSD1306oLED.c: 413:     if (displayType == Normal)
  3567  005D10  5002               	movf	oled_setDisplay@displayType^0,w,c
  3568  005D12  A4D8               	btfss	status,2,c
  3569  005D14  EF8E  F02E         	goto	u1601
  3570  005D18  EF90  F02E         	goto	u1600
  3571  005D1C                     u1601:
  3572  005D1C  EF98  F02E         	goto	l2836
  3573  005D20                     u1600:
  3574  005D20                     
  3575                           ;SSD1306oLED.c: 414:     {;SSD1306oLED.c: 415:         oled_writeCommand(0xa0);
  3576  005D20  0EA0               	movlw	160
  3577  005D22  ECF2  F02D         	call	_oled_writeCommand
  3578                           
  3579                           ;SSD1306oLED.c: 416:         oled_writeCommand(0xc8);
  3580  005D26  0EC8               	movlw	200
  3581  005D28  ECF2  F02D         	call	_oled_writeCommand
  3582                           
  3583                           ;SSD1306oLED.c: 417:     }
  3584  005D2C  EF9E  F02E         	goto	l349
  3585  005D30                     l2836:
  3586                           
  3587                           ;SSD1306oLED.c: 419:     {;SSD1306oLED.c: 420:         oled_writeCommand(0xa1);
  3588  005D30  0EA1               	movlw	161
  3589  005D32  ECF2  F02D         	call	_oled_writeCommand
  3590                           
  3591                           ;SSD1306oLED.c: 421:         oled_writeCommand(0xc0);
  3592  005D36  0EC0               	movlw	192
  3593  005D38  ECF2  F02D         	call	_oled_writeCommand
  3594  005D3C                     l349:
  3595  005D3C  0012               	return		;funcret
  3596  005D3E                     __end_of_oled_setDisplay:
  3597                           	callstack 0
  3598                           
  3599 ;; *************** function _oled_devInit *****************
  3600 ;; Defined at:
  3601 ;;		line 388 in file "SSD1306oLED.c"
  3602 ;; Parameters:    Size  Location     Type
  3603 ;;		None
  3604 ;; Auto vars:     Size  Location     Type
  3605 ;;		None
  3606 ;; Return value:  Size  Location     Type
  3607 ;;                  1    wreg      void 
  3608 ;; Registers used:
  3609 ;;		wreg, status,2, status,0, cstack
  3610 ;; Tracked objects:
  3611 ;;		On entry : 0/0
  3612 ;;		On exit  : 0/0
  3613 ;;		Unchanged: 0/0
  3614 ;; Data sizes:     COMRAM   BANK0   BANK1   BANK2   BANK3   BANK4   BANK5   BANK6   BANK7
  3615 ;;      Params:         0       0       0       0       0       0       0       0       0
  3616 ;;      Locals:         0       0       0       0       0       0       0       0       0
  3617 ;;      Temps:          1       0       0       0       0       0       0       0       0
  3618 ;;      Totals:         1       0       0       0       0       0       0       0       0
  3619 ;;Total ram usage:        1 bytes
  3620 ;; Hardware stack levels used: 1
  3621 ;; Hardware stack levels required when called: 2
  3622 ;; This function calls:
  3623 ;;		_oled_initialDispayLine
  3624 ;;		_oled_powerControl
  3625 ;;		_oled_regulorResistorSelect
  3626 ;;		_oled_setContrastControlRegister
  3627 ;;		_oled_writeCommand
  3628 ;; This function is called by:
  3629 ;;		_oled_init
  3630 ;; This function uses a non-reentrant model
  3631 ;;
  3632                           
  3633                           	psect	text7
  3634  006002                     __ptext7:
  3635                           	callstack 0
  3636  006002                     _oled_devInit:
  3637                           	callstack 27
  3638  006002                     
  3639                           ;SSD1306oLED.c: 390:     oled_writeCommand(0xe2);
  3640  006002  0EE2               	movlw	226
  3641  006004  ECF2  F02D         	call	_oled_writeCommand
  3642  006008                     
  3643                           ;SSD1306oLED.c: 391:     LATBbits.LATB2=1;
  3644  006008  848A               	bsf	138,2,c	;volatile
  3645  00600A                     
  3646                           ;SSD1306oLED.c: 392:     _delay((unsigned long)((200)*(48000000/4000000.0)));
  3647  00600A  0E04               	movlw	4
  3648  00600C  6E03               	movwf	??_oled_devInit^0,c
  3649  00600E  0E1C               	movlw	28
  3650  006010                     u1877:
  3651  006010  2EE8               	decfsz	wreg,f,c
  3652  006012  D7FE               	bra	u1877
  3653  006014  2E03               	decfsz	??_oled_devInit^0,f,c
  3654  006016  D7FC               	bra	u1877
  3655  006018  D000               	nop2	
  3656  00601A                     
  3657                           ;SSD1306oLED.c: 393:     LATBbits.LATB2=0;
  3658  00601A  948A               	bcf	138,2,c	;volatile
  3659  00601C                     
  3660                           ;SSD1306oLED.c: 394:     _delay((unsigned long)((2000)*(48000000/4000000.0)));
  3661  00601C  0E20               	movlw	32
  3662  00601E  6E03               	movwf	??_oled_devInit^0,c
  3663  006020  0E2A               	movlw	42
  3664  006022                     u1887:
  3665  006022  2EE8               	decfsz	wreg,f,c
  3666  006024  D7FE               	bra	u1887
  3667  006026  2E03               	decfsz	??_oled_devInit^0,f,c
  3668  006028  D7FC               	bra	u1887
  3669  00602A                     
  3670                           ;SSD1306oLED.c: 395:     LATBbits.LATB2=1;
  3671  00602A  848A               	bsf	138,2,c	;volatile
  3672  00602C                     
  3673                           ;SSD1306oLED.c: 396:     _delay((unsigned long)((1000)*(48000000/4000000.0)));
  3674  00602C  0E10               	movlw	16
  3675  00602E  6E03               	movwf	??_oled_devInit^0,c
  3676  006030  0E94               	movlw	148
  3677  006032                     u1897:
  3678  006032  2EE8               	decfsz	wreg,f,c
  3679  006034  D7FE               	bra	u1897
  3680  006036  2E03               	decfsz	??_oled_devInit^0,f,c
  3681  006038  D7FC               	bra	u1897
  3682  00603A  D000               	nop2	
  3683  00603C                     
  3684                           ;SSD1306oLED.c: 398:     oled_writeCommand(0xa1);
  3685  00603C  0EA1               	movlw	161
  3686  00603E  ECF2  F02D         	call	_oled_writeCommand
  3687  006042                     
  3688                           ;SSD1306oLED.c: 399:     oled_writeCommand(0xc0);
  3689  006042  0EC0               	movlw	192
  3690  006044  ECF2  F02D         	call	_oled_writeCommand
  3691  006048                     
  3692                           ;SSD1306oLED.c: 400:     oled_writeCommand(0xa3);
  3693  006048  0EA3               	movlw	163
  3694  00604A  ECF2  F02D         	call	_oled_writeCommand
  3695  00604E                     
  3696                           ;SSD1306oLED.c: 401:     oled_powerControl(0x07);
  3697  00604E  0E07               	movlw	7
  3698  006050  ECC8  F02D         	call	_oled_powerControl
  3699  006054                     
  3700                           ;SSD1306oLED.c: 402:     oled_regulorResistorSelect(0x05);
  3701  006054  0E05               	movlw	5
  3702  006056  ECCE  F02D         	call	_oled_regulorResistorSelect
  3703  00605A                     
  3704                           ;SSD1306oLED.c: 403:     oled_setContrastControlRegister(Contrast_level);
  3705  00605A  0E13               	movlw	19
  3706  00605C  ECEA  F02D         	call	_oled_setContrastControlRegister
  3707  006060                     
  3708                           ;SSD1306oLED.c: 404:     oled_initialDispayLine(0x00);
  3709  006060  0E00               	movlw	0
  3710  006062  ECC2  F02D         	call	_oled_initialDispayLine
  3711  006066                     
  3712                           ;SSD1306oLED.c: 405:     oled_writeCommand(0xF8);
  3713  006066  0EF8               	movlw	248
  3714  006068  ECF2  F02D         	call	_oled_writeCommand
  3715  00606C                     
  3716                           ;SSD1306oLED.c: 406:     oled_writeCommand(0x00);
  3717  00606C  0E00               	movlw	0
  3718  00606E  ECF2  F02D         	call	_oled_writeCommand
  3719  006072                     
  3720                           ;SSD1306oLED.c: 407:     oled_writeCommand(0xaf);
  3721  006072  0EAF               	movlw	175
  3722  006074  ECF2  F02D         	call	_oled_writeCommand
  3723  006078  0012               	return		;funcret
  3724  00607A                     __end_of_oled_devInit:
  3725                           	callstack 0
  3726                           
  3727 ;; *************** function _oled_setContrastControlRegister *****************
  3728 ;; Defined at:
  3729 ;;		line 454 in file "SSD1306oLED.c"
  3730 ;; Parameters:    Size  Location     Type
  3731 ;;  mod             1    wreg     unsigned char 
  3732 ;; Auto vars:     Size  Location     Type
  3733 ;;  mod             1    1[COMRAM] unsigned char 
  3734 ;; Return value:  Size  Location     Type
  3735 ;;                  1    wreg      void 
  3736 ;; Registers used:
  3737 ;;		wreg, status,2, cstack
  3738 ;; Tracked objects:
  3739 ;;		On entry : 0/0
  3740 ;;		On exit  : 0/0
  3741 ;;		Unchanged: 0/0
  3742 ;; Data sizes:     COMRAM   BANK0   BANK1   BANK2   BANK3   BANK4   BANK5   BANK6   BANK7
  3743 ;;      Params:         0       0       0       0       0       0       0       0       0
  3744 ;;      Locals:         1       0       0       0       0       0       0       0       0
  3745 ;;      Temps:          0       0       0       0       0       0       0       0       0
  3746 ;;      Totals:         1       0       0       0       0       0       0       0       0
  3747 ;;Total ram usage:        1 bytes
  3748 ;; Hardware stack levels used: 1
  3749 ;; Hardware stack levels required when called: 1
  3750 ;; This function calls:
  3751 ;;		_oled_writeCommand
  3752 ;; This function is called by:
  3753 ;;		_oled_devInit
  3754 ;; This function uses a non-reentrant model
  3755 ;;
  3756                           
  3757                           	psect	text8
  3758  005BD4                     __ptext8:
  3759                           	callstack 0
  3760  005BD4                     _oled_setContrastControlRegister:
  3761                           	callstack 27
  3762                           
  3763                           ;incstack = 0
  3764                           ;oled_setContrastControlRegister@mod stored from wreg
  3765  005BD4  6E02               	movwf	oled_setContrastControlRegister@mod^0,c
  3766  005BD6                     
  3767                           ;SSD1306oLED.c: 454: void oled_setContrastControlRegister(uint8_t mod);SSD1306oLED.c: 45
      +                          5: {;SSD1306oLED.c: 456:     oled_writeCommand(0x81);
  3768  005BD6  0E81               	movlw	129
  3769  005BD8  ECF2  F02D         	call	_oled_writeCommand
  3770  005BDC                     
  3771                           ;SSD1306oLED.c: 457:     oled_writeCommand(mod);
  3772  005BDC  5002               	movf	oled_setContrastControlRegister@mod^0,w,c
  3773  005BDE  ECF2  F02D         	call	_oled_writeCommand
  3774  005BE2  0012               	return		;funcret
  3775  005BE4                     __end_of_oled_setContrastControlRegister:
  3776                           	callstack 0
  3777                           
  3778 ;; *************** function _oled_regulorResistorSelect *****************
  3779 ;; Defined at:
  3780 ;;		line 482 in file "SSD1306oLED.c"
  3781 ;; Parameters:    Size  Location     Type
  3782 ;;  r               1    wreg     unsigned char 
  3783 ;; Auto vars:     Size  Location     Type
  3784 ;;  r               1    1[COMRAM] unsigned char 
  3785 ;; Return value:  Size  Location     Type
  3786 ;;                  1    wreg      void 
  3787 ;; Registers used:
  3788 ;;		wreg, status,2, status,0, cstack
  3789 ;; Tracked objects:
  3790 ;;		On entry : 0/0
  3791 ;;		On exit  : 0/0
  3792 ;;		Unchanged: 0/0
  3793 ;; Data sizes:     COMRAM   BANK0   BANK1   BANK2   BANK3   BANK4   BANK5   BANK6   BANK7
  3794 ;;      Params:         0       0       0       0       0       0       0       0       0
  3795 ;;      Locals:         1       0       0       0       0       0       0       0       0
  3796 ;;      Temps:          0       0       0       0       0       0       0       0       0
  3797 ;;      Totals:         1       0       0       0       0       0       0       0       0
  3798 ;;Total ram usage:        1 bytes
  3799 ;; Hardware stack levels used: 1
  3800 ;; Hardware stack levels required when called: 1
  3801 ;; This function calls:
  3802 ;;		_oled_writeCommand
  3803 ;; This function is called by:
  3804 ;;		_oled_devInit
  3805 ;; This function uses a non-reentrant model
  3806 ;;
  3807                           
  3808                           	psect	text9
  3809  005B9C                     __ptext9:
  3810                           	callstack 0
  3811  005B9C                     _oled_regulorResistorSelect:
  3812                           	callstack 27
  3813                           
  3814                           ;incstack = 0
  3815                           ;oled_regulorResistorSelect@r stored from wreg
  3816  005B9C  6E02               	movwf	oled_regulorResistorSelect@r^0,c
  3817  005B9E                     
  3818                           ;SSD1306oLED.c: 482: void oled_regulorResistorSelect(uint8_t r);SSD1306oLED.c: 483: {;SS
      +                          D1306oLED.c: 484:     oled_writeCommand((0x20|r));
  3819  005B9E  5002               	movf	oled_regulorResistorSelect@r^0,w,c
  3820  005BA0  0920               	iorlw	32
  3821  005BA2  ECF2  F02D         	call	_oled_writeCommand
  3822  005BA6  0012               	return		;funcret
  3823  005BA8                     __end_of_oled_regulorResistorSelect:
  3824                           	callstack 0
  3825                           
  3826 ;; *************** function _oled_powerControl *****************
  3827 ;; Defined at:
  3828 ;;		line 469 in file "SSD1306oLED.c"
  3829 ;; Parameters:    Size  Location     Type
  3830 ;;  vol             1    wreg     unsigned char 
  3831 ;; Auto vars:     Size  Location     Type
  3832 ;;  vol             1    1[COMRAM] unsigned char 
  3833 ;; Return value:  Size  Location     Type
  3834 ;;                  1    wreg      void 
  3835 ;; Registers used:
  3836 ;;		wreg, status,2, status,0, cstack
  3837 ;; Tracked objects:
  3838 ;;		On entry : 0/0
  3839 ;;		On exit  : 0/0
  3840 ;;		Unchanged: 0/0
  3841 ;; Data sizes:     COMRAM   BANK0   BANK1   BANK2   BANK3   BANK4   BANK5   BANK6   BANK7
  3842 ;;      Params:         0       0       0       0       0       0       0       0       0
  3843 ;;      Locals:         1       0       0       0       0       0       0       0       0
  3844 ;;      Temps:          0       0       0       0       0       0       0       0       0
  3845 ;;      Totals:         1       0       0       0       0       0       0       0       0
  3846 ;;Total ram usage:        1 bytes
  3847 ;; Hardware stack levels used: 1
  3848 ;; Hardware stack levels required when called: 1
  3849 ;; This function calls:
  3850 ;;		_oled_writeCommand
  3851 ;; This function is called by:
  3852 ;;		_oled_devInit
  3853 ;; This function uses a non-reentrant model
  3854 ;;
  3855                           
  3856                           	psect	text10
  3857  005B90                     __ptext10:
  3858                           	callstack 0
  3859  005B90                     _oled_powerControl:
  3860                           	callstack 27
  3861                           
  3862                           ;incstack = 0
  3863                           ;oled_powerControl@vol stored from wreg
  3864  005B90  6E02               	movwf	oled_powerControl@vol^0,c
  3865  005B92                     
  3866                           ;SSD1306oLED.c: 469: void oled_powerControl(uint8_t vol);SSD1306oLED.c: 470: {;SSD1306oL
      +                          ED.c: 471:     oled_writeCommand((0x28|vol));
  3867  005B92  5002               	movf	oled_powerControl@vol^0,w,c
  3868  005B94  0928               	iorlw	40
  3869  005B96  ECF2  F02D         	call	_oled_writeCommand
  3870  005B9A  0012               	return		;funcret
  3871  005B9C                     __end_of_oled_powerControl:
  3872                           	callstack 0
  3873                           
  3874 ;; *************** function _oled_initialDispayLine *****************
  3875 ;; Defined at:
  3876 ;;		line 462 in file "SSD1306oLED.c"
  3877 ;; Parameters:    Size  Location     Type
  3878 ;;  line            1    wreg     unsigned char 
  3879 ;; Auto vars:     Size  Location     Type
  3880 ;;  line            1    1[COMRAM] unsigned char 
  3881 ;; Return value:  Size  Location     Type
  3882 ;;                  1    wreg      void 
  3883 ;; Registers used:
  3884 ;;		wreg, status,2, status,0, cstack
  3885 ;; Tracked objects:
  3886 ;;		On entry : 0/0
  3887 ;;		On exit  : 0/0
  3888 ;;		Unchanged: 0/0
  3889 ;; Data sizes:     COMRAM   BANK0   BANK1   BANK2   BANK3   BANK4   BANK5   BANK6   BANK7
  3890 ;;      Params:         0       0       0       0       0       0       0       0       0
  3891 ;;      Locals:         1       0       0       0       0       0       0       0       0
  3892 ;;      Temps:          0       0       0       0       0       0       0       0       0
  3893 ;;      Totals:         1       0       0       0       0       0       0       0       0
  3894 ;;Total ram usage:        1 bytes
  3895 ;; Hardware stack levels used: 1
  3896 ;; Hardware stack levels required when called: 1
  3897 ;; This function calls:
  3898 ;;		_oled_writeCommand
  3899 ;; This function is called by:
  3900 ;;		_oled_devInit
  3901 ;; This function uses a non-reentrant model
  3902 ;;
  3903                           
  3904                           	psect	text11
  3905  005B84                     __ptext11:
  3906                           	callstack 0
  3907  005B84                     _oled_initialDispayLine:
  3908                           	callstack 27
  3909                           
  3910                           ;incstack = 0
  3911                           ;oled_initialDispayLine@line stored from wreg
  3912  005B84  6E02               	movwf	oled_initialDispayLine@line^0,c
  3913  005B86                     
  3914                           ;SSD1306oLED.c: 462: void oled_initialDispayLine(uint8_t line);SSD1306oLED.c: 463: {;SSD
      +                          1306oLED.c: 464:     line|=0x40;
  3915  005B86  8C02               	bsf	oled_initialDispayLine@line^0,6,c
  3916  005B88                     
  3917                           ;SSD1306oLED.c: 465:     oled_writeCommand(line);
  3918  005B88  5002               	movf	oled_initialDispayLine@line^0,w,c
  3919  005B8A  ECF2  F02D         	call	_oled_writeCommand
  3920  005B8E  0012               	return		;funcret
  3921  005B90                     __end_of_oled_initialDispayLine:
  3922                           	callstack 0
  3923                           
  3924 ;; *************** function _init_port *****************
  3925 ;; Defined at:
  3926 ;;		line 12 in file "main.c"
  3927 ;; Parameters:    Size  Location     Type
  3928 ;;		None
  3929 ;; Auto vars:     Size  Location     Type
  3930 ;;		None
  3931 ;; Return value:  Size  Location     Type
  3932 ;;                  1    wreg      void 
  3933 ;; Registers used:
  3934 ;;		wreg, status,2
  3935 ;; Tracked objects:
  3936 ;;		On entry : 0/0
  3937 ;;		On exit  : 0/0
  3938 ;;		Unchanged: 0/0
  3939 ;; Data sizes:     COMRAM   BANK0   BANK1   BANK2   BANK3   BANK4   BANK5   BANK6   BANK7
  3940 ;;      Params:         0       0       0       0       0       0       0       0       0
  3941 ;;      Locals:         0       0       0       0       0       0       0       0       0
  3942 ;;      Temps:          0       0       0       0       0       0       0       0       0
  3943 ;;      Totals:         0       0       0       0       0       0       0       0       0
  3944 ;;Total ram usage:        0 bytes
  3945 ;; Hardware stack levels used: 1
  3946 ;; This function calls:
  3947 ;;		Nothing
  3948 ;; This function is called by:
  3949 ;;		_main
  3950 ;; This function uses a non-reentrant model
  3951 ;;
  3952                           
  3953                           	psect	text12
  3954  005BB6                     __ptext12:
  3955                           	callstack 0
  3956  005BB6                     _init_port:
  3957                           	callstack 30
  3958  005BB6                     
  3959                           ;main.c: 14:     TRISAbits.TRISA7 = 0;
  3960  005BB6  9E92               	bcf	146,7,c	;volatile
  3961                           
  3962                           ;main.c: 15:     LATAbits.LATA7 = 0;
  3963  005BB8  9E89               	bcf	137,7,c	;volatile
  3964                           
  3965                           ;main.c: 17:     TRISAbits.TRISA6 = 0;
  3966  005BBA  9C92               	bcf	146,6,c	;volatile
  3967                           
  3968                           ;main.c: 18:     LATAbits.LATA6 = 0;
  3969  005BBC  9C89               	bcf	137,6,c	;volatile
  3970  005BBE                     
  3971                           ;main.c: 20:     TRISD = 0b00000000;
  3972  005BBE  0E00               	movlw	0
  3973  005BC0  6E95               	movwf	149,c	;volatile
  3974  005BC2  0012               	return		;funcret
  3975  005BC4                     __end_of_init_port:
  3976                           	callstack 0
  3977                           
  3978 ;; *************** function _init_mod_LoRa *****************
  3979 ;; Defined at:
  3980 ;;		line 91 in file "main.c"
  3981 ;; Parameters:    Size  Location     Type
  3982 ;;		None
  3983 ;; Auto vars:     Size  Location     Type
  3984 ;;  READ           10   18[BANK0 ] unsigned char [10]
  3985 ;;  read           10    8[BANK0 ] unsigned char [10]
  3986 ;; Return value:  Size  Location     Type
  3987 ;;                  1    wreg      void 
  3988 ;; Registers used:
  3989 ;;		wreg, fsr0l, fsr0h, fsr1l, fsr1h, fsr2l, fsr2h, status,2, status,0, tblptrl, tblptrh, tblptru, prodl, prodh, cstack
  3990 ;; Tracked objects:
  3991 ;;		On entry : 0/0
  3992 ;;		On exit  : 0/0
  3993 ;;		Unchanged: 0/0
  3994 ;; Data sizes:     COMRAM   BANK0   BANK1   BANK2   BANK3   BANK4   BANK5   BANK6   BANK7
  3995 ;;      Params:         0       0       0       0       0       0       0       0       0
  3996 ;;      Locals:         0      20       0       0       0       0       0       0       0
  3997 ;;      Temps:          1       0       0       0       0       0       0       0       0
  3998 ;;      Totals:         1      20       0       0       0       0       0       0       0
  3999 ;;Total ram usage:       21 bytes
  4000 ;; Hardware stack levels used: 1
  4001 ;; Hardware stack levels required when called: 8
  4002 ;; This function calls:
  4003 ;;		_EUSART1_Read
  4004 ;;		_delayms
  4005 ;;		_get_Data
  4006 ;;		_oled_clear
  4007 ;;		_oled_clearRow
  4008 ;;		_oled_putString
  4009 ;;		_sendCommand
  4010 ;;		_sprintf
  4011 ;; This function is called by:
  4012 ;;		_main
  4013 ;; This function uses a non-reentrant model
  4014 ;;
  4015                           
  4016                           	psect	text13
  4017  0072C6                     __ptext13:
  4018                           	callstack 0
  4019  0072C6                     _init_mod_LoRa:
  4020                           	callstack 22
  4021  0072C6                     
  4022                           ;main.c: 93:     char READ[10];;main.c: 94:     delayms(200);
  4023  0072C6  0E00               	movlw	0
  4024  0072C8  6E02               	movwf	(delayms@length+1)^0,c
  4025  0072CA  0EC8               	movlw	200
  4026  0072CC  6E01               	movwf	delayms@length^0,c
  4027  0072CE  EC0A  F02F         	call	_delayms	;wreg free
  4028  0072D2                     
  4029                           ;main.c: 95:     oled_clear();
  4030  0072D2  EC1C  F02E         	call	_oled_clear	;wreg free
  4031  0072D6                     
  4032                           ;main.c: 96:     sprintf(READ,"%c",get_Data());
  4033  0072D6  0E72               	movlw	low init_mod_LoRa@READ
  4034  0072D8  6E59               	movwf	sprintf@s^0,c
  4035  0072DA  0E00               	movlw	high init_mod_LoRa@READ
  4036  0072DC  6E5A               	movwf	(sprintf@s+1)^0,c
  4037  0072DE  0EF9               	movlw	low STR_6
  4038  0072E0  6E5B               	movwf	sprintf@fmt^0,c
  4039  0072E2  0E7F               	movlw	high STR_6
  4040  0072E4  6E5C               	movwf	(sprintf@fmt+1)^0,c
  4041  0072E6  ECB9  F02E         	call	_get_Data	;wreg free
  4042  0072EA  C001  F05D         	movff	?_get_Data,?_sprintf+4
  4043  0072EE  C002  F05E         	movff	?_get_Data+1,?_sprintf+5
  4044  0072F2  ECA7  F02F         	call	_sprintf	;wreg free
  4045  0072F6                     
  4046                           ;main.c: 97:     oled_putString(READ,0,3);
  4047  0072F6  0E72               	movlw	low init_mod_LoRa@READ
  4048  0072F8  6E0D               	movwf	oled_putString@string^0,c
  4049  0072FA  0E00               	movlw	high init_mod_LoRa@READ
  4050  0072FC  6E0E               	movwf	(oled_putString@string+1)^0,c
  4051  0072FE  0E00               	movlw	0
  4052  007300  6E0F               	movwf	oled_putString@station_dot^0,c
  4053  007302  0E03               	movlw	3
  4054  007304  6E10               	movwf	oled_putString@start_page^0,c
  4055  007306  EC7B  F030         	call	_oled_putString	;wreg free
  4056  00730A                     
  4057                           ;main.c: 98:     delayms(100);
  4058  00730A  0E00               	movlw	0
  4059  00730C  6E02               	movwf	(delayms@length+1)^0,c
  4060  00730E  0E64               	movlw	100
  4061  007310  6E01               	movwf	delayms@length^0,c
  4062  007312  EC0A  F02F         	call	_delayms	;wreg free
  4063  007316                     
  4064                           ;main.c: 99:     sprintf(READ,"%c",get_Data());
  4065  007316  0E72               	movlw	low init_mod_LoRa@READ
  4066  007318  6E59               	movwf	sprintf@s^0,c
  4067  00731A  0E00               	movlw	high init_mod_LoRa@READ
  4068  00731C  6E5A               	movwf	(sprintf@s+1)^0,c
  4069  00731E  0EF9               	movlw	low STR_6
  4070  007320  6E5B               	movwf	sprintf@fmt^0,c
  4071  007322  0E7F               	movlw	high STR_6
  4072  007324  6E5C               	movwf	(sprintf@fmt+1)^0,c
  4073  007326  ECB9  F02E         	call	_get_Data	;wreg free
  4074  00732A  C001  F05D         	movff	?_get_Data,?_sprintf+4
  4075  00732E  C002  F05E         	movff	?_get_Data+1,?_sprintf+5
  4076  007332  ECA7  F02F         	call	_sprintf	;wreg free
  4077  007336                     
  4078                           ;main.c: 100:     oled_putString(READ,0,3);
  4079  007336  0E72               	movlw	low init_mod_LoRa@READ
  4080  007338  6E0D               	movwf	oled_putString@string^0,c
  4081  00733A  0E00               	movlw	high init_mod_LoRa@READ
  4082  00733C  6E0E               	movwf	(oled_putString@string+1)^0,c
  4083  00733E  0E00               	movlw	0
  4084  007340  6E0F               	movwf	oled_putString@station_dot^0,c
  4085  007342  0E03               	movlw	3
  4086  007344  6E10               	movwf	oled_putString@start_page^0,c
  4087  007346  EC7B  F030         	call	_oled_putString	;wreg free
  4088  00734A                     
  4089                           ;main.c: 101:     delayms(100);
  4090  00734A  0E00               	movlw	0
  4091  00734C  6E02               	movwf	(delayms@length+1)^0,c
  4092  00734E  0E64               	movlw	100
  4093  007350  6E01               	movwf	delayms@length^0,c
  4094  007352  EC0A  F02F         	call	_delayms	;wreg free
  4095  007356                     
  4096                           ;main.c: 103:     oled_putString("Config modulo RN",0,0);
  4097  007356  0E33               	movlw	low STR_8
  4098  007358  6E0D               	movwf	oled_putString@string^0,c
  4099  00735A  0E7E               	movlw	high STR_8
  4100  00735C  6E0E               	movwf	(oled_putString@string+1)^0,c
  4101  00735E  0E00               	movlw	0
  4102  007360  6E0F               	movwf	oled_putString@station_dot^0,c
  4103  007362  0E00               	movlw	0
  4104  007364  6E10               	movwf	oled_putString@start_page^0,c
  4105  007366  EC7B  F030         	call	_oled_putString	;wreg free
  4106  00736A                     
  4107                           ;main.c: 104:     oled_clearRow(1);
  4108  00736A  0E01               	movlw	1
  4109  00736C  EC47  F02E         	call	_oled_clearRow
  4110  007370                     
  4111                           ;main.c: 105:     oled_clearRow(2);
  4112  007370  0E02               	movlw	2
  4113  007372  EC47  F02E         	call	_oled_clearRow
  4114  007376                     
  4115                           ;main.c: 106:     oled_clearRow(3);
  4116  007376  0E03               	movlw	3
  4117  007378  EC47  F02E         	call	_oled_clearRow
  4118  00737C                     
  4119                           ;main.c: 107:     oled_putString("potencia",0,1);
  4120  00737C  0EC7               	movlw	low STR_9
  4121  00737E  6E0D               	movwf	oled_putString@string^0,c
  4122  007380  0E7F               	movlw	high STR_9
  4123  007382  6E0E               	movwf	(oled_putString@string+1)^0,c
  4124  007384  0E00               	movlw	0
  4125  007386  6E0F               	movwf	oled_putString@station_dot^0,c
  4126  007388  0E01               	movlw	1
  4127  00738A  6E10               	movwf	oled_putString@start_page^0,c
  4128  00738C  EC7B  F030         	call	_oled_putString	;wreg free
  4129  007390                     
  4130                           ;main.c: 108:     sendCommand("radio set pwr 3\r\n");
  4131  007390  0E21               	movlw	low STR_10
  4132  007392  6E02               	movwf	sendCommand@texto^0,c
  4133  007394  0E7E               	movlw	high STR_10
  4134  007396  6E03               	movwf	(sendCommand@texto+1)^0,c
  4135  007398  ECD4  F02E         	call	_sendCommand	;wreg free
  4136  00739C                     
  4137                           ;main.c: 109:     sprintf(read,"%d",EUSART1_Read());
  4138  00739C  0E68               	movlw	low init_mod_LoRa@read
  4139  00739E  6E59               	movwf	sprintf@s^0,c
  4140  0073A0  0E00               	movlw	high init_mod_LoRa@read
  4141  0073A2  6E5A               	movwf	(sprintf@s+1)^0,c
  4142  0073A4  0EFC               	movlw	low STR_11
  4143  0073A6  6E5B               	movwf	sprintf@fmt^0,c
  4144  0073A8  0E7F               	movlw	high STR_11
  4145  0073AA  6E5C               	movwf	(sprintf@fmt+1)^0,c
  4146  0073AC  EC5B  F02E         	call	_EUSART1_Read	;wreg free
  4147  0073B0  6E5F               	movwf	??_init_mod_LoRa^0,c
  4148  0073B2  505F               	movf	??_init_mod_LoRa^0,w,c
  4149  0073B4  6E5D               	movwf	(?_sprintf+4)^0,c
  4150  0073B6  6A5E               	clrf	(?_sprintf+5)^0,c
  4151  0073B8  ECA7  F02F         	call	_sprintf	;wreg free
  4152  0073BC                     
  4153                           ;main.c: 110:     sprintf(READ,"%c",get_Data());
  4154  0073BC  0E72               	movlw	low init_mod_LoRa@READ
  4155  0073BE  6E59               	movwf	sprintf@s^0,c
  4156  0073C0  0E00               	movlw	high init_mod_LoRa@READ
  4157  0073C2  6E5A               	movwf	(sprintf@s+1)^0,c
  4158  0073C4  0EF9               	movlw	low STR_6
  4159  0073C6  6E5B               	movwf	sprintf@fmt^0,c
  4160  0073C8  0E7F               	movlw	high STR_6
  4161  0073CA  6E5C               	movwf	(sprintf@fmt+1)^0,c
  4162  0073CC  ECB9  F02E         	call	_get_Data	;wreg free
  4163  0073D0  C001  F05D         	movff	?_get_Data,?_sprintf+4
  4164  0073D4  C002  F05E         	movff	?_get_Data+1,?_sprintf+5
  4165  0073D8  ECA7  F02F         	call	_sprintf	;wreg free
  4166  0073DC                     
  4167                           ;main.c: 111:     oled_putString(read,0,2);
  4168  0073DC  0E68               	movlw	low init_mod_LoRa@read
  4169  0073DE  6E0D               	movwf	oled_putString@string^0,c
  4170  0073E0  0E00               	movlw	high init_mod_LoRa@read
  4171  0073E2  6E0E               	movwf	(oled_putString@string+1)^0,c
  4172  0073E4  0E00               	movlw	0
  4173  0073E6  6E0F               	movwf	oled_putString@station_dot^0,c
  4174  0073E8  0E02               	movlw	2
  4175  0073EA  6E10               	movwf	oled_putString@start_page^0,c
  4176  0073EC  EC7B  F030         	call	_oled_putString	;wreg free
  4177  0073F0                     
  4178                           ;main.c: 112:     oled_putString(READ,0,3);
  4179  0073F0  0E72               	movlw	low init_mod_LoRa@READ
  4180  0073F2  6E0D               	movwf	oled_putString@string^0,c
  4181  0073F4  0E00               	movlw	high init_mod_LoRa@READ
  4182  0073F6  6E0E               	movwf	(oled_putString@string+1)^0,c
  4183  0073F8  0E00               	movlw	0
  4184  0073FA  6E0F               	movwf	oled_putString@station_dot^0,c
  4185  0073FC  0E03               	movlw	3
  4186  0073FE  6E10               	movwf	oled_putString@start_page^0,c
  4187  007400  EC7B  F030         	call	_oled_putString	;wreg free
  4188  007404                     
  4189                           ;main.c: 113:     delayms(500);
  4190  007404  0E01               	movlw	1
  4191  007406  6E02               	movwf	(delayms@length+1)^0,c
  4192  007408  0EF4               	movlw	244
  4193  00740A  6E01               	movwf	delayms@length^0,c
  4194  00740C  EC0A  F02F         	call	_delayms	;wreg free
  4195  007410                     
  4196                           ;main.c: 115:     oled_clearRow(1);
  4197  007410  0E01               	movlw	1
  4198  007412  EC47  F02E         	call	_oled_clearRow
  4199  007416                     
  4200                           ;main.c: 116:     oled_clearRow(2);
  4201  007416  0E02               	movlw	2
  4202  007418  EC47  F02E         	call	_oled_clearRow
  4203  00741C                     
  4204                           ;main.c: 117:     oled_clearRow(3);
  4205  00741C  0E03               	movlw	3
  4206  00741E  EC47  F02E         	call	_oled_clearRow
  4207  007422                     
  4208                           ;main.c: 118:     oled_putString("ancho de banda",0,1);
  4209  007422  0E64               	movlw	low STR_13
  4210  007424  6E0D               	movwf	oled_putString@string^0,c
  4211  007426  0E7E               	movlw	high STR_13
  4212  007428  6E0E               	movwf	(oled_putString@string+1)^0,c
  4213  00742A  0E00               	movlw	0
  4214  00742C  6E0F               	movwf	oled_putString@station_dot^0,c
  4215  00742E  0E01               	movlw	1
  4216  007430  6E10               	movwf	oled_putString@start_page^0,c
  4217  007432  EC7B  F030         	call	_oled_putString	;wreg free
  4218  007436                     
  4219                           ;main.c: 119:     sendCommand("radio set bw 250\r\n");
  4220  007436  0EE8               	movlw	low STR_14
  4221  007438  6E02               	movwf	sendCommand@texto^0,c
  4222  00743A  0E7D               	movlw	high STR_14
  4223  00743C  6E03               	movwf	(sendCommand@texto+1)^0,c
  4224  00743E  ECD4  F02E         	call	_sendCommand	;wreg free
  4225  007442                     
  4226                           ;main.c: 120:     sprintf(read,"%d",EUSART1_Read());
  4227  007442  0E68               	movlw	low init_mod_LoRa@read
  4228  007444  6E59               	movwf	sprintf@s^0,c
  4229  007446  0E00               	movlw	high init_mod_LoRa@read
  4230  007448  6E5A               	movwf	(sprintf@s+1)^0,c
  4231  00744A  0EFC               	movlw	low STR_11
  4232  00744C  6E5B               	movwf	sprintf@fmt^0,c
  4233  00744E  0E7F               	movlw	high STR_11
  4234  007450  6E5C               	movwf	(sprintf@fmt+1)^0,c
  4235  007452  EC5B  F02E         	call	_EUSART1_Read	;wreg free
  4236  007456  6E5F               	movwf	??_init_mod_LoRa^0,c
  4237  007458  505F               	movf	??_init_mod_LoRa^0,w,c
  4238  00745A  6E5D               	movwf	(?_sprintf+4)^0,c
  4239  00745C  6A5E               	clrf	(?_sprintf+5)^0,c
  4240  00745E  ECA7  F02F         	call	_sprintf	;wreg free
  4241  007462                     
  4242                           ;main.c: 121:     sprintf(READ,"%c",get_Data());
  4243  007462  0E72               	movlw	low init_mod_LoRa@READ
  4244  007464  6E59               	movwf	sprintf@s^0,c
  4245  007466  0E00               	movlw	high init_mod_LoRa@READ
  4246  007468  6E5A               	movwf	(sprintf@s+1)^0,c
  4247  00746A  0EF9               	movlw	low STR_6
  4248  00746C  6E5B               	movwf	sprintf@fmt^0,c
  4249  00746E  0E7F               	movlw	high STR_6
  4250  007470  6E5C               	movwf	(sprintf@fmt+1)^0,c
  4251  007472  ECB9  F02E         	call	_get_Data	;wreg free
  4252  007476  C001  F05D         	movff	?_get_Data,?_sprintf+4
  4253  00747A  C002  F05E         	movff	?_get_Data+1,?_sprintf+5
  4254  00747E  ECA7  F02F         	call	_sprintf	;wreg free
  4255  007482                     
  4256                           ;main.c: 122:     oled_putString(read,0,2);
  4257  007482  0E68               	movlw	low init_mod_LoRa@read
  4258  007484  6E0D               	movwf	oled_putString@string^0,c
  4259  007486  0E00               	movlw	high init_mod_LoRa@read
  4260  007488  6E0E               	movwf	(oled_putString@string+1)^0,c
  4261  00748A  0E00               	movlw	0
  4262  00748C  6E0F               	movwf	oled_putString@station_dot^0,c
  4263  00748E  0E02               	movlw	2
  4264  007490  6E10               	movwf	oled_putString@start_page^0,c
  4265  007492  EC7B  F030         	call	_oled_putString	;wreg free
  4266  007496                     
  4267                           ;main.c: 123:     oled_putString(READ,0,3);
  4268  007496  0E72               	movlw	low init_mod_LoRa@READ
  4269  007498  6E0D               	movwf	oled_putString@string^0,c
  4270  00749A  0E00               	movlw	high init_mod_LoRa@READ
  4271  00749C  6E0E               	movwf	(oled_putString@string+1)^0,c
  4272  00749E  0E00               	movlw	0
  4273  0074A0  6E0F               	movwf	oled_putString@station_dot^0,c
  4274  0074A2  0E03               	movlw	3
  4275  0074A4  6E10               	movwf	oled_putString@start_page^0,c
  4276  0074A6  EC7B  F030         	call	_oled_putString	;wreg free
  4277  0074AA                     
  4278                           ;main.c: 124:     delayms(500);
  4279  0074AA  0E01               	movlw	1
  4280  0074AC  6E02               	movwf	(delayms@length+1)^0,c
  4281  0074AE  0EF4               	movlw	244
  4282  0074B0  6E01               	movwf	delayms@length^0,c
  4283  0074B2  EC0A  F02F         	call	_delayms	;wreg free
  4284  0074B6                     
  4285                           ;main.c: 126:     oled_clearRow(1);
  4286  0074B6  0E01               	movlw	1
  4287  0074B8  EC47  F02E         	call	_oled_clearRow
  4288  0074BC                     
  4289                           ;main.c: 127:     oled_clearRow(2);
  4290  0074BC  0E02               	movlw	2
  4291  0074BE  EC47  F02E         	call	_oled_clearRow
  4292  0074C2                     
  4293                           ;main.c: 128:     oled_clearRow(3);
  4294  0074C2  0E03               	movlw	3
  4295  0074C4  EC47  F02E         	call	_oled_clearRow
  4296  0074C8                     
  4297                           ;main.c: 129:     oled_putString("frecuencia",0,1);
  4298  0074C8  0E94               	movlw	low STR_17
  4299  0074CA  6E0D               	movwf	oled_putString@string^0,c
  4300  0074CC  0E7F               	movlw	high STR_17
  4301  0074CE  6E0E               	movwf	(oled_putString@string+1)^0,c
  4302  0074D0  0E00               	movlw	0
  4303  0074D2  6E0F               	movwf	oled_putString@station_dot^0,c
  4304  0074D4  0E01               	movlw	1
  4305  0074D6  6E10               	movwf	oled_putString@start_page^0,c
  4306  0074D8  EC7B  F030         	call	_oled_putString	;wreg free
  4307  0074DC                     
  4308                           ;main.c: 130:     sendCommand("radio set freq 923300000\r\n");
  4309  0074DC  0EE9               	movlw	low STR_18
  4310  0074DE  6E02               	movwf	sendCommand@texto^0,c
  4311  0074E0  0E7C               	movlw	high STR_18
  4312  0074E2  6E03               	movwf	(sendCommand@texto+1)^0,c
  4313  0074E4  ECD4  F02E         	call	_sendCommand	;wreg free
  4314  0074E8                     
  4315                           ;main.c: 131:     sprintf(read,"%d",EUSART1_Read());
  4316  0074E8  0E68               	movlw	low init_mod_LoRa@read
  4317  0074EA  6E59               	movwf	sprintf@s^0,c
  4318  0074EC  0E00               	movlw	high init_mod_LoRa@read
  4319  0074EE  6E5A               	movwf	(sprintf@s+1)^0,c
  4320  0074F0  0EFC               	movlw	low STR_11
  4321  0074F2  6E5B               	movwf	sprintf@fmt^0,c
  4322  0074F4  0E7F               	movlw	high STR_11
  4323  0074F6  6E5C               	movwf	(sprintf@fmt+1)^0,c
  4324  0074F8  EC5B  F02E         	call	_EUSART1_Read	;wreg free
  4325  0074FC  6E5F               	movwf	??_init_mod_LoRa^0,c
  4326  0074FE  505F               	movf	??_init_mod_LoRa^0,w,c
  4327  007500  6E5D               	movwf	(?_sprintf+4)^0,c
  4328  007502  6A5E               	clrf	(?_sprintf+5)^0,c
  4329  007504  ECA7  F02F         	call	_sprintf	;wreg free
  4330  007508                     
  4331                           ;main.c: 132:     sprintf(READ,"%c",get_Data());
  4332  007508  0E72               	movlw	low init_mod_LoRa@READ
  4333  00750A  6E59               	movwf	sprintf@s^0,c
  4334  00750C  0E00               	movlw	high init_mod_LoRa@READ
  4335  00750E  6E5A               	movwf	(sprintf@s+1)^0,c
  4336  007510  0EF9               	movlw	low STR_6
  4337  007512  6E5B               	movwf	sprintf@fmt^0,c
  4338  007514  0E7F               	movlw	high STR_6
  4339  007516  6E5C               	movwf	(sprintf@fmt+1)^0,c
  4340  007518  ECB9  F02E         	call	_get_Data	;wreg free
  4341  00751C  C001  F05D         	movff	?_get_Data,?_sprintf+4
  4342  007520  C002  F05E         	movff	?_get_Data+1,?_sprintf+5
  4343  007524  ECA7  F02F         	call	_sprintf	;wreg free
  4344  007528                     
  4345                           ;main.c: 133:     oled_putString(read,0,2);
  4346  007528  0E68               	movlw	low init_mod_LoRa@read
  4347  00752A  6E0D               	movwf	oled_putString@string^0,c
  4348  00752C  0E00               	movlw	high init_mod_LoRa@read
  4349  00752E  6E0E               	movwf	(oled_putString@string+1)^0,c
  4350  007530  0E00               	movlw	0
  4351  007532  6E0F               	movwf	oled_putString@station_dot^0,c
  4352  007534  0E02               	movlw	2
  4353  007536  6E10               	movwf	oled_putString@start_page^0,c
  4354  007538  EC7B  F030         	call	_oled_putString	;wreg free
  4355  00753C                     
  4356                           ;main.c: 134:     oled_putString(READ,0,3);
  4357  00753C  0E72               	movlw	low init_mod_LoRa@READ
  4358  00753E  6E0D               	movwf	oled_putString@string^0,c
  4359  007540  0E00               	movlw	high init_mod_LoRa@READ
  4360  007542  6E0E               	movwf	(oled_putString@string+1)^0,c
  4361  007544  0E00               	movlw	0
  4362  007546  6E0F               	movwf	oled_putString@station_dot^0,c
  4363  007548  0E03               	movlw	3
  4364  00754A  6E10               	movwf	oled_putString@start_page^0,c
  4365  00754C  EC7B  F030         	call	_oled_putString	;wreg free
  4366  007550                     
  4367                           ;main.c: 135:     delayms(500);
  4368  007550  0E01               	movlw	1
  4369  007552  6E02               	movwf	(delayms@length+1)^0,c
  4370  007554  0EF4               	movlw	244
  4371  007556  6E01               	movwf	delayms@length^0,c
  4372  007558  EC0A  F02F         	call	_delayms	;wreg free
  4373  00755C                     
  4374                           ;main.c: 137:     oled_clearRow(1);
  4375  00755C  0E01               	movlw	1
  4376  00755E  EC47  F02E         	call	_oled_clearRow
  4377  007562                     
  4378                           ;main.c: 138:     oled_clearRow(2);
  4379  007562  0E02               	movlw	2
  4380  007564  EC47  F02E         	call	_oled_clearRow
  4381  007568                     
  4382                           ;main.c: 139:     oled_clearRow(3);
  4383  007568  0E03               	movlw	3
  4384  00756A  EC47  F02E         	call	_oled_clearRow
  4385  00756E                     
  4386                           ;main.c: 140:     oled_putString("cod Dec Errores",0,1);
  4387  00756E  0E54               	movlw	low STR_21
  4388  007570  6E0D               	movwf	oled_putString@string^0,c
  4389  007572  0E7E               	movlw	high STR_21
  4390  007574  6E0E               	movwf	(oled_putString@string+1)^0,c
  4391  007576  0E00               	movlw	0
  4392  007578  6E0F               	movwf	oled_putString@station_dot^0,c
  4393  00757A  0E01               	movlw	1
  4394  00757C  6E10               	movwf	oled_putString@start_page^0,c
  4395  00757E  EC7B  F030         	call	_oled_putString	;wreg free
  4396  007582                     
  4397                           ;main.c: 141:     sendCommand("radio set crc on\r\n");
  4398  007582  0E0E               	movlw	low STR_22
  4399  007584  6E02               	movwf	sendCommand@texto^0,c
  4400  007586  0E7E               	movlw	high STR_22
  4401  007588  6E03               	movwf	(sendCommand@texto+1)^0,c
  4402  00758A  ECD4  F02E         	call	_sendCommand	;wreg free
  4403  00758E                     
  4404                           ;main.c: 142:     sprintf(read,"%d",EUSART1_Read());
  4405  00758E  0E68               	movlw	low init_mod_LoRa@read
  4406  007590  6E59               	movwf	sprintf@s^0,c
  4407  007592  0E00               	movlw	high init_mod_LoRa@read
  4408  007594  6E5A               	movwf	(sprintf@s+1)^0,c
  4409  007596  0EFC               	movlw	low STR_11
  4410  007598  6E5B               	movwf	sprintf@fmt^0,c
  4411  00759A  0E7F               	movlw	high STR_11
  4412  00759C  6E5C               	movwf	(sprintf@fmt+1)^0,c
  4413  00759E  EC5B  F02E         	call	_EUSART1_Read	;wreg free
  4414  0075A2  6E5F               	movwf	??_init_mod_LoRa^0,c
  4415  0075A4  505F               	movf	??_init_mod_LoRa^0,w,c
  4416  0075A6  6E5D               	movwf	(?_sprintf+4)^0,c
  4417  0075A8  6A5E               	clrf	(?_sprintf+5)^0,c
  4418  0075AA  ECA7  F02F         	call	_sprintf	;wreg free
  4419  0075AE                     
  4420                           ;main.c: 143:     sprintf(READ,"%c",get_Data());
  4421  0075AE  0E72               	movlw	low init_mod_LoRa@READ
  4422  0075B0  6E59               	movwf	sprintf@s^0,c
  4423  0075B2  0E00               	movlw	high init_mod_LoRa@READ
  4424  0075B4  6E5A               	movwf	(sprintf@s+1)^0,c
  4425  0075B6  0EF9               	movlw	low STR_6
  4426  0075B8  6E5B               	movwf	sprintf@fmt^0,c
  4427  0075BA  0E7F               	movlw	high STR_6
  4428  0075BC  6E5C               	movwf	(sprintf@fmt+1)^0,c
  4429  0075BE  ECB9  F02E         	call	_get_Data	;wreg free
  4430  0075C2  C001  F05D         	movff	?_get_Data,?_sprintf+4
  4431  0075C6  C002  F05E         	movff	?_get_Data+1,?_sprintf+5
  4432  0075CA  ECA7  F02F         	call	_sprintf	;wreg free
  4433  0075CE                     
  4434                           ;main.c: 144:     oled_putString(read,0,2);
  4435  0075CE  0E68               	movlw	low init_mod_LoRa@read
  4436  0075D0  6E0D               	movwf	oled_putString@string^0,c
  4437  0075D2  0E00               	movlw	high init_mod_LoRa@read
  4438  0075D4  6E0E               	movwf	(oled_putString@string+1)^0,c
  4439  0075D6  0E00               	movlw	0
  4440  0075D8  6E0F               	movwf	oled_putString@station_dot^0,c
  4441  0075DA  0E02               	movlw	2
  4442  0075DC  6E10               	movwf	oled_putString@start_page^0,c
  4443  0075DE  EC7B  F030         	call	_oled_putString	;wreg free
  4444  0075E2                     
  4445                           ;main.c: 145:     oled_putString(READ,0,3);
  4446  0075E2  0E72               	movlw	low init_mod_LoRa@READ
  4447  0075E4  6E0D               	movwf	oled_putString@string^0,c
  4448  0075E6  0E00               	movlw	high init_mod_LoRa@READ
  4449  0075E8  6E0E               	movwf	(oled_putString@string+1)^0,c
  4450  0075EA  0E00               	movlw	0
  4451  0075EC  6E0F               	movwf	oled_putString@station_dot^0,c
  4452  0075EE  0E03               	movlw	3
  4453  0075F0  6E10               	movwf	oled_putString@start_page^0,c
  4454  0075F2  EC7B  F030         	call	_oled_putString	;wreg free
  4455  0075F6                     
  4456                           ;main.c: 146:     delayms(500);
  4457  0075F6  0E01               	movlw	1
  4458  0075F8  6E02               	movwf	(delayms@length+1)^0,c
  4459  0075FA  0EF4               	movlw	244
  4460  0075FC  6E01               	movwf	delayms@length^0,c
  4461  0075FE  EC0A  F02F         	call	_delayms	;wreg free
  4462  007602                     
  4463                           ;main.c: 148:     oled_clearRow(1);
  4464  007602  0E01               	movlw	1
  4465  007604  EC47  F02E         	call	_oled_clearRow
  4466  007608                     
  4467                           ;main.c: 149:     oled_clearRow(2);
  4468  007608  0E02               	movlw	2
  4469  00760A  EC47  F02E         	call	_oled_clearRow
  4470  00760E                     
  4471                           ;main.c: 150:     oled_clearRow(3);
  4472  00760E  0E03               	movlw	3
  4473  007610  EC47  F02E         	call	_oled_clearRow
  4474  007614                     
  4475                           ;main.c: 151:     oled_putString("tasa de cod",0,1);
  4476  007614  0E88               	movlw	low STR_25
  4477  007616  6E0D               	movwf	oled_putString@string^0,c
  4478  007618  0E7F               	movlw	high STR_25
  4479  00761A  6E0E               	movwf	(oled_putString@string+1)^0,c
  4480  00761C  0E00               	movlw	0
  4481  00761E  6E0F               	movwf	oled_putString@station_dot^0,c
  4482  007620  0E01               	movlw	1
  4483  007622  6E10               	movwf	oled_putString@start_page^0,c
  4484  007624  EC7B  F030         	call	_oled_putString	;wreg free
  4485  007628                     
  4486                           ;main.c: 152:     sendCommand("radio set cr 4/5\r\n");
  4487  007628  0EFB               	movlw	low STR_26
  4488  00762A  6E02               	movwf	sendCommand@texto^0,c
  4489  00762C  0E7D               	movlw	high STR_26
  4490  00762E  6E03               	movwf	(sendCommand@texto+1)^0,c
  4491  007630  ECD4  F02E         	call	_sendCommand	;wreg free
  4492  007634                     
  4493                           ;main.c: 153:     sprintf(read,"%d",EUSART1_Read());
  4494  007634  0E68               	movlw	low init_mod_LoRa@read
  4495  007636  6E59               	movwf	sprintf@s^0,c
  4496  007638  0E00               	movlw	high init_mod_LoRa@read
  4497  00763A  6E5A               	movwf	(sprintf@s+1)^0,c
  4498  00763C  0EFC               	movlw	low STR_11
  4499  00763E  6E5B               	movwf	sprintf@fmt^0,c
  4500  007640  0E7F               	movlw	high STR_11
  4501  007642  6E5C               	movwf	(sprintf@fmt+1)^0,c
  4502  007644  EC5B  F02E         	call	_EUSART1_Read	;wreg free
  4503  007648  6E5F               	movwf	??_init_mod_LoRa^0,c
  4504  00764A  505F               	movf	??_init_mod_LoRa^0,w,c
  4505  00764C  6E5D               	movwf	(?_sprintf+4)^0,c
  4506  00764E  6A5E               	clrf	(?_sprintf+5)^0,c
  4507  007650  ECA7  F02F         	call	_sprintf	;wreg free
  4508  007654                     
  4509                           ;main.c: 154:     sprintf(READ,"%c",get_Data());
  4510  007654  0E72               	movlw	low init_mod_LoRa@READ
  4511  007656  6E59               	movwf	sprintf@s^0,c
  4512  007658  0E00               	movlw	high init_mod_LoRa@READ
  4513  00765A  6E5A               	movwf	(sprintf@s+1)^0,c
  4514  00765C  0EF9               	movlw	low STR_6
  4515  00765E  6E5B               	movwf	sprintf@fmt^0,c
  4516  007660  0E7F               	movlw	high STR_6
  4517  007662  6E5C               	movwf	(sprintf@fmt+1)^0,c
  4518  007664  ECB9  F02E         	call	_get_Data	;wreg free
  4519  007668  C001  F05D         	movff	?_get_Data,?_sprintf+4
  4520  00766C  C002  F05E         	movff	?_get_Data+1,?_sprintf+5
  4521  007670  ECA7  F02F         	call	_sprintf	;wreg free
  4522  007674                     
  4523                           ;main.c: 155:     oled_putString(read,0,2);
  4524  007674  0E68               	movlw	low init_mod_LoRa@read
  4525  007676  6E0D               	movwf	oled_putString@string^0,c
  4526  007678  0E00               	movlw	high init_mod_LoRa@read
  4527  00767A  6E0E               	movwf	(oled_putString@string+1)^0,c
  4528  00767C  0E00               	movlw	0
  4529  00767E  6E0F               	movwf	oled_putString@station_dot^0,c
  4530  007680  0E02               	movlw	2
  4531  007682  6E10               	movwf	oled_putString@start_page^0,c
  4532  007684  EC7B  F030         	call	_oled_putString	;wreg free
  4533  007688                     
  4534                           ;main.c: 156:     oled_putString(READ,0,3);
  4535  007688  0E72               	movlw	low init_mod_LoRa@READ
  4536  00768A  6E0D               	movwf	oled_putString@string^0,c
  4537  00768C  0E00               	movlw	high init_mod_LoRa@READ
  4538  00768E  6E0E               	movwf	(oled_putString@string+1)^0,c
  4539  007690  0E00               	movlw	0
  4540  007692  6E0F               	movwf	oled_putString@station_dot^0,c
  4541  007694  0E03               	movlw	3
  4542  007696  6E10               	movwf	oled_putString@start_page^0,c
  4543  007698  EC7B  F030         	call	_oled_putString	;wreg free
  4544  00769C                     
  4545                           ;main.c: 157:     delayms(500);
  4546  00769C  0E01               	movlw	1
  4547  00769E  6E02               	movwf	(delayms@length+1)^0,c
  4548  0076A0  0EF4               	movlw	244
  4549  0076A2  6E01               	movwf	delayms@length^0,c
  4550  0076A4  EC0A  F02F         	call	_delayms	;wreg free
  4551  0076A8                     
  4552                           ;main.c: 159:     oled_clearRow(1);
  4553  0076A8  0E01               	movlw	1
  4554  0076AA  EC47  F02E         	call	_oled_clearRow
  4555  0076AE                     
  4556                           ;main.c: 160:     oled_clearRow(2);
  4557  0076AE  0E02               	movlw	2
  4558  0076B0  EC47  F02E         	call	_oled_clearRow
  4559  0076B4                     
  4560                           ;main.c: 161:     oled_clearRow(3);
  4561  0076B4  0E03               	movlw	3
  4562  0076B6  EC47  F02E         	call	_oled_clearRow
  4563  0076BA                     
  4564                           ;main.c: 162:     oled_putString("mod lora",0,1);
  4565  0076BA  0ED0               	movlw	low STR_29
  4566  0076BC  6E0D               	movwf	oled_putString@string^0,c
  4567  0076BE  0E7F               	movlw	high STR_29
  4568  0076C0  6E0E               	movwf	(oled_putString@string+1)^0,c
  4569  0076C2  0E00               	movlw	0
  4570  0076C4  6E0F               	movwf	oled_putString@station_dot^0,c
  4571  0076C6  0E01               	movlw	1
  4572  0076C8  6E10               	movwf	oled_putString@start_page^0,c
  4573  0076CA  EC7B  F030         	call	_oled_putString	;wreg free
  4574  0076CE                     
  4575                           ;main.c: 163:     sendCommand("radio set mod lora\r\n");
  4576  0076CE  0E82               	movlw	low STR_30
  4577  0076D0  6E02               	movwf	sendCommand@texto^0,c
  4578  0076D2  0E7D               	movlw	high STR_30
  4579  0076D4  6E03               	movwf	(sendCommand@texto+1)^0,c
  4580  0076D6  ECD4  F02E         	call	_sendCommand	;wreg free
  4581  0076DA                     
  4582                           ;main.c: 164:     sprintf(read,"%d",EUSART1_Read());
  4583  0076DA  0E68               	movlw	low init_mod_LoRa@read
  4584  0076DC  6E59               	movwf	sprintf@s^0,c
  4585  0076DE  0E00               	movlw	high init_mod_LoRa@read
  4586  0076E0  6E5A               	movwf	(sprintf@s+1)^0,c
  4587  0076E2  0EFC               	movlw	low STR_11
  4588  0076E4  6E5B               	movwf	sprintf@fmt^0,c
  4589  0076E6  0E7F               	movlw	high STR_11
  4590  0076E8  6E5C               	movwf	(sprintf@fmt+1)^0,c
  4591  0076EA  EC5B  F02E         	call	_EUSART1_Read	;wreg free
  4592  0076EE  6E5F               	movwf	??_init_mod_LoRa^0,c
  4593  0076F0  505F               	movf	??_init_mod_LoRa^0,w,c
  4594  0076F2  6E5D               	movwf	(?_sprintf+4)^0,c
  4595  0076F4  6A5E               	clrf	(?_sprintf+5)^0,c
  4596  0076F6  ECA7  F02F         	call	_sprintf	;wreg free
  4597  0076FA                     
  4598                           ;main.c: 165:     sprintf(READ,"%c",get_Data());
  4599  0076FA  0E72               	movlw	low init_mod_LoRa@READ
  4600  0076FC  6E59               	movwf	sprintf@s^0,c
  4601  0076FE  0E00               	movlw	high init_mod_LoRa@READ
  4602  007700  6E5A               	movwf	(sprintf@s+1)^0,c
  4603  007702  0EF9               	movlw	low STR_6
  4604  007704  6E5B               	movwf	sprintf@fmt^0,c
  4605  007706  0E7F               	movlw	high STR_6
  4606  007708  6E5C               	movwf	(sprintf@fmt+1)^0,c
  4607  00770A  ECB9  F02E         	call	_get_Data	;wreg free
  4608  00770E  C001  F05D         	movff	?_get_Data,?_sprintf+4
  4609  007712  C002  F05E         	movff	?_get_Data+1,?_sprintf+5
  4610  007716  ECA7  F02F         	call	_sprintf	;wreg free
  4611  00771A                     
  4612                           ;main.c: 166:     oled_putString(read,0,2);
  4613  00771A  0E68               	movlw	low init_mod_LoRa@read
  4614  00771C  6E0D               	movwf	oled_putString@string^0,c
  4615  00771E  0E00               	movlw	high init_mod_LoRa@read
  4616  007720  6E0E               	movwf	(oled_putString@string+1)^0,c
  4617  007722  0E00               	movlw	0
  4618  007724  6E0F               	movwf	oled_putString@station_dot^0,c
  4619  007726  0E02               	movlw	2
  4620  007728  6E10               	movwf	oled_putString@start_page^0,c
  4621  00772A  EC7B  F030         	call	_oled_putString	;wreg free
  4622  00772E                     
  4623                           ;main.c: 167:     oled_putString(READ,0,3);
  4624  00772E  0E72               	movlw	low init_mod_LoRa@READ
  4625  007730  6E0D               	movwf	oled_putString@string^0,c
  4626  007732  0E00               	movlw	high init_mod_LoRa@READ
  4627  007734  6E0E               	movwf	(oled_putString@string+1)^0,c
  4628  007736  0E00               	movlw	0
  4629  007738  6E0F               	movwf	oled_putString@station_dot^0,c
  4630  00773A  0E03               	movlw	3
  4631  00773C  6E10               	movwf	oled_putString@start_page^0,c
  4632  00773E  EC7B  F030         	call	_oled_putString	;wreg free
  4633  007742                     
  4634                           ;main.c: 168:     delayms(500);
  4635  007742  0E01               	movlw	1
  4636  007744  6E02               	movwf	(delayms@length+1)^0,c
  4637  007746  0EF4               	movlw	244
  4638  007748  6E01               	movwf	delayms@length^0,c
  4639  00774A  EC0A  F02F         	call	_delayms	;wreg free
  4640  00774E                     
  4641                           ;main.c: 170:     oled_clearRow(1);
  4642  00774E  0E01               	movlw	1
  4643  007750  EC47  F02E         	call	_oled_clearRow
  4644  007754                     
  4645                           ;main.c: 171:     oled_clearRow(2);
  4646  007754  0E02               	movlw	2
  4647  007756  EC47  F02E         	call	_oled_clearRow
  4648  00775A                     
  4649                           ;main.c: 172:     oled_clearRow(3);
  4650  00775A  0E03               	movlw	3
  4651  00775C  EC47  F02E         	call	_oled_clearRow
  4652  007760                     
  4653                           ;main.c: 173:     oled_putString("inversion",0,1);
  4654  007760  0EB3               	movlw	low STR_33
  4655  007762  6E0D               	movwf	oled_putString@string^0,c
  4656  007764  0E7F               	movlw	high STR_33
  4657  007766  6E0E               	movwf	(oled_putString@string+1)^0,c
  4658  007768  0E00               	movlw	0
  4659  00776A  6E0F               	movwf	oled_putString@station_dot^0,c
  4660  00776C  0E01               	movlw	1
  4661  00776E  6E10               	movwf	oled_putString@start_page^0,c
  4662  007770  EC7B  F030         	call	_oled_putString	;wreg free
  4663  007774                     
  4664                           ;main.c: 174:     sendCommand("radio set iqi off\r\n");
  4665  007774  0ED4               	movlw	low STR_34
  4666  007776  6E02               	movwf	sendCommand@texto^0,c
  4667  007778  0E7D               	movlw	high STR_34
  4668  00777A  6E03               	movwf	(sendCommand@texto+1)^0,c
  4669  00777C  ECD4  F02E         	call	_sendCommand	;wreg free
  4670  007780                     
  4671                           ;main.c: 175:     sprintf(read,"%d",EUSART1_Read());
  4672  007780  0E68               	movlw	low init_mod_LoRa@read
  4673  007782  6E59               	movwf	sprintf@s^0,c
  4674  007784  0E00               	movlw	high init_mod_LoRa@read
  4675  007786  6E5A               	movwf	(sprintf@s+1)^0,c
  4676  007788  0EFC               	movlw	low STR_11
  4677  00778A  6E5B               	movwf	sprintf@fmt^0,c
  4678  00778C  0E7F               	movlw	high STR_11
  4679  00778E  6E5C               	movwf	(sprintf@fmt+1)^0,c
  4680  007790  EC5B  F02E         	call	_EUSART1_Read	;wreg free
  4681  007794  6E5F               	movwf	??_init_mod_LoRa^0,c
  4682  007796  505F               	movf	??_init_mod_LoRa^0,w,c
  4683  007798  6E5D               	movwf	(?_sprintf+4)^0,c
  4684  00779A  6A5E               	clrf	(?_sprintf+5)^0,c
  4685  00779C  ECA7  F02F         	call	_sprintf	;wreg free
  4686  0077A0                     
  4687                           ;main.c: 176:     sprintf(READ,"%c",get_Data());
  4688  0077A0  0E72               	movlw	low init_mod_LoRa@READ
  4689  0077A2  6E59               	movwf	sprintf@s^0,c
  4690  0077A4  0E00               	movlw	high init_mod_LoRa@READ
  4691  0077A6  6E5A               	movwf	(sprintf@s+1)^0,c
  4692  0077A8  0EF9               	movlw	low STR_6
  4693  0077AA  6E5B               	movwf	sprintf@fmt^0,c
  4694  0077AC  0E7F               	movlw	high STR_6
  4695  0077AE  6E5C               	movwf	(sprintf@fmt+1)^0,c
  4696  0077B0  ECB9  F02E         	call	_get_Data	;wreg free
  4697  0077B4  C001  F05D         	movff	?_get_Data,?_sprintf+4
  4698  0077B8  C002  F05E         	movff	?_get_Data+1,?_sprintf+5
  4699  0077BC  ECA7  F02F         	call	_sprintf	;wreg free
  4700  0077C0                     
  4701                           ;main.c: 177:     oled_putString(read,0,2);
  4702  0077C0  0E68               	movlw	low init_mod_LoRa@read
  4703  0077C2  6E0D               	movwf	oled_putString@string^0,c
  4704  0077C4  0E00               	movlw	high init_mod_LoRa@read
  4705  0077C6  6E0E               	movwf	(oled_putString@string+1)^0,c
  4706  0077C8  0E00               	movlw	0
  4707  0077CA  6E0F               	movwf	oled_putString@station_dot^0,c
  4708  0077CC  0E02               	movlw	2
  4709  0077CE  6E10               	movwf	oled_putString@start_page^0,c
  4710  0077D0  EC7B  F030         	call	_oled_putString	;wreg free
  4711  0077D4                     
  4712                           ;main.c: 178:     oled_putString(READ,0,3);
  4713  0077D4  0E72               	movlw	low init_mod_LoRa@READ
  4714  0077D6  6E0D               	movwf	oled_putString@string^0,c
  4715  0077D8  0E00               	movlw	high init_mod_LoRa@READ
  4716  0077DA  6E0E               	movwf	(oled_putString@string+1)^0,c
  4717  0077DC  0E00               	movlw	0
  4718  0077DE  6E0F               	movwf	oled_putString@station_dot^0,c
  4719  0077E0  0E03               	movlw	3
  4720  0077E2  6E10               	movwf	oled_putString@start_page^0,c
  4721  0077E4  EC7B  F030         	call	_oled_putString	;wreg free
  4722  0077E8                     
  4723                           ;main.c: 179:     delayms(500);
  4724  0077E8  0E01               	movlw	1
  4725  0077EA  6E02               	movwf	(delayms@length+1)^0,c
  4726  0077EC  0EF4               	movlw	244
  4727  0077EE  6E01               	movwf	delayms@length^0,c
  4728  0077F0  EC0A  F02F         	call	_delayms	;wreg free
  4729  0077F4                     
  4730                           ;main.c: 181:     oled_clearRow(1);
  4731  0077F4  0E01               	movlw	1
  4732  0077F6  EC47  F02E         	call	_oled_clearRow
  4733  0077FA                     
  4734                           ;main.c: 182:     oled_clearRow(2);
  4735  0077FA  0E02               	movlw	2
  4736  0077FC  EC47  F02E         	call	_oled_clearRow
  4737  007800                     
  4738                           ;main.c: 183:     oled_clearRow(3);
  4739  007800  0E03               	movlw	3
  4740  007802  EC47  F02E         	call	_oled_clearRow
  4741  007806                     
  4742                           ;main.c: 184:     oled_putString("wdt",0,1);
  4743  007806  0EF5               	movlw	low STR_37
  4744  007808  6E0D               	movwf	oled_putString@string^0,c
  4745  00780A  0E7F               	movlw	high STR_37
  4746  00780C  6E0E               	movwf	(oled_putString@string+1)^0,c
  4747  00780E  0E00               	movlw	0
  4748  007810  6E0F               	movwf	oled_putString@station_dot^0,c
  4749  007812  0E01               	movlw	1
  4750  007814  6E10               	movwf	oled_putString@start_page^0,c
  4751  007816  EC7B  F030         	call	_oled_putString	;wreg free
  4752  00781A                     
  4753                           ;main.c: 185:     sendCommand("radio set wdt 15000\r\n");
  4754  00781A  0E6C               	movlw	low STR_38
  4755  00781C  6E02               	movwf	sendCommand@texto^0,c
  4756  00781E  0E7D               	movlw	high STR_38
  4757  007820  6E03               	movwf	(sendCommand@texto+1)^0,c
  4758  007822  ECD4  F02E         	call	_sendCommand	;wreg free
  4759  007826                     
  4760                           ;main.c: 186:     sprintf(read,"%d",EUSART1_Read());
  4761  007826  0E68               	movlw	low init_mod_LoRa@read
  4762  007828  6E59               	movwf	sprintf@s^0,c
  4763  00782A  0E00               	movlw	high init_mod_LoRa@read
  4764  00782C  6E5A               	movwf	(sprintf@s+1)^0,c
  4765  00782E  0EFC               	movlw	low STR_11
  4766  007830  6E5B               	movwf	sprintf@fmt^0,c
  4767  007832  0E7F               	movlw	high STR_11
  4768  007834  6E5C               	movwf	(sprintf@fmt+1)^0,c
  4769  007836  EC5B  F02E         	call	_EUSART1_Read	;wreg free
  4770  00783A  6E5F               	movwf	??_init_mod_LoRa^0,c
  4771  00783C  505F               	movf	??_init_mod_LoRa^0,w,c
  4772  00783E  6E5D               	movwf	(?_sprintf+4)^0,c
  4773  007840  6A5E               	clrf	(?_sprintf+5)^0,c
  4774  007842  ECA7  F02F         	call	_sprintf	;wreg free
  4775  007846                     
  4776                           ;main.c: 187:     sprintf(READ,"%c",get_Data());
  4777  007846  0E72               	movlw	low init_mod_LoRa@READ
  4778  007848  6E59               	movwf	sprintf@s^0,c
  4779  00784A  0E00               	movlw	high init_mod_LoRa@READ
  4780  00784C  6E5A               	movwf	(sprintf@s+1)^0,c
  4781  00784E  0EF9               	movlw	low STR_6
  4782  007850  6E5B               	movwf	sprintf@fmt^0,c
  4783  007852  0E7F               	movlw	high STR_6
  4784  007854  6E5C               	movwf	(sprintf@fmt+1)^0,c
  4785  007856  ECB9  F02E         	call	_get_Data	;wreg free
  4786  00785A  C001  F05D         	movff	?_get_Data,?_sprintf+4
  4787  00785E  C002  F05E         	movff	?_get_Data+1,?_sprintf+5
  4788  007862  ECA7  F02F         	call	_sprintf	;wreg free
  4789  007866                     
  4790                           ;main.c: 188:     oled_putString(read,0,2);
  4791  007866  0E68               	movlw	low init_mod_LoRa@read
  4792  007868  6E0D               	movwf	oled_putString@string^0,c
  4793  00786A  0E00               	movlw	high init_mod_LoRa@read
  4794  00786C  6E0E               	movwf	(oled_putString@string+1)^0,c
  4795  00786E  0E00               	movlw	0
  4796  007870  6E0F               	movwf	oled_putString@station_dot^0,c
  4797  007872  0E02               	movlw	2
  4798  007874  6E10               	movwf	oled_putString@start_page^0,c
  4799  007876  EC7B  F030         	call	_oled_putString	;wreg free
  4800  00787A                     
  4801                           ;main.c: 189:     oled_putString(READ,0,3);
  4802  00787A  0E72               	movlw	low init_mod_LoRa@READ
  4803  00787C  6E0D               	movwf	oled_putString@string^0,c
  4804  00787E  0E00               	movlw	high init_mod_LoRa@READ
  4805  007880  6E0E               	movwf	(oled_putString@string+1)^0,c
  4806  007882  0E00               	movlw	0
  4807  007884  6E0F               	movwf	oled_putString@station_dot^0,c
  4808  007886  0E03               	movlw	3
  4809  007888  6E10               	movwf	oled_putString@start_page^0,c
  4810  00788A  EC7B  F030         	call	_oled_putString	;wreg free
  4811  00788E                     
  4812                           ;main.c: 190:     delayms(500);
  4813  00788E  0E01               	movlw	1
  4814  007890  6E02               	movwf	(delayms@length+1)^0,c
  4815  007892  0EF4               	movlw	244
  4816  007894  6E01               	movwf	delayms@length^0,c
  4817  007896  EC0A  F02F         	call	_delayms	;wreg free
  4818  00789A                     
  4819                           ;main.c: 192:     oled_clearRow(1);
  4820  00789A  0E01               	movlw	1
  4821  00789C  EC47  F02E         	call	_oled_clearRow
  4822  0078A0                     
  4823                           ;main.c: 193:     oled_clearRow(2);
  4824  0078A0  0E02               	movlw	2
  4825  0078A2  EC47  F02E         	call	_oled_clearRow
  4826  0078A6                     
  4827                           ;main.c: 194:     oled_clearRow(3);
  4828  0078A6  0E03               	movlw	3
  4829  0078A8  EC47  F02E         	call	_oled_clearRow
  4830  0078AC                     
  4831                           ;main.c: 195:     oled_putString("factor de dispersion",0,1);
  4832  0078AC  0E97               	movlw	low STR_41
  4833  0078AE  6E0D               	movwf	oled_putString@string^0,c
  4834  0078B0  0E7D               	movlw	high STR_41
  4835  0078B2  6E0E               	movwf	(oled_putString@string+1)^0,c
  4836  0078B4  0E00               	movlw	0
  4837  0078B6  6E0F               	movwf	oled_putString@station_dot^0,c
  4838  0078B8  0E01               	movlw	1
  4839  0078BA  6E10               	movwf	oled_putString@start_page^0,c
  4840  0078BC  EC7B  F030         	call	_oled_putString	;wreg free
  4841  0078C0                     
  4842                           ;main.c: 196:     sendCommand("radio set sf SF12\r\n");
  4843  0078C0  0EAC               	movlw	low STR_42
  4844  0078C2  6E02               	movwf	sendCommand@texto^0,c
  4845  0078C4  0E7D               	movlw	high STR_42
  4846  0078C6  6E03               	movwf	(sendCommand@texto+1)^0,c
  4847  0078C8  ECD4  F02E         	call	_sendCommand	;wreg free
  4848  0078CC                     
  4849                           ;main.c: 197:     sprintf(read,"%d",EUSART1_Read());
  4850  0078CC  0E68               	movlw	low init_mod_LoRa@read
  4851  0078CE  6E59               	movwf	sprintf@s^0,c
  4852  0078D0  0E00               	movlw	high init_mod_LoRa@read
  4853  0078D2  6E5A               	movwf	(sprintf@s+1)^0,c
  4854  0078D4  0EFC               	movlw	low STR_11
  4855  0078D6  6E5B               	movwf	sprintf@fmt^0,c
  4856  0078D8  0E7F               	movlw	high STR_11
  4857  0078DA  6E5C               	movwf	(sprintf@fmt+1)^0,c
  4858  0078DC  EC5B  F02E         	call	_EUSART1_Read	;wreg free
  4859  0078E0  6E5F               	movwf	??_init_mod_LoRa^0,c
  4860  0078E2  505F               	movf	??_init_mod_LoRa^0,w,c
  4861  0078E4  6E5D               	movwf	(?_sprintf+4)^0,c
  4862  0078E6  6A5E               	clrf	(?_sprintf+5)^0,c
  4863  0078E8  ECA7  F02F         	call	_sprintf	;wreg free
  4864  0078EC                     
  4865                           ;main.c: 198:     sprintf(READ,"%c",get_Data());
  4866  0078EC  0E72               	movlw	low init_mod_LoRa@READ
  4867  0078EE  6E59               	movwf	sprintf@s^0,c
  4868  0078F0  0E00               	movlw	high init_mod_LoRa@READ
  4869  0078F2  6E5A               	movwf	(sprintf@s+1)^0,c
  4870  0078F4  0EF9               	movlw	low STR_6
  4871  0078F6  6E5B               	movwf	sprintf@fmt^0,c
  4872  0078F8  0E7F               	movlw	high STR_6
  4873  0078FA  6E5C               	movwf	(sprintf@fmt+1)^0,c
  4874  0078FC  ECB9  F02E         	call	_get_Data	;wreg free
  4875  007900  C001  F05D         	movff	?_get_Data,?_sprintf+4
  4876  007904  C002  F05E         	movff	?_get_Data+1,?_sprintf+5
  4877  007908  ECA7  F02F         	call	_sprintf	;wreg free
  4878  00790C                     
  4879                           ;main.c: 199:     oled_putString(read,0,2);
  4880  00790C  0E68               	movlw	low init_mod_LoRa@read
  4881  00790E  6E0D               	movwf	oled_putString@string^0,c
  4882  007910  0E00               	movlw	high init_mod_LoRa@read
  4883  007912  6E0E               	movwf	(oled_putString@string+1)^0,c
  4884  007914  0E00               	movlw	0
  4885  007916  6E0F               	movwf	oled_putString@station_dot^0,c
  4886  007918  0E02               	movlw	2
  4887  00791A  6E10               	movwf	oled_putString@start_page^0,c
  4888  00791C  EC7B  F030         	call	_oled_putString	;wreg free
  4889  007920                     
  4890                           ;main.c: 200:     oled_putString(READ,0,3);
  4891  007920  0E72               	movlw	low init_mod_LoRa@READ
  4892  007922  6E0D               	movwf	oled_putString@string^0,c
  4893  007924  0E00               	movlw	high init_mod_LoRa@READ
  4894  007926  6E0E               	movwf	(oled_putString@string+1)^0,c
  4895  007928  0E00               	movlw	0
  4896  00792A  6E0F               	movwf	oled_putString@station_dot^0,c
  4897  00792C  0E03               	movlw	3
  4898  00792E  6E10               	movwf	oled_putString@start_page^0,c
  4899  007930  EC7B  F030         	call	_oled_putString	;wreg free
  4900  007934                     
  4901                           ;main.c: 201:     delayms(500);
  4902  007934  0E01               	movlw	1
  4903  007936  6E02               	movwf	(delayms@length+1)^0,c
  4904  007938  0EF4               	movlw	244
  4905  00793A  6E01               	movwf	delayms@length^0,c
  4906  00793C  EC0A  F02F         	call	_delayms	;wreg free
  4907  007940                     
  4908                           ;main.c: 203:     oled_clearRow(1);
  4909  007940  0E01               	movlw	1
  4910  007942  EC47  F02E         	call	_oled_clearRow
  4911  007946                     
  4912                           ;main.c: 204:     oled_clearRow(2);
  4913  007946  0E02               	movlw	2
  4914  007948  EC47  F02E         	call	_oled_clearRow
  4915  00794C                     
  4916                           ;main.c: 205:     oled_clearRow(3);
  4917  00794C  0E03               	movlw	3
  4918  00794E  EC47  F02E         	call	_oled_clearRow
  4919  007952                     
  4920                           ;main.c: 206:     oled_putString("sync",0,1);
  4921  007952  0EF0               	movlw	low STR_45
  4922  007954  6E0D               	movwf	oled_putString@string^0,c
  4923  007956  0E7F               	movlw	high STR_45
  4924  007958  6E0E               	movwf	(oled_putString@string+1)^0,c
  4925  00795A  0E00               	movlw	0
  4926  00795C  6E0F               	movwf	oled_putString@station_dot^0,c
  4927  00795E  0E01               	movlw	1
  4928  007960  6E10               	movwf	oled_putString@start_page^0,c
  4929  007962  EC7B  F030         	call	_oled_putString	;wreg free
  4930  007966                     
  4931                           ;main.c: 207:     sendCommand("radio set sync 34\r\n");
  4932  007966  0EC0               	movlw	low STR_46
  4933  007968  6E02               	movwf	sendCommand@texto^0,c
  4934  00796A  0E7D               	movlw	high STR_46
  4935  00796C  6E03               	movwf	(sendCommand@texto+1)^0,c
  4936  00796E  ECD4  F02E         	call	_sendCommand	;wreg free
  4937  007972                     
  4938                           ;main.c: 208:     sprintf(read,"%d",EUSART1_Read());
  4939  007972  0E68               	movlw	low init_mod_LoRa@read
  4940  007974  6E59               	movwf	sprintf@s^0,c
  4941  007976  0E00               	movlw	high init_mod_LoRa@read
  4942  007978  6E5A               	movwf	(sprintf@s+1)^0,c
  4943  00797A  0EFC               	movlw	low STR_11
  4944  00797C  6E5B               	movwf	sprintf@fmt^0,c
  4945  00797E  0E7F               	movlw	high STR_11
  4946  007980  6E5C               	movwf	(sprintf@fmt+1)^0,c
  4947  007982  EC5B  F02E         	call	_EUSART1_Read	;wreg free
  4948  007986  6E5F               	movwf	??_init_mod_LoRa^0,c
  4949  007988  505F               	movf	??_init_mod_LoRa^0,w,c
  4950  00798A  6E5D               	movwf	(?_sprintf+4)^0,c
  4951  00798C  6A5E               	clrf	(?_sprintf+5)^0,c
  4952  00798E  ECA7  F02F         	call	_sprintf	;wreg free
  4953  007992                     
  4954                           ;main.c: 209:     sprintf(READ,"%c",get_Data());
  4955  007992  0E72               	movlw	low init_mod_LoRa@READ
  4956  007994  6E59               	movwf	sprintf@s^0,c
  4957  007996  0E00               	movlw	high init_mod_LoRa@READ
  4958  007998  6E5A               	movwf	(sprintf@s+1)^0,c
  4959  00799A  0EF9               	movlw	low STR_6
  4960  00799C  6E5B               	movwf	sprintf@fmt^0,c
  4961  00799E  0E7F               	movlw	high STR_6
  4962  0079A0  6E5C               	movwf	(sprintf@fmt+1)^0,c
  4963  0079A2  ECB9  F02E         	call	_get_Data	;wreg free
  4964  0079A6  C001  F05D         	movff	?_get_Data,?_sprintf+4
  4965  0079AA  C002  F05E         	movff	?_get_Data+1,?_sprintf+5
  4966  0079AE  ECA7  F02F         	call	_sprintf	;wreg free
  4967  0079B2                     
  4968                           ;main.c: 210:     oled_putString(read,0,2);
  4969  0079B2  0E68               	movlw	low init_mod_LoRa@read
  4970  0079B4  6E0D               	movwf	oled_putString@string^0,c
  4971  0079B6  0E00               	movlw	high init_mod_LoRa@read
  4972  0079B8  6E0E               	movwf	(oled_putString@string+1)^0,c
  4973  0079BA  0E00               	movlw	0
  4974  0079BC  6E0F               	movwf	oled_putString@station_dot^0,c
  4975  0079BE  0E02               	movlw	2
  4976  0079C0  6E10               	movwf	oled_putString@start_page^0,c
  4977  0079C2  EC7B  F030         	call	_oled_putString	;wreg free
  4978  0079C6                     
  4979                           ;main.c: 211:     oled_putString(READ,0,3);
  4980  0079C6  0E72               	movlw	low init_mod_LoRa@READ
  4981  0079C8  6E0D               	movwf	oled_putString@string^0,c
  4982  0079CA  0E00               	movlw	high init_mod_LoRa@READ
  4983  0079CC  6E0E               	movwf	(oled_putString@string+1)^0,c
  4984  0079CE  0E00               	movlw	0
  4985  0079D0  6E0F               	movwf	oled_putString@station_dot^0,c
  4986  0079D2  0E03               	movlw	3
  4987  0079D4  6E10               	movwf	oled_putString@start_page^0,c
  4988  0079D6  EC7B  F030         	call	_oled_putString	;wreg free
  4989  0079DA                     
  4990                           ;main.c: 212:     delayms(500);
  4991  0079DA  0E01               	movlw	1
  4992  0079DC  6E02               	movwf	(delayms@length+1)^0,c
  4993  0079DE  0EF4               	movlw	244
  4994  0079E0  6E01               	movwf	delayms@length^0,c
  4995  0079E2  EC0A  F02F         	call	_delayms	;wreg free
  4996  0079E6  0012               	return		;funcret
  4997  0079E8                     __end_of_init_mod_LoRa:
  4998                           	callstack 0
  4999                           
  5000 ;; *************** function _sprintf *****************
  5001 ;; Defined at:
  5002 ;;		line 9 in file "C:\Program Files\Microchip\xc8\v2.32\pic\sources\c99\common\nf_sprintf.c"
  5003 ;; Parameters:    Size  Location     Type
  5004 ;;  s               2   88[COMRAM] PTR unsigned char 
  5005 ;;		 -> main@read(32), test_LoRa@READ(64), test_LoRa@read(32), init_mod_LoRa@read(10), 
  5006 ;;		 -> init_mod_LoRa@READ(10), 
  5007 ;;  fmt             2   90[COMRAM] PTR const unsigned char 
  5008 ;;		 -> STR_93(3), STR_89(3), STR_86(3), STR_83(3), 
  5009 ;;		 -> STR_80(3), STR_77(3), STR_74(3), STR_71(3), 
  5010 ;;		 -> STR_68(3), STR_65(3), STR_62(3), STR_59(3), 
  5011 ;;		 -> STR_56(3), STR_55(3), STR_52(3), STR_51(3), 
  5012 ;;		 -> STR_48(3), STR_47(3), STR_44(3), STR_43(3), 
  5013 ;;		 -> STR_40(3), STR_39(3), STR_36(3), STR_35(3), 
  5014 ;;		 -> STR_32(3), STR_31(3), STR_28(3), STR_27(3), 
  5015 ;;		 -> STR_24(3), STR_23(3), STR_20(3), STR_19(3), 
  5016 ;;		 -> STR_16(3), STR_15(3), STR_12(3), STR_11(3), 
  5017 ;;		 -> STR_7(3), STR_6(3), 
  5018 ;; Auto vars:     Size  Location     Type
  5019 ;;  f               6    2[BANK0 ] struct _IO_FILE
  5020 ;;  ap              2    0[BANK0 ] PTR void [1]
  5021 ;;		 -> ?_sprintf(2), 
  5022 ;;  ret             2    0        int 
  5023 ;; Return value:  Size  Location     Type
  5024 ;;                  2   88[COMRAM] int 
  5025 ;; Registers used:
  5026 ;;		wreg, fsr1l, fsr1h, fsr2l, fsr2h, status,2, status,0, tblptrl, tblptrh, tblptru, cstack
  5027 ;; Tracked objects:
  5028 ;;		On entry : 0/0
  5029 ;;		On exit  : 0/0
  5030 ;;		Unchanged: 0/0
  5031 ;; Data sizes:     COMRAM   BANK0   BANK1   BANK2   BANK3   BANK4   BANK5   BANK6   BANK7
  5032 ;;      Params:         6       0       0       0       0       0       0       0       0
  5033 ;;      Locals:         0       8       0       0       0       0       0       0       0
  5034 ;;      Temps:          0       0       0       0       0       0       0       0       0
  5035 ;;      Totals:         6       8       0       0       0       0       0       0       0
  5036 ;;Total ram usage:       14 bytes
  5037 ;; Hardware stack levels used: 1
  5038 ;; Hardware stack levels required when called: 7
  5039 ;; This function calls:
  5040 ;;		_vfprintf
  5041 ;; This function is called by:
  5042 ;;		_init_mod_LoRa
  5043 ;;		_main
  5044 ;;		_test_LoRa
  5045 ;; This function uses a non-reentrant model
  5046 ;;
  5047                           
  5048                           	psect	text14
  5049  005F4E                     __ptext14:
  5050                           	callstack 0
  5051  005F4E                     _sprintf:
  5052                           	callstack 23
  5053  005F4E  0E5D               	movlw	low (?_sprintf+4)
  5054  005F50  0100               	movlb	0	; () banked
  5055  005F52  6F60               	movwf	sprintf@ap& (0+255),b
  5056  005F54  0E00               	movlw	high (?_sprintf+4)
  5057  005F56  6F61               	movwf	(sprintf@ap+1)& (0+255),b
  5058  005F58  C059  F062         	movff	sprintf@s,sprintf@f
  5059  005F5C  C05A  F063         	movff	sprintf@s+1,sprintf@f+1
  5060  005F60                     
  5061                           ; BSR set to: 0
  5062  005F60  0E00               	movlw	0
  5063  005F62  6F65               	movwf	(sprintf@f+3)& (0+255),b
  5064  005F64  0E00               	movlw	0
  5065  005F66  6F64               	movwf	(sprintf@f+2)& (0+255),b
  5066  005F68                     
  5067                           ; BSR set to: 0
  5068  005F68  0E00               	movlw	0
  5069  005F6A  6F67               	movwf	(sprintf@f+5)& (0+255),b
  5070  005F6C  0E00               	movlw	0
  5071  005F6E  6F66               	movwf	(sprintf@f+4)& (0+255),b
  5072  005F70                     
  5073                           ; BSR set to: 0
  5074  005F70  0E62               	movlw	low sprintf@f
  5075  005F72  6E51               	movwf	vfprintf@fp^0,c
  5076  005F74  0E00               	movlw	high sprintf@f
  5077  005F76  6E52               	movwf	(vfprintf@fp+1)^0,c
  5078  005F78  C05B  F053         	movff	sprintf@fmt,vfprintf@fmt
  5079  005F7C  C05C  F054         	movff	sprintf@fmt+1,vfprintf@fmt+1
  5080  005F80  0E60               	movlw	low sprintf@ap
  5081  005F82  6E55               	movwf	vfprintf@ap^0,c
  5082  005F84  0E00               	movlw	high sprintf@ap
  5083  005F86  6E56               	movwf	(vfprintf@ap+1)^0,c
  5084  005F88  ECD0  F02F         	call	_vfprintf	;wreg free
  5085  005F8C  0100               	movlb	0	; () banked
  5086  005F8E  5164               	movf	(sprintf@f+2)& (0+255),w,b
  5087  005F90  2459               	addwf	sprintf@s^0,w,c
  5088  005F92  6ED9               	movwf	fsr2l,c
  5089  005F94  5165               	movf	(sprintf@f+3)& (0+255),w,b
  5090  005F96  205A               	addwfc	(sprintf@s+1)^0,w,c
  5091  005F98  6EDA               	movwf	fsr2h,c
  5092  005F9A  0E00               	movlw	0
  5093  005F9C  6EDF               	movwf	indf2,c
  5094  005F9E                     
  5095                           ; BSR set to: 0
  5096  005F9E  0012               	return		;funcret
  5097  005FA0                     __end_of_sprintf:
  5098                           	callstack 0
  5099                           
  5100 ;; *************** function _vfprintf *****************
  5101 ;; Defined at:
  5102 ;;		line 1390 in file "C:\Program Files\Microchip\xc8\v2.32\pic\sources\c99\common\doprnt.c"
  5103 ;; Parameters:    Size  Location     Type
  5104 ;;  fp              2   80[COMRAM] PTR struct _IO_FILE
  5105 ;;		 -> sprintf@f(6), 
  5106 ;;  fmt             2   82[COMRAM] PTR const unsigned char 
  5107 ;;		 -> STR_93(3), STR_89(3), STR_86(3), STR_83(3), 
  5108 ;;		 -> STR_80(3), STR_77(3), STR_74(3), STR_71(3), 
  5109 ;;		 -> STR_68(3), STR_65(3), STR_62(3), STR_59(3), 
  5110 ;;		 -> STR_56(3), STR_55(3), STR_52(3), STR_51(3), 
  5111 ;;		 -> STR_48(3), STR_47(3), STR_44(3), STR_43(3), 
  5112 ;;		 -> STR_40(3), STR_39(3), STR_36(3), STR_35(3), 
  5113 ;;		 -> STR_32(3), STR_31(3), STR_28(3), STR_27(3), 
  5114 ;;		 -> STR_24(3), STR_23(3), STR_20(3), STR_19(3), 
  5115 ;;		 -> STR_16(3), STR_15(3), STR_12(3), STR_11(3), 
  5116 ;;		 -> STR_7(3), STR_6(3), 
  5117 ;;  ap              2   84[COMRAM] PTR PTR void 
  5118 ;;		 -> sprintf@ap(2), 
  5119 ;; Auto vars:     Size  Location     Type
  5120 ;;  cfmt            2   86[COMRAM] PTR unsigned char 
  5121 ;;		 -> STR_93(3), STR_89(3), STR_86(3), STR_83(3), 
  5122 ;;		 -> STR_80(3), STR_77(3), STR_74(3), STR_71(3), 
  5123 ;;		 -> STR_68(3), STR_65(3), STR_62(3), STR_59(3), 
  5124 ;;		 -> STR_56(3), STR_55(3), STR_52(3), STR_51(3), 
  5125 ;;		 -> STR_48(3), STR_47(3), STR_44(3), STR_43(3), 
  5126 ;;		 -> STR_40(3), STR_39(3), STR_36(3), STR_35(3), 
  5127 ;;		 -> STR_32(3), STR_31(3), STR_28(3), STR_27(3), 
  5128 ;;		 -> STR_24(3), STR_23(3), STR_20(3), STR_19(3), 
  5129 ;;		 -> STR_16(3), STR_15(3), STR_12(3), STR_11(3), 
  5130 ;;		 -> STR_7(3), STR_6(3), 
  5131 ;; Return value:  Size  Location     Type
  5132 ;;                  2   80[COMRAM] int 
  5133 ;; Registers used:
  5134 ;;		wreg, fsr1l, fsr1h, fsr2l, fsr2h, status,2, status,0, tblptrl, tblptrh, tblptru, cstack
  5135 ;; Tracked objects:
  5136 ;;		On entry : 0/0
  5137 ;;		On exit  : 0/0
  5138 ;;		Unchanged: 0/0
  5139 ;; Data sizes:     COMRAM   BANK0   BANK1   BANK2   BANK3   BANK4   BANK5   BANK6   BANK7
  5140 ;;      Params:         6       0       0       0       0       0       0       0       0
  5141 ;;      Locals:         2       0       0       0       0       0       0       0       0
  5142 ;;      Temps:          0       0       0       0       0       0       0       0       0
  5143 ;;      Totals:         8       0       0       0       0       0       0       0       0
  5144 ;;Total ram usage:        8 bytes
  5145 ;; Hardware stack levels used: 1
  5146 ;; Hardware stack levels required when called: 6
  5147 ;; This function calls:
  5148 ;;		_vfpfcnvrt
  5149 ;; This function is called by:
  5150 ;;		_sprintf
  5151 ;; This function uses a non-reentrant model
  5152 ;;
  5153                           
  5154                           	psect	text15
  5155  005FA0                     __ptext15:
  5156                           	callstack 0
  5157  005FA0                     _vfprintf:
  5158                           	callstack 23
  5159  005FA0  C053  F057         	movff	vfprintf@fmt,vfprintf@cfmt
  5160  005FA4  C054  F058         	movff	vfprintf@fmt+1,vfprintf@cfmt+1
  5161  005FA8  0E00               	movlw	0
  5162  005FAA  0100               	movlb	0	; () banked
  5163  005FAC  6F9F               	movwf	(_nout+1)& (0+255),b
  5164  005FAE  0E00               	movlw	0
  5165  005FB0  6F9E               	movwf	_nout& (0+255),b
  5166  005FB2  EFEE  F02F         	goto	l2700
  5167  005FB6                     l2698:
  5168                           
  5169                           ; BSR set to: 0
  5170  005FB6  C051  F040         	movff	vfprintf@fp,vfpfcnvrt@fp
  5171  005FBA  C052  F041         	movff	vfprintf@fp+1,vfpfcnvrt@fp+1
  5172  005FBE  0E57               	movlw	low vfprintf@cfmt
  5173  005FC0  6E42               	movwf	vfpfcnvrt@fmt^0,c
  5174  005FC2  0E00               	movlw	high vfprintf@cfmt
  5175  005FC4  6E43               	movwf	(vfpfcnvrt@fmt+1)^0,c
  5176  005FC6  C055  F044         	movff	vfprintf@ap,vfpfcnvrt@ap
  5177  005FCA  C056  F045         	movff	vfprintf@ap+1,vfpfcnvrt@ap+1
  5178  005FCE  EC67  F034         	call	_vfpfcnvrt	;wreg free
  5179  005FD2  5040               	movf	?_vfpfcnvrt^0,w,c
  5180  005FD4  0100               	movlb	0	; () banked
  5181  005FD6  279E               	addwf	_nout& (0+255),f,b
  5182  005FD8  5041               	movf	(?_vfpfcnvrt+1)^0,w,c
  5183  005FDA  239F               	addwfc	(_nout+1)& (0+255),f,b
  5184  005FDC                     l2700:
  5185                           
  5186                           ; BSR set to: 0
  5187  005FDC  C057  FFF6         	movff	vfprintf@cfmt,tblptrl
  5188  005FE0  C058  FFF7         	movff	vfprintf@cfmt+1,tblptrh
  5189  005FE4                     	if	0	;tblptru may be non-zero
  5190  005FE4                     	endif
  5191  005FE4                     	if	0	;tblptru may be non-zero
  5192  005FE4                     	endif
  5193  005FE4  0008               	tblrd		*
  5194  005FE6  50F5               	movf	tablat,w,c
  5195  005FE8  0900               	iorlw	0
  5196  005FEA  A4D8               	btfss	status,2,c
  5197  005FEC  EFFA  F02F         	goto	u1471
  5198  005FF0  EFFC  F02F         	goto	u1470
  5199  005FF4                     u1471:
  5200  005FF4  EFDB  F02F         	goto	l2698
  5201  005FF8                     u1470:
  5202  005FF8                     
  5203                           ; BSR set to: 0
  5204  005FF8  C09E  F051         	movff	_nout,?_vfprintf
  5205  005FFC  C09F  F052         	movff	_nout+1,?_vfprintf+1
  5206  006000                     
  5207                           ; BSR set to: 0
  5208  006000  0012               	return		;funcret
  5209  006002                     __end_of_vfprintf:
  5210                           	callstack 0
  5211                           
  5212 ;; *************** function _vfpfcnvrt *****************
  5213 ;; Defined at:
  5214 ;;		line 692 in file "C:\Program Files\Microchip\xc8\v2.32\pic\sources\c99\common\doprnt.c"
  5215 ;; Parameters:    Size  Location     Type
  5216 ;;  fp              2   63[COMRAM] PTR struct _IO_FILE
  5217 ;;		 -> sprintf@f(6), 
  5218 ;;  fmt             2   65[COMRAM] PTR PTR unsigned char 
  5219 ;;		 -> vfprintf@cfmt(2), 
  5220 ;;  ap              2   67[COMRAM] PTR PTR void 
  5221 ;;		 -> sprintf@ap(2), 
  5222 ;; Auto vars:     Size  Location     Type
  5223 ;;  ll              8   71[COMRAM] long long 
  5224 ;;  llu             8    0        unsigned long long 
  5225 ;;  f               4    0        unsigned long long 
  5226 ;;  vp              3    0        PTR void 
  5227 ;;  ct              3    0        unsigned char [3]
  5228 ;;  cp              3    0        PTR unsigned char 
  5229 ;;  i               2    0        int 
  5230 ;;  done            2    0        int 
  5231 ;;  c               1   79[COMRAM] unsigned char 
  5232 ;; Return value:  Size  Location     Type
  5233 ;;                  2   63[COMRAM] int 
  5234 ;; Registers used:
  5235 ;;		wreg, fsr1l, fsr1h, fsr2l, fsr2h, status,2, status,0, tblptrl, tblptrh, tblptru, cstack
  5236 ;; Tracked objects:
  5237 ;;		On entry : 0/0
  5238 ;;		On exit  : 0/0
  5239 ;;		Unchanged: 0/0
  5240 ;; Data sizes:     COMRAM   BANK0   BANK1   BANK2   BANK3   BANK4   BANK5   BANK6   BANK7
  5241 ;;      Params:         6       0       0       0       0       0       0       0       0
  5242 ;;      Locals:         9       0       0       0       0       0       0       0       0
  5243 ;;      Temps:          2       0       0       0       0       0       0       0       0
  5244 ;;      Totals:        17       0       0       0       0       0       0       0       0
  5245 ;;Total ram usage:       17 bytes
  5246 ;; Hardware stack levels used: 1
  5247 ;; Hardware stack levels required when called: 5
  5248 ;; This function calls:
  5249 ;;		_ctoa
  5250 ;;		_dtoa
  5251 ;;		_fputc
  5252 ;; This function is called by:
  5253 ;;		_vfprintf
  5254 ;; This function uses a non-reentrant model
  5255 ;;
  5256                           
  5257                           	psect	text16
  5258  0068CE                     __ptext16:
  5259                           	callstack 0
  5260  0068CE                     _vfpfcnvrt:
  5261                           	callstack 23
  5262  0068CE  C042  FFD9         	movff	vfpfcnvrt@fmt,fsr2l
  5263  0068D2  C043  FFDA         	movff	vfpfcnvrt@fmt+1,fsr2h
  5264  0068D6  CFDE FFF6          	movff	postinc2,tblptrl
  5265  0068DA  CFDD FFF7          	movff	postdec2,tblptrh
  5266  0068DE                     	if	0	;tblptru may be non-zero
  5267  0068DE                     	endif
  5268  0068DE                     	if	0	;tblptru may be non-zero
  5269  0068DE                     	endif
  5270  0068DE  0008               	tblrd		*
  5271  0068E0  50F5               	movf	tablat,w,c
  5272  0068E2  0A25               	xorlw	37
  5273  0068E4  A4D8               	btfss	status,2,c
  5274  0068E6  EF77  F034         	goto	u1401
  5275  0068EA  EF79  F034         	goto	u1400
  5276  0068EE                     u1401:
  5277  0068EE  EF5E  F035         	goto	l2644
  5278  0068F2                     u1400:
  5279  0068F2  C042  FFD9         	movff	vfpfcnvrt@fmt,fsr2l
  5280  0068F6  C043  FFDA         	movff	vfpfcnvrt@fmt+1,fsr2h
  5281  0068FA  2ADE               	incf	postinc2,f,c
  5282  0068FC  0E00               	movlw	0
  5283  0068FE  22DD               	addwfc	postdec2,f,c
  5284  006900  0E00               	movlw	0
  5285  006902  0100               	movlb	0	; () banked
  5286  006904  6FA1               	movwf	(_width+1)& (0+255),b
  5287  006906  0E00               	movlw	0
  5288  006908  6FA0               	movwf	_width& (0+255),b
  5289  00690A  C0A0  F0A4         	movff	_width,_flags
  5290  00690E  C0A1  F0A5         	movff	_width+1,_flags+1
  5291  006912                     
  5292                           ; BSR set to: 0
  5293  006912  69A2               	setf	_prec& (0+255),b
  5294  006914  69A3               	setf	(_prec+1)& (0+255),b
  5295  006916                     
  5296                           ; BSR set to: 0
  5297  006916  C042  FFD9         	movff	vfpfcnvrt@fmt,fsr2l
  5298  00691A  C043  FFDA         	movff	vfpfcnvrt@fmt+1,fsr2h
  5299  00691E  CFDE FFF6          	movff	postinc2,tblptrl
  5300  006922  CFDD FFF7          	movff	postdec2,tblptrh
  5301  006926                     	if	0	;tblptru may be non-zero
  5302  006926                     	endif
  5303  006926                     	if	0	;tblptru may be non-zero
  5304  006926                     	endif
  5305  006926  0008               	tblrd		*
  5306  006928  50F5               	movf	tablat,w,c
  5307  00692A  0A63               	xorlw	99
  5308  00692C  A4D8               	btfss	status,2,c
  5309  00692E  EF9B  F034         	goto	u1411
  5310  006932  EF9D  F034         	goto	u1410
  5311  006936                     u1411:
  5312  006936  EFC4  F034         	goto	l2618
  5313  00693A                     u1410:
  5314  00693A                     
  5315                           ; BSR set to: 0
  5316  00693A  C042  FFD9         	movff	vfpfcnvrt@fmt,fsr2l
  5317  00693E  C043  FFDA         	movff	vfpfcnvrt@fmt+1,fsr2h
  5318  006942  2ADE               	incf	postinc2,f,c
  5319  006944  0E00               	movlw	0
  5320  006946  22DD               	addwfc	postdec2,f,c
  5321  006948  C044  FFD9         	movff	vfpfcnvrt@ap,fsr2l
  5322  00694C  C045  FFDA         	movff	vfpfcnvrt@ap+1,fsr2h
  5323  006950  CFDF F046          	movff	indf2,??_vfpfcnvrt
  5324  006954  0E02               	movlw	2
  5325  006956  26DE               	addwf	postinc2,f,c
  5326  006958  CFDF F047          	movff	indf2,??_vfpfcnvrt+1
  5327  00695C  0E00               	movlw	0
  5328  00695E  22DD               	addwfc	postdec2,f,c
  5329  006960  C046  FFD9         	movff	??_vfpfcnvrt,fsr2l
  5330  006964  C047  FFDA         	movff	??_vfpfcnvrt+1,fsr2h
  5331  006968  50DF               	movf	indf2,w,c
  5332  00696A  6E50               	movwf	vfpfcnvrt@c^0,c
  5333  00696C                     
  5334                           ; BSR set to: 0
  5335  00696C  C040  F00A         	movff	vfpfcnvrt@fp,ctoa@fp
  5336  006970  C041  F00B         	movff	vfpfcnvrt@fp+1,ctoa@fp+1
  5337  006974  C050  F00C         	movff	vfpfcnvrt@c,ctoa@c
  5338  006978  EC85  F032         	call	_ctoa	;wreg free
  5339  00697C  C00A  F040         	movff	?_ctoa,?_vfpfcnvrt
  5340  006980  C00B  F041         	movff	?_ctoa+1,?_vfpfcnvrt+1
  5341  006984  EF79  F035         	goto	l1130
  5342  006988                     l2618:
  5343                           
  5344                           ; BSR set to: 0
  5345  006988  C042  FFD9         	movff	vfpfcnvrt@fmt,fsr2l
  5346  00698C  C043  FFDA         	movff	vfpfcnvrt@fmt+1,fsr2h
  5347  006990  CFDE FFF6          	movff	postinc2,tblptrl
  5348  006994  CFDD FFF7          	movff	postdec2,tblptrh
  5349  006998                     	if	0	;tblptru may be non-zero
  5350  006998                     	endif
  5351  006998                     	if	0	;tblptru may be non-zero
  5352  006998                     	endif
  5353  006998  0008               	tblrd		*
  5354  00699A  50F5               	movf	tablat,w,c
  5355  00699C  0A64               	xorlw	100
  5356  00699E  B4D8               	btfsc	status,2,c
  5357  0069A0  EFD4  F034         	goto	u1421
  5358  0069A4  EFD6  F034         	goto	u1420
  5359  0069A8                     u1421:
  5360  0069A8  EFE8  F034         	goto	l2622
  5361  0069AC                     u1420:
  5362  0069AC                     
  5363                           ; BSR set to: 0
  5364  0069AC  C042  FFD9         	movff	vfpfcnvrt@fmt,fsr2l
  5365  0069B0  C043  FFDA         	movff	vfpfcnvrt@fmt+1,fsr2h
  5366  0069B4  CFDE FFF6          	movff	postinc2,tblptrl
  5367  0069B8  CFDD FFF7          	movff	postdec2,tblptrh
  5368  0069BC                     	if	0	;tblptru may be non-zero
  5369  0069BC                     	endif
  5370  0069BC                     	if	0	;tblptru may be non-zero
  5371  0069BC                     	endif
  5372  0069BC  0008               	tblrd		*
  5373  0069BE  50F5               	movf	tablat,w,c
  5374  0069C0  0A69               	xorlw	105
  5375  0069C2  A4D8               	btfss	status,2,c
  5376  0069C4  EFE6  F034         	goto	u1431
  5377  0069C8  EFE8  F034         	goto	u1430
  5378  0069CC                     u1431:
  5379  0069CC  EF28  F035         	goto	l2628
  5380  0069D0                     u1430:
  5381  0069D0                     l2622:
  5382                           
  5383                           ; BSR set to: 0
  5384  0069D0  C042  FFD9         	movff	vfpfcnvrt@fmt,fsr2l
  5385  0069D4  C043  FFDA         	movff	vfpfcnvrt@fmt+1,fsr2h
  5386  0069D8  2ADE               	incf	postinc2,f,c
  5387  0069DA  0E00               	movlw	0
  5388  0069DC  22DD               	addwfc	postdec2,f,c
  5389  0069DE  C044  FFD9         	movff	vfpfcnvrt@ap,fsr2l
  5390  0069E2  C045  FFDA         	movff	vfpfcnvrt@ap+1,fsr2h
  5391  0069E6  CFDF F046          	movff	indf2,??_vfpfcnvrt
  5392  0069EA  0E02               	movlw	2
  5393  0069EC  26DE               	addwf	postinc2,f,c
  5394  0069EE  CFDF F047          	movff	indf2,??_vfpfcnvrt+1
  5395  0069F2  0E00               	movlw	0
  5396  0069F4  22DD               	addwfc	postdec2,f,c
  5397  0069F6  C046  FFD9         	movff	??_vfpfcnvrt,fsr2l
  5398  0069FA  C047  FFDA         	movff	??_vfpfcnvrt+1,fsr2h
  5399  0069FE  CFDE F048          	movff	postinc2,vfpfcnvrt@ll
  5400  006A02  CFDD F049          	movff	postdec2,vfpfcnvrt@ll+1
  5401  006A06  0E00               	movlw	0
  5402  006A08  BE49               	btfsc	(vfpfcnvrt@ll+1)^0,7,c
  5403  006A0A  0EFF               	movlw	-1
  5404  006A0C  6E4A               	movwf	(vfpfcnvrt@ll+2)^0,c
  5405  006A0E  6E4B               	movwf	(vfpfcnvrt@ll+3)^0,c
  5406  006A10  6E4C               	movwf	(vfpfcnvrt@ll+4)^0,c
  5407  006A12  6E4D               	movwf	(vfpfcnvrt@ll+5)^0,c
  5408  006A14  6E4E               	movwf	(vfpfcnvrt@ll+6)^0,c
  5409  006A16  6E4F               	movwf	(vfpfcnvrt@ll+7)^0,c
  5410  006A18                     
  5411                           ; BSR set to: 0
  5412  006A18  C040  F01C         	movff	vfpfcnvrt@fp,dtoa@fp
  5413  006A1C  C041  F01D         	movff	vfpfcnvrt@fp+1,dtoa@fp+1
  5414  006A20  C048  F01E         	movff	vfpfcnvrt@ll,dtoa@d
  5415  006A24  C049  F01F         	movff	vfpfcnvrt@ll+1,dtoa@d+1
  5416  006A28  C04A  F020         	movff	vfpfcnvrt@ll+2,dtoa@d+2
  5417  006A2C  C04B  F021         	movff	vfpfcnvrt@ll+3,dtoa@d+3
  5418  006A30  C04C  F022         	movff	vfpfcnvrt@ll+4,dtoa@d+4
  5419  006A34  C04D  F023         	movff	vfpfcnvrt@ll+5,dtoa@d+5
  5420  006A38  C04E  F024         	movff	vfpfcnvrt@ll+6,dtoa@d+6
  5421  006A3C  C04F  F025         	movff	vfpfcnvrt@ll+7,dtoa@d+7
  5422  006A40  EC7A  F035         	call	_dtoa	;wreg free
  5423  006A44  C01C  F040         	movff	?_dtoa,?_vfpfcnvrt
  5424  006A48  C01D  F041         	movff	?_dtoa+1,?_vfpfcnvrt+1
  5425  006A4C  EF79  F035         	goto	l1130
  5426  006A50                     l2628:
  5427                           
  5428                           ; BSR set to: 0
  5429  006A50  C042  FFD9         	movff	vfpfcnvrt@fmt,fsr2l
  5430  006A54  C043  FFDA         	movff	vfpfcnvrt@fmt+1,fsr2h
  5431  006A58  CFDE FFF6          	movff	postinc2,tblptrl
  5432  006A5C  CFDD FFF7          	movff	postdec2,tblptrh
  5433  006A60                     	if	0	;tblptru may be non-zero
  5434  006A60                     	endif
  5435  006A60                     	if	0	;tblptru may be non-zero
  5436  006A60                     	endif
  5437  006A60  0008               	tblrd		*
  5438  006A62  50F5               	movf	tablat,w,c
  5439  006A64  0A25               	xorlw	37
  5440  006A66  A4D8               	btfss	status,2,c
  5441  006A68  EF38  F035         	goto	u1441
  5442  006A6C  EF3A  F035         	goto	u1440
  5443  006A70                     u1441:
  5444  006A70  EF51  F035         	goto	l2638
  5445  006A74                     u1440:
  5446  006A74                     
  5447                           ; BSR set to: 0
  5448  006A74  C042  FFD9         	movff	vfpfcnvrt@fmt,fsr2l
  5449  006A78  C043  FFDA         	movff	vfpfcnvrt@fmt+1,fsr2h
  5450  006A7C  2ADE               	incf	postinc2,f,c
  5451  006A7E  0E00               	movlw	0
  5452  006A80  22DD               	addwfc	postdec2,f,c
  5453  006A82                     
  5454                           ; BSR set to: 0
  5455  006A82  0E00               	movlw	0
  5456  006A84  6E02               	movwf	(fputc@c+1)^0,c
  5457  006A86  0E25               	movlw	37
  5458  006A88  6E01               	movwf	fputc@c^0,c
  5459  006A8A  C040  F003         	movff	vfpfcnvrt@fp,fputc@fp
  5460  006A8E  C041  F004         	movff	vfpfcnvrt@fp+1,fputc@fp+1
  5461  006A92  EC20  F032         	call	_fputc	;wreg free
  5462  006A96                     l2634:
  5463  006A96  0E00               	movlw	0
  5464  006A98  6E41               	movwf	(?_vfpfcnvrt+1)^0,c
  5465  006A9A  0E01               	movlw	1
  5466  006A9C  6E40               	movwf	?_vfpfcnvrt^0,c
  5467  006A9E  EF79  F035         	goto	l1130
  5468  006AA2                     l2638:
  5469                           
  5470                           ; BSR set to: 0
  5471  006AA2  C042  FFD9         	movff	vfpfcnvrt@fmt,fsr2l
  5472  006AA6  C043  FFDA         	movff	vfpfcnvrt@fmt+1,fsr2h
  5473  006AAA  2ADE               	incf	postinc2,f,c
  5474  006AAC  0E00               	movlw	0
  5475  006AAE  22DD               	addwfc	postdec2,f,c
  5476  006AB0                     
  5477                           ; BSR set to: 0
  5478  006AB0  0E00               	movlw	0
  5479  006AB2  6E41               	movwf	(?_vfpfcnvrt+1)^0,c
  5480  006AB4  0E00               	movlw	0
  5481  006AB6  6E40               	movwf	?_vfpfcnvrt^0,c
  5482  006AB8  EF79  F035         	goto	l1130
  5483  006ABC                     l2644:
  5484  006ABC  C042  FFD9         	movff	vfpfcnvrt@fmt,fsr2l
  5485  006AC0  C043  FFDA         	movff	vfpfcnvrt@fmt+1,fsr2h
  5486  006AC4  CFDE FFF6          	movff	postinc2,tblptrl
  5487  006AC8  CFDD FFF7          	movff	postdec2,tblptrh
  5488  006ACC                     	if	0	;tblptru may be non-zero
  5489  006ACC                     	endif
  5490  006ACC                     	if	0	;tblptru may be non-zero
  5491  006ACC                     	endif
  5492  006ACC  0008               	tblrd		*
  5493  006ACE  50F5               	movf	tablat,w,c
  5494  006AD0  6E01               	movwf	fputc@c^0,c
  5495  006AD2  6A02               	clrf	(fputc@c+1)^0,c
  5496  006AD4  C040  F003         	movff	vfpfcnvrt@fp,fputc@fp
  5497  006AD8  C041  F004         	movff	vfpfcnvrt@fp+1,fputc@fp+1
  5498  006ADC  EC20  F032         	call	_fputc	;wreg free
  5499  006AE0  C042  FFD9         	movff	vfpfcnvrt@fmt,fsr2l
  5500  006AE4  C043  FFDA         	movff	vfpfcnvrt@fmt+1,fsr2h
  5501  006AE8  2ADE               	incf	postinc2,f,c
  5502  006AEA  0E00               	movlw	0
  5503  006AEC  22DD               	addwfc	postdec2,f,c
  5504  006AEE  EF4B  F035         	goto	l2634
  5505  006AF2                     l1130:
  5506  006AF2  0012               	return		;funcret
  5507  006AF4                     __end_of_vfpfcnvrt:
  5508                           	callstack 0
  5509                           
  5510 ;; *************** function _dtoa *****************
  5511 ;; Defined at:
  5512 ;;		line 287 in file "C:\Program Files\Microchip\xc8\v2.32\pic\sources\c99\common\doprnt.c"
  5513 ;; Parameters:    Size  Location     Type
  5514 ;;  fp              2   27[COMRAM] PTR struct _IO_FILE
  5515 ;;		 -> sprintf@f(6), 
  5516 ;;  d               8   29[COMRAM] long long 
  5517 ;; Auto vars:     Size  Location     Type
  5518 ;;  n               8   53[COMRAM] long long 
  5519 ;;  i               2   61[COMRAM] int 
  5520 ;;  s               2   51[COMRAM] int 
  5521 ;;  w               2   49[COMRAM] int 
  5522 ;;  p               2   47[COMRAM] int 
  5523 ;; Return value:  Size  Location     Type
  5524 ;;                  2   27[COMRAM] int 
  5525 ;; Registers used:
  5526 ;;		wreg, fsr1l, fsr1h, fsr2l, fsr2h, status,2, status,0, cstack
  5527 ;; Tracked objects:
  5528 ;;		On entry : 0/0
  5529 ;;		On exit  : 0/0
  5530 ;;		Unchanged: 0/0
  5531 ;; Data sizes:     COMRAM   BANK0   BANK1   BANK2   BANK3   BANK4   BANK5   BANK6   BANK7
  5532 ;;      Params:        10       0       0       0       0       0       0       0       0
  5533 ;;      Locals:        18       0       0       0       0       0       0       0       0
  5534 ;;      Temps:          8       0       0       0       0       0       0       0       0
  5535 ;;      Totals:        36       0       0       0       0       0       0       0       0
  5536 ;;Total ram usage:       36 bytes
  5537 ;; Hardware stack levels used: 1
  5538 ;; Hardware stack levels required when called: 4
  5539 ;; This function calls:
  5540 ;;		___aodiv
  5541 ;;		___aomod
  5542 ;;		_abs
  5543 ;;		_pad
  5544 ;; This function is called by:
  5545 ;;		_vfpfcnvrt
  5546 ;; This function uses a non-reentrant model
  5547 ;;
  5548                           
  5549                           	psect	text17
  5550  006AF4                     __ptext17:
  5551                           	callstack 0
  5552  006AF4                     _dtoa:
  5553                           	callstack 23
  5554  006AF4  C01E  F036         	movff	dtoa@d,dtoa@n
  5555  006AF8  C01F  F037         	movff	dtoa@d+1,dtoa@n+1
  5556  006AFC  C020  F038         	movff	dtoa@d+2,dtoa@n+2
  5557  006B00  C021  F039         	movff	dtoa@d+3,dtoa@n+3
  5558  006B04  C022  F03A         	movff	dtoa@d+4,dtoa@n+4
  5559  006B08  C023  F03B         	movff	dtoa@d+5,dtoa@n+5
  5560  006B0C  C024  F03C         	movff	dtoa@d+6,dtoa@n+6
  5561  006B10  C025  F03D         	movff	dtoa@d+7,dtoa@n+7
  5562  006B14  BE3D               	btfsc	(dtoa@n+7)^0,7,c
  5563  006B16  EF8F  F035         	goto	u1241
  5564  006B1A  EF92  F035         	goto	u1240
  5565  006B1E                     u1241:
  5566  006B1E  0E01               	movlw	1
  5567  006B20  EF93  F035         	goto	u1250
  5568  006B24                     u1240:
  5569  006B24  0E00               	movlw	0
  5570  006B26                     u1250:
  5571  006B26  6E34               	movwf	dtoa@s^0,c
  5572  006B28  6A35               	clrf	(dtoa@s+1)^0,c
  5573  006B2A  5034               	movf	dtoa@s^0,w,c
  5574  006B2C  1035               	iorwf	(dtoa@s+1)^0,w,c
  5575  006B2E  B4D8               	btfsc	status,2,c
  5576  006B30  EF9C  F035         	goto	u1261
  5577  006B34  EF9E  F035         	goto	u1260
  5578  006B38                     u1261:
  5579  006B38  EFAE  F035         	goto	l2530
  5580  006B3C                     u1260:
  5581  006B3C  1E3D               	comf	(dtoa@n+7)^0,f,c
  5582  006B3E  1E3C               	comf	(dtoa@n+6)^0,f,c
  5583  006B40  1E3B               	comf	(dtoa@n+5)^0,f,c
  5584  006B42  1E3A               	comf	(dtoa@n+4)^0,f,c
  5585  006B44  1E39               	comf	(dtoa@n+3)^0,f,c
  5586  006B46  1E38               	comf	(dtoa@n+2)^0,f,c
  5587  006B48  1E37               	comf	(dtoa@n+1)^0,f,c
  5588  006B4A  6C36               	negf	dtoa@n^0,c
  5589  006B4C  0E00               	movlw	0
  5590  006B4E  2237               	addwfc	(dtoa@n+1)^0,f,c
  5591  006B50  2238               	addwfc	(dtoa@n+2)^0,f,c
  5592  006B52  2239               	addwfc	(dtoa@n+3)^0,f,c
  5593  006B54  223A               	addwfc	(dtoa@n+4)^0,f,c
  5594  006B56  223B               	addwfc	(dtoa@n+5)^0,f,c
  5595  006B58  223C               	addwfc	(dtoa@n+6)^0,f,c
  5596  006B5A  223D               	addwfc	(dtoa@n+7)^0,f,c
  5597  006B5C                     l2530:
  5598  006B5C  0100               	movlb	0	; () banked
  5599  006B5E  BFA3               	btfsc	(_prec+1)& (0+255),7,b
  5600  006B60  EFB4  F035         	goto	u1271
  5601  006B64  EFB6  F035         	goto	u1270
  5602  006B68                     u1271:
  5603  006B68  EFB7  F035         	goto	l2534
  5604  006B6C                     u1270:
  5605  006B6C                     
  5606                           ; BSR set to: 0
  5607  006B6C  93A4               	bcf	_flags& (0+255),1,b
  5608  006B6E                     l2534:
  5609                           
  5610                           ; BSR set to: 0
  5611  006B6E  BFA3               	btfsc	(_prec+1)& (0+255),7,b
  5612  006B70  EFC4  F035         	goto	u1280
  5613  006B74  51A3               	movf	(_prec+1)& (0+255),w,b
  5614  006B76  E106               	bnz	u1281
  5615  006B78  05A2               	decf	_prec& (0+255),w,b
  5616  006B7A  B0D8               	btfsc	status,0,c
  5617  006B7C  EFC2  F035         	goto	u1281
  5618  006B80  EFC4  F035         	goto	u1280
  5619  006B84                     u1281:
  5620  006B84  EFCA  F035         	goto	l1105
  5621  006B88                     u1280:
  5622  006B88                     
  5623                           ; BSR set to: 0
  5624  006B88  0E00               	movlw	0
  5625  006B8A  6E31               	movwf	(dtoa@p+1)^0,c
  5626  006B8C  0E01               	movlw	1
  5627  006B8E  6E30               	movwf	dtoa@p^0,c
  5628  006B90  EFCE  F035         	goto	l1107
  5629  006B94                     l1105:
  5630                           
  5631                           ; BSR set to: 0
  5632  006B94  C0A2  F030         	movff	_prec,dtoa@p
  5633  006B98  C0A3  F031         	movff	_prec+1,dtoa@p+1
  5634  006B9C                     l1107:
  5635                           
  5636                           ; BSR set to: 0
  5637  006B9C  C0A0  F032         	movff	_width,dtoa@w
  5638  006BA0  C0A1  F033         	movff	_width+1,dtoa@w+1
  5639  006BA4                     
  5640                           ; BSR set to: 0
  5641  006BA4  5034               	movf	dtoa@s^0,w,c
  5642  006BA6  1035               	iorwf	(dtoa@s+1)^0,w,c
  5643  006BA8  A4D8               	btfss	status,2,c
  5644  006BAA  EFD9  F035         	goto	u1291
  5645  006BAE  EFDB  F035         	goto	u1290
  5646  006BB2                     u1291:
  5647  006BB2  EFE2  F035         	goto	l2542
  5648  006BB6                     u1290:
  5649  006BB6                     
  5650                           ; BSR set to: 0
  5651  006BB6  A5A4               	btfss	_flags& (0+255),2,b
  5652  006BB8  EFE0  F035         	goto	u1301
  5653  006BBC  EFE2  F035         	goto	u1300
  5654  006BC0                     u1301:
  5655  006BC0  EFE5  F035         	goto	l2544
  5656  006BC4                     u1300:
  5657  006BC4                     l2542:
  5658                           
  5659                           ; BSR set to: 0
  5660  006BC4  0632               	decf	dtoa@w^0,f,c
  5661  006BC6  A0D8               	btfss	status,0,c
  5662  006BC8  0633               	decf	(dtoa@w+1)^0,f,c
  5663  006BCA                     l2544:
  5664                           
  5665                           ; BSR set to: 0
  5666  006BCA  0E00               	movlw	0
  5667  006BCC  6E3F               	movwf	(dtoa@i+1)^0,c
  5668  006BCE  0E1F               	movlw	31
  5669  006BD0  6E3E               	movwf	dtoa@i^0,c
  5670  006BD2                     
  5671                           ; BSR set to: 0
  5672  006BD2  0E00               	movlw	0
  5673  006BD4  6FCE               	movwf	(_dbuf+31)& (0+255),b
  5674  006BD6  EF69  F036         	goto	l2558
  5675  006BDA                     l2548:
  5676  006BDA  063E               	decf	dtoa@i^0,f,c
  5677  006BDC  A0D8               	btfss	status,0,c
  5678  006BDE  063F               	decf	(dtoa@i+1)^0,f,c
  5679  006BE0  0EAF               	movlw	low _dbuf
  5680  006BE2  243E               	addwf	dtoa@i^0,w,c
  5681  006BE4  6ED9               	movwf	fsr2l,c
  5682  006BE6  0E00               	movlw	high _dbuf
  5683  006BE8  203F               	addwfc	(dtoa@i+1)^0,w,c
  5684  006BEA  6EDA               	movwf	fsr2h,c
  5685  006BEC  C036  F001         	movff	dtoa@n,___aomod@dividend
  5686  006BF0  C037  F002         	movff	dtoa@n+1,___aomod@dividend+1
  5687  006BF4  C038  F003         	movff	dtoa@n+2,___aomod@dividend+2
  5688  006BF8  C039  F004         	movff	dtoa@n+3,___aomod@dividend+3
  5689  006BFC  C03A  F005         	movff	dtoa@n+4,___aomod@dividend+4
  5690  006C00  C03B  F006         	movff	dtoa@n+5,___aomod@dividend+5
  5691  006C04  C03C  F007         	movff	dtoa@n+6,___aomod@dividend+6
  5692  006C08  C03D  F008         	movff	dtoa@n+7,___aomod@dividend+7
  5693  006C0C  0E0A               	movlw	10
  5694  006C0E  6E09               	movwf	___aomod@divisor^0,c
  5695  006C10  0E00               	movlw	0
  5696  006C12  6E0A               	movwf	(___aomod@divisor+1)^0,c
  5697  006C14  0E00               	movlw	0
  5698  006C16  6E0B               	movwf	(___aomod@divisor+2)^0,c
  5699  006C18  0E00               	movlw	0
  5700  006C1A  6E0C               	movwf	(___aomod@divisor+3)^0,c
  5701  006C1C  0E00               	movlw	0
  5702  006C1E  6E0D               	movwf	(___aomod@divisor+4)^0,c
  5703  006C20  0E00               	movlw	0
  5704  006C22  6E0E               	movwf	(___aomod@divisor+5)^0,c
  5705  006C24  0E00               	movlw	0
  5706  006C26  6E0F               	movwf	(___aomod@divisor+6)^0,c
  5707  006C28  0E00               	movlw	0
  5708  006C2A  6E10               	movwf	(___aomod@divisor+7)^0,c
  5709  006C2C  ECF1  F032         	call	___aomod	;wreg free
  5710  006C30  C001  F026         	movff	?___aomod,??_dtoa
  5711  006C34  C002  F027         	movff	?___aomod+1,??_dtoa+1
  5712  006C38  C003  F028         	movff	?___aomod+2,??_dtoa+2
  5713  006C3C  C004  F029         	movff	?___aomod+3,??_dtoa+3
  5714  006C40  C005  F02A         	movff	?___aomod+4,??_dtoa+4
  5715  006C44  C006  F02B         	movff	?___aomod+5,??_dtoa+5
  5716  006C48  C007  F02C         	movff	?___aomod+6,??_dtoa+6
  5717  006C4C  C008  F02D         	movff	?___aomod+7,??_dtoa+7
  5718  006C50  C026  F013         	movff	??_dtoa,abs@a
  5719  006C54  C028  F014         	movff	??_dtoa+2,abs@a+1
  5720  006C58  EC65  F02F         	call	_abs	;wreg free
  5721  006C5C  5013               	movf	?_abs^0,w,c
  5722  006C5E  0F30               	addlw	48
  5723  006C60  6EDF               	movwf	indf2,c
  5724  006C62  0630               	decf	dtoa@p^0,f,c
  5725  006C64  A0D8               	btfss	status,0,c
  5726  006C66  0631               	decf	(dtoa@p+1)^0,f,c
  5727  006C68  0632               	decf	dtoa@w^0,f,c
  5728  006C6A  A0D8               	btfss	status,0,c
  5729  006C6C  0633               	decf	(dtoa@w+1)^0,f,c
  5730  006C6E  C036  F001         	movff	dtoa@n,___aodiv@dividend
  5731  006C72  C037  F002         	movff	dtoa@n+1,___aodiv@dividend+1
  5732  006C76  C038  F003         	movff	dtoa@n+2,___aodiv@dividend+2
  5733  006C7A  C039  F004         	movff	dtoa@n+3,___aodiv@dividend+3
  5734  006C7E  C03A  F005         	movff	dtoa@n+4,___aodiv@dividend+4
  5735  006C82  C03B  F006         	movff	dtoa@n+5,___aodiv@dividend+5
  5736  006C86  C03C  F007         	movff	dtoa@n+6,___aodiv@dividend+6
  5737  006C8A  C03D  F008         	movff	dtoa@n+7,___aodiv@dividend+7
  5738  006C8E  0E0A               	movlw	10
  5739  006C90  6E09               	movwf	___aodiv@divisor^0,c
  5740  006C92  0E00               	movlw	0
  5741  006C94  6E0A               	movwf	(___aodiv@divisor+1)^0,c
  5742  006C96  0E00               	movlw	0
  5743  006C98  6E0B               	movwf	(___aodiv@divisor+2)^0,c
  5744  006C9A  0E00               	movlw	0
  5745  006C9C  6E0C               	movwf	(___aodiv@divisor+3)^0,c
  5746  006C9E  0E00               	movlw	0
  5747  006CA0  6E0D               	movwf	(___aodiv@divisor+4)^0,c
  5748  006CA2  0E00               	movlw	0
  5749  006CA4  6E0E               	movwf	(___aodiv@divisor+5)^0,c
  5750  006CA6  0E00               	movlw	0
  5751  006CA8  6E0F               	movwf	(___aodiv@divisor+6)^0,c
  5752  006CAA  0E00               	movlw	0
  5753  006CAC  6E10               	movwf	(___aodiv@divisor+7)^0,c
  5754  006CAE  ECA3  F033         	call	___aodiv	;wreg free
  5755  006CB2  C001  F036         	movff	?___aodiv,dtoa@n
  5756  006CB6  C002  F037         	movff	?___aodiv+1,dtoa@n+1
  5757  006CBA  C003  F038         	movff	?___aodiv+2,dtoa@n+2
  5758  006CBE  C004  F039         	movff	?___aodiv+3,dtoa@n+3
  5759  006CC2  C005  F03A         	movff	?___aodiv+4,dtoa@n+4
  5760  006CC6  C006  F03B         	movff	?___aodiv+5,dtoa@n+5
  5761  006CCA  C007  F03C         	movff	?___aodiv+6,dtoa@n+6
  5762  006CCE  C008  F03D         	movff	?___aodiv+7,dtoa@n+7
  5763  006CD2                     l2558:
  5764  006CD2  BE3F               	btfsc	(dtoa@i+1)^0,7,c
  5765  006CD4  EF74  F036         	goto	u1311
  5766  006CD8  503F               	movf	(dtoa@i+1)^0,w,c
  5767  006CDA  E108               	bnz	u1310
  5768  006CDC  043E               	decf	dtoa@i^0,w,c
  5769  006CDE  A0D8               	btfss	status,0,c
  5770  006CE0  EF74  F036         	goto	u1311
  5771  006CE4  EF76  F036         	goto	u1310
  5772  006CE8                     u1311:
  5773  006CE8  EFA7  F036         	goto	l2568
  5774  006CEC                     u1310:
  5775  006CEC  5036               	movf	dtoa@n^0,w,c
  5776  006CEE  1037               	iorwf	(dtoa@n+1)^0,w,c
  5777  006CF0  1038               	iorwf	(dtoa@n+2)^0,w,c
  5778  006CF2  1039               	iorwf	(dtoa@n+3)^0,w,c
  5779  006CF4  103A               	iorwf	(dtoa@n+4)^0,w,c
  5780  006CF6  103B               	iorwf	(dtoa@n+5)^0,w,c
  5781  006CF8  103C               	iorwf	(dtoa@n+6)^0,w,c
  5782  006CFA  103D               	iorwf	(dtoa@n+7)^0,w,c
  5783  006CFC  A4D8               	btfss	status,2,c
  5784  006CFE  EF83  F036         	goto	u1321
  5785  006D02  EF85  F036         	goto	u1320
  5786  006D06                     u1321:
  5787  006D06  EFED  F035         	goto	l2548
  5788  006D0A                     u1320:
  5789  006D0A  BE31               	btfsc	(dtoa@p+1)^0,7,c
  5790  006D0C  EF92  F036         	goto	u1330
  5791  006D10  5031               	movf	(dtoa@p+1)^0,w,c
  5792  006D12  E106               	bnz	u1331
  5793  006D14  0430               	decf	dtoa@p^0,w,c
  5794  006D16  B0D8               	btfsc	status,0,c
  5795  006D18  EF90  F036         	goto	u1331
  5796  006D1C  EF92  F036         	goto	u1330
  5797  006D20                     u1331:
  5798  006D20  EFED  F035         	goto	l2548
  5799  006D24                     u1330:
  5800  006D24  BE33               	btfsc	(dtoa@w+1)^0,7,c
  5801  006D26  EF9D  F036         	goto	u1341
  5802  006D2A  5033               	movf	(dtoa@w+1)^0,w,c
  5803  006D2C  E108               	bnz	u1340
  5804  006D2E  0432               	decf	dtoa@w^0,w,c
  5805  006D30  A0D8               	btfss	status,0,c
  5806  006D32  EF9D  F036         	goto	u1341
  5807  006D36  EF9F  F036         	goto	u1340
  5808  006D3A                     u1341:
  5809  006D3A  EFA7  F036         	goto	l2568
  5810  006D3E                     u1340:
  5811  006D3E  0100               	movlb	0	; () banked
  5812  006D40  B3A4               	btfsc	_flags& (0+255),1,b
  5813  006D42  EFA5  F036         	goto	u1351
  5814  006D46  EFA7  F036         	goto	u1350
  5815  006D4A                     u1351:
  5816  006D4A  EFED  F035         	goto	l2548
  5817  006D4E                     u1350:
  5818  006D4E                     l2568:
  5819  006D4E  5034               	movf	dtoa@s^0,w,c
  5820  006D50  1035               	iorwf	(dtoa@s+1)^0,w,c
  5821  006D52  A4D8               	btfss	status,2,c
  5822  006D54  EFAE  F036         	goto	u1361
  5823  006D58  EFB0  F036         	goto	u1360
  5824  006D5C                     u1361:
  5825  006D5C  EFB8  F036         	goto	l2572
  5826  006D60                     u1360:
  5827  006D60  0100               	movlb	0	; () banked
  5828  006D62  A5A4               	btfss	_flags& (0+255),2,b
  5829  006D64  EFB6  F036         	goto	u1371
  5830  006D68  EFB8  F036         	goto	u1370
  5831  006D6C                     u1371:
  5832  006D6C  EFD6  F036         	goto	l2582
  5833  006D70                     u1370:
  5834  006D70                     l2572:
  5835  006D70  063E               	decf	dtoa@i^0,f,c
  5836  006D72  A0D8               	btfss	status,0,c
  5837  006D74  063F               	decf	(dtoa@i+1)^0,f,c
  5838  006D76  5034               	movf	dtoa@s^0,w,c
  5839  006D78  1035               	iorwf	(dtoa@s+1)^0,w,c
  5840  006D7A  A4D8               	btfss	status,2,c
  5841  006D7C  EFC2  F036         	goto	u1381
  5842  006D80  EFC4  F036         	goto	u1380
  5843  006D84                     u1381:
  5844  006D84  EFCA  F036         	goto	l2578
  5845  006D88                     u1380:
  5846  006D88  0E00               	movlw	0
  5847  006D8A  6E2F               	movwf	(_dtoa$1634+1)^0,c
  5848  006D8C  0E2B               	movlw	43
  5849  006D8E  6E2E               	movwf	_dtoa$1634^0,c
  5850  006D90  EFCE  F036         	goto	l2580
  5851  006D94                     l2578:
  5852  006D94  0E00               	movlw	0
  5853  006D96  6E2F               	movwf	(_dtoa$1634+1)^0,c
  5854  006D98  0E2D               	movlw	45
  5855  006D9A  6E2E               	movwf	_dtoa$1634^0,c
  5856  006D9C                     l2580:
  5857  006D9C  0EAF               	movlw	low _dbuf
  5858  006D9E  243E               	addwf	dtoa@i^0,w,c
  5859  006DA0  6ED9               	movwf	fsr2l,c
  5860  006DA2  0E00               	movlw	high _dbuf
  5861  006DA4  203F               	addwfc	(dtoa@i+1)^0,w,c
  5862  006DA6  6EDA               	movwf	fsr2h,c
  5863  006DA8  C02E  FFDF         	movff	_dtoa$1634,indf2
  5864  006DAC                     l2582:
  5865  006DAC  C01C  F011         	movff	dtoa@fp,pad@fp
  5866  006DB0  C01D  F012         	movff	dtoa@fp+1,pad@fp+1
  5867  006DB4  0EAF               	movlw	low _dbuf
  5868  006DB6  243E               	addwf	dtoa@i^0,w,c
  5869  006DB8  6E13               	movwf	pad@buf^0,c
  5870  006DBA  0E00               	movlw	high _dbuf
  5871  006DBC  203F               	addwfc	(dtoa@i+1)^0,w,c
  5872  006DBE  6E14               	movwf	(pad@buf+1)^0,c
  5873  006DC0  C032  F015         	movff	dtoa@w,pad@p
  5874  006DC4  C033  F016         	movff	dtoa@w+1,pad@p+1
  5875  006DC8  ECBD  F031         	call	_pad	;wreg free
  5876  006DCC  C011  F01C         	movff	?_pad,?_dtoa
  5877  006DD0  C012  F01D         	movff	?_pad+1,?_dtoa+1
  5878  006DD4  0012               	return		;funcret
  5879  006DD6                     __end_of_dtoa:
  5880                           	callstack 0
  5881                           
  5882 ;; *************** function _pad *****************
  5883 ;; Defined at:
  5884 ;;		line 72 in file "C:\Program Files\Microchip\xc8\v2.32\pic\sources\c99\common\doprnt.c"
  5885 ;; Parameters:    Size  Location     Type
  5886 ;;  fp              2   16[COMRAM] PTR struct _IO_FILE
  5887 ;;		 -> sprintf@f(6), 
  5888 ;;  buf             2   18[COMRAM] PTR unsigned char 
  5889 ;;		 -> dbuf(32), 
  5890 ;;  p               2   20[COMRAM] int 
  5891 ;; Auto vars:     Size  Location     Type
  5892 ;;  w               2   25[COMRAM] int 
  5893 ;;  i               2   23[COMRAM] int 
  5894 ;; Return value:  Size  Location     Type
  5895 ;;                  2   16[COMRAM] int 
  5896 ;; Registers used:
  5897 ;;		wreg, fsr1l, fsr1h, fsr2l, fsr2h, status,2, status,0, cstack
  5898 ;; Tracked objects:
  5899 ;;		On entry : 0/0
  5900 ;;		On exit  : 0/0
  5901 ;;		Unchanged: 0/0
  5902 ;; Data sizes:     COMRAM   BANK0   BANK1   BANK2   BANK3   BANK4   BANK5   BANK6   BANK7
  5903 ;;      Params:         6       0       0       0       0       0       0       0       0
  5904 ;;      Locals:         4       0       0       0       0       0       0       0       0
  5905 ;;      Temps:          1       0       0       0       0       0       0       0       0
  5906 ;;      Totals:        11       0       0       0       0       0       0       0       0
  5907 ;;Total ram usage:       11 bytes
  5908 ;; Hardware stack levels used: 1
  5909 ;; Hardware stack levels required when called: 3
  5910 ;; This function calls:
  5911 ;;		_fputc
  5912 ;;		_fputs
  5913 ;;		_strlen
  5914 ;; This function is called by:
  5915 ;;		_dtoa
  5916 ;; This function uses a non-reentrant model
  5917 ;;
  5918                           
  5919                           	psect	text18
  5920  00637A                     __ptext18:
  5921                           	callstack 0
  5922  00637A                     _pad:
  5923                           	callstack 23
  5924  00637A  0100               	movlb	0	; () banked
  5925  00637C  A1A4               	btfss	_flags& (0+255),0,b
  5926  00637E  EFC3  F031         	goto	u1141
  5927  006382  EFC5  F031         	goto	u1140
  5928  006386                     u1141:
  5929  006386  EFCF  F031         	goto	l2450
  5930  00638A                     u1140:
  5931  00638A                     
  5932                           ; BSR set to: 0
  5933  00638A  C013  F00A         	movff	pad@buf,fputs@s
  5934  00638E  C014  F00B         	movff	pad@buf+1,fputs@s+1
  5935  006392  C011  F00C         	movff	pad@fp,fputs@fp
  5936  006396  C012  F00D         	movff	pad@fp+1,fputs@fp+1
  5937  00639A  EC85  F02F         	call	_fputs	;wreg free
  5938  00639E                     l2450:
  5939  00639E  BE16               	btfsc	(pad@p+1)^0,7,c
  5940  0063A0  EFD4  F031         	goto	u1151
  5941  0063A4  EFD6  F031         	goto	u1150
  5942  0063A8                     u1151:
  5943  0063A8  EFDC  F031         	goto	l2454
  5944  0063AC                     u1150:
  5945  0063AC  C015  F01A         	movff	pad@p,pad@w
  5946  0063B0  C016  F01B         	movff	pad@p+1,pad@w+1
  5947  0063B4  EFE0  F031         	goto	l1078
  5948  0063B8                     l2454:
  5949  0063B8  0E00               	movlw	0
  5950  0063BA  6E1B               	movwf	(pad@w+1)^0,c
  5951  0063BC  0E00               	movlw	0
  5952  0063BE  6E1A               	movwf	pad@w^0,c
  5953  0063C0                     l1078:
  5954  0063C0  0E00               	movlw	0
  5955  0063C2  6E19               	movwf	(pad@i+1)^0,c
  5956  0063C4  0E00               	movlw	0
  5957  0063C6  6E18               	movwf	pad@i^0,c
  5958  0063C8  EFF2  F031         	goto	l2460
  5959  0063CC                     l2456:
  5960  0063CC  0E00               	movlw	0
  5961  0063CE  6E02               	movwf	(fputc@c+1)^0,c
  5962  0063D0  0E20               	movlw	32
  5963  0063D2  6E01               	movwf	fputc@c^0,c
  5964  0063D4  C011  F003         	movff	pad@fp,fputc@fp
  5965  0063D8  C012  F004         	movff	pad@fp+1,fputc@fp+1
  5966  0063DC  EC20  F032         	call	_fputc	;wreg free
  5967  0063E0  4A18               	infsnz	pad@i^0,f,c
  5968  0063E2  2A19               	incf	(pad@i+1)^0,f,c
  5969  0063E4                     l2460:
  5970  0063E4  501A               	movf	pad@w^0,w,c
  5971  0063E6  5C18               	subwf	pad@i^0,w,c
  5972  0063E8  5019               	movf	(pad@i+1)^0,w,c
  5973  0063EA  0A80               	xorlw	128
  5974  0063EC  6E17               	movwf	??_pad^0,c
  5975  0063EE  501B               	movf	(pad@w+1)^0,w,c
  5976  0063F0  0A80               	xorlw	128
  5977  0063F2  5817               	subwfb	??_pad^0,w,c
  5978  0063F4  A0D8               	btfss	status,0,c
  5979  0063F6  EFFF  F031         	goto	u1161
  5980  0063FA  EF01  F032         	goto	u1160
  5981  0063FE                     u1161:
  5982  0063FE  EFE6  F031         	goto	l2456
  5983  006402                     u1160:
  5984  006402  0100               	movlb	0	; () banked
  5985  006404  B1A4               	btfsc	_flags& (0+255),0,b
  5986  006406  EF07  F032         	goto	u1171
  5987  00640A  EF09  F032         	goto	u1170
  5988  00640E                     u1171:
  5989  00640E  EF13  F032         	goto	l2464
  5990  006412                     u1170:
  5991  006412                     
  5992                           ; BSR set to: 0
  5993  006412  C013  F00A         	movff	pad@buf,fputs@s
  5994  006416  C014  F00B         	movff	pad@buf+1,fputs@s+1
  5995  00641A  C011  F00C         	movff	pad@fp,fputs@fp
  5996  00641E  C012  F00D         	movff	pad@fp+1,fputs@fp+1
  5997  006422  EC85  F02F         	call	_fputs	;wreg free
  5998  006426                     l2464:
  5999  006426  C013  F001         	movff	pad@buf,strlen@s
  6000  00642A  C014  F002         	movff	pad@buf+1,strlen@s+1
  6001  00642E  ECEF  F02E         	call	_strlen	;wreg free
  6002  006432  501A               	movf	pad@w^0,w,c
  6003  006434  2401               	addwf	?_strlen^0,w,c
  6004  006436  6E11               	movwf	?_pad^0,c
  6005  006438  501B               	movf	(pad@w+1)^0,w,c
  6006  00643A  2002               	addwfc	(?_strlen+1)^0,w,c
  6007  00643C  6E12               	movwf	(?_pad+1)^0,c
  6008  00643E  0012               	return		;funcret
  6009  006440                     __end_of_pad:
  6010                           	callstack 0
  6011                           
  6012 ;; *************** function _strlen *****************
  6013 ;; Defined at:
  6014 ;;		line 5 in file "C:\Program Files\Microchip\xc8\v2.32\pic\sources\c99\common\strlen.c"
  6015 ;; Parameters:    Size  Location     Type
  6016 ;;  s               2    0[COMRAM] PTR const unsigned char 
  6017 ;;		 -> dbuf(32), 
  6018 ;; Auto vars:     Size  Location     Type
  6019 ;;  a               2    2[COMRAM] PTR const unsigned char 
  6020 ;;		 -> dbuf(32), 
  6021 ;; Return value:  Size  Location     Type
  6022 ;;                  2    0[COMRAM] unsigned int 
  6023 ;; Registers used:
  6024 ;;		wreg, fsr2l, fsr2h, status,2, status,0
  6025 ;; Tracked objects:
  6026 ;;		On entry : 0/0
  6027 ;;		On exit  : 0/0
  6028 ;;		Unchanged: 0/0
  6029 ;; Data sizes:     COMRAM   BANK0   BANK1   BANK2   BANK3   BANK4   BANK5   BANK6   BANK7
  6030 ;;      Params:         2       0       0       0       0       0       0       0       0
  6031 ;;      Locals:         2       0       0       0       0       0       0       0       0
  6032 ;;      Temps:          0       0       0       0       0       0       0       0       0
  6033 ;;      Totals:         4       0       0       0       0       0       0       0       0
  6034 ;;Total ram usage:        4 bytes
  6035 ;; Hardware stack levels used: 1
  6036 ;; This function calls:
  6037 ;;		Nothing
  6038 ;; This function is called by:
  6039 ;;		_pad
  6040 ;; This function uses a non-reentrant model
  6041 ;;
  6042                           
  6043                           	psect	text19
  6044  005DDE                     __ptext19:
  6045                           	callstack 0
  6046  005DDE                     _strlen:
  6047                           	callstack 25
  6048  005DDE  C001  F003         	movff	strlen@s,strlen@a
  6049  005DE2  C002  F004         	movff	strlen@s+1,strlen@a+1
  6050  005DE6  EFF7  F02E         	goto	l2346
  6051  005DEA                     l2344:
  6052  005DEA  4A01               	infsnz	strlen@s^0,f,c
  6053  005DEC  2A02               	incf	(strlen@s+1)^0,f,c
  6054  005DEE                     l2346:
  6055  005DEE  C001  FFD9         	movff	strlen@s,fsr2l
  6056  005DF2  C002  FFDA         	movff	strlen@s+1,fsr2h
  6057  005DF6  50DF               	movf	indf2,w,c
  6058  005DF8  A4D8               	btfss	status,2,c
  6059  005DFA  EF01  F02F         	goto	u1001
  6060  005DFE  EF03  F02F         	goto	u1000
  6061  005E02                     u1001:
  6062  005E02  EFF5  F02E         	goto	l2344
  6063  005E06                     u1000:
  6064  005E06  5003               	movf	strlen@a^0,w,c
  6065  005E08  5C01               	subwf	strlen@s^0,w,c
  6066  005E0A  6E01               	movwf	?_strlen^0,c
  6067  005E0C  5004               	movf	(strlen@a+1)^0,w,c
  6068  005E0E  5802               	subwfb	(strlen@s+1)^0,w,c
  6069  005E10  6E02               	movwf	(?_strlen+1)^0,c
  6070  005E12  0012               	return		;funcret
  6071  005E14                     __end_of_strlen:
  6072                           	callstack 0
  6073                           
  6074 ;; *************** function _fputs *****************
  6075 ;; Defined at:
  6076 ;;		line 8 in file "C:\Program Files\Microchip\xc8\v2.32\pic\sources\c99\common\nf_fputs.c"
  6077 ;; Parameters:    Size  Location     Type
  6078 ;;  s               2    9[COMRAM] PTR const unsigned char 
  6079 ;;		 -> dbuf(32), 
  6080 ;;  fp              2   11[COMRAM] PTR struct _IO_FILE
  6081 ;;		 -> sprintf@f(6), 
  6082 ;; Auto vars:     Size  Location     Type
  6083 ;;  i               2   14[COMRAM] int 
  6084 ;;  c               1   13[COMRAM] unsigned char 
  6085 ;; Return value:  Size  Location     Type
  6086 ;;                  2    9[COMRAM] int 
  6087 ;; Registers used:
  6088 ;;		wreg, fsr1l, fsr1h, fsr2l, fsr2h, status,2, status,0, cstack
  6089 ;; Tracked objects:
  6090 ;;		On entry : 0/0
  6091 ;;		On exit  : 0/0
  6092 ;;		Unchanged: 0/0
  6093 ;; Data sizes:     COMRAM   BANK0   BANK1   BANK2   BANK3   BANK4   BANK5   BANK6   BANK7
  6094 ;;      Params:         4       0       0       0       0       0       0       0       0
  6095 ;;      Locals:         3       0       0       0       0       0       0       0       0
  6096 ;;      Temps:          0       0       0       0       0       0       0       0       0
  6097 ;;      Totals:         7       0       0       0       0       0       0       0       0
  6098 ;;Total ram usage:        7 bytes
  6099 ;; Hardware stack levels used: 1
  6100 ;; Hardware stack levels required when called: 2
  6101 ;; This function calls:
  6102 ;;		_fputc
  6103 ;; This function is called by:
  6104 ;;		_pad
  6105 ;; This function uses a non-reentrant model
  6106 ;;
  6107                           
  6108                           	psect	text20
  6109  005F0A                     __ptext20:
  6110                           	callstack 0
  6111  005F0A                     _fputs:
  6112                           	callstack 23
  6113  005F0A  0E00               	movlw	0
  6114  005F0C  6E10               	movwf	(fputs@i+1)^0,c
  6115  005F0E  0E00               	movlw	0
  6116  005F10  6E0F               	movwf	fputs@i^0,c
  6117  005F12  EF96  F02F         	goto	l2340
  6118  005F16                     l2336:
  6119  005F16  C00E  F001         	movff	fputs@c,fputc@c
  6120  005F1A  6A02               	clrf	(fputc@c+1)^0,c
  6121  005F1C  C00C  F003         	movff	fputs@fp,fputc@fp
  6122  005F20  C00D  F004         	movff	fputs@fp+1,fputc@fp+1
  6123  005F24  EC20  F032         	call	_fputc	;wreg free
  6124  005F28  4A0F               	infsnz	fputs@i^0,f,c
  6125  005F2A  2A10               	incf	(fputs@i+1)^0,f,c
  6126  005F2C                     l2340:
  6127  005F2C  500F               	movf	fputs@i^0,w,c
  6128  005F2E  240A               	addwf	fputs@s^0,w,c
  6129  005F30  6ED9               	movwf	fsr2l,c
  6130  005F32  5010               	movf	(fputs@i+1)^0,w,c
  6131  005F34  200B               	addwfc	(fputs@s+1)^0,w,c
  6132  005F36  6EDA               	movwf	fsr2h,c
  6133  005F38  50DF               	movf	indf2,w,c
  6134  005F3A  6E0E               	movwf	fputs@c^0,c
  6135  005F3C  500E               	movf	fputs@c^0,w,c
  6136  005F3E  A4D8               	btfss	status,2,c
  6137  005F40  EFA4  F02F         	goto	u991
  6138  005F44  EFA6  F02F         	goto	u990
  6139  005F48                     u991:
  6140  005F48  EF8B  F02F         	goto	l2336
  6141  005F4C                     u990:
  6142  005F4C  0012               	return		;funcret
  6143  005F4E                     __end_of_fputs:
  6144                           	callstack 0
  6145                           
  6146 ;; *************** function _abs *****************
  6147 ;; Defined at:
  6148 ;;		line 1 in file "C:\Program Files\Microchip\xc8\v2.32\pic\sources\c99\common\abs.c"
  6149 ;; Parameters:    Size  Location     Type
  6150 ;;  a               2   18[COMRAM] int 
  6151 ;; Auto vars:     Size  Location     Type
  6152 ;;		None
  6153 ;; Return value:  Size  Location     Type
  6154 ;;                  2   18[COMRAM] int 
  6155 ;; Registers used:
  6156 ;;		wreg, status,2, status,0
  6157 ;; Tracked objects:
  6158 ;;		On entry : 0/0
  6159 ;;		On exit  : 0/0
  6160 ;;		Unchanged: 0/0
  6161 ;; Data sizes:     COMRAM   BANK0   BANK1   BANK2   BANK3   BANK4   BANK5   BANK6   BANK7
  6162 ;;      Params:         2       0       0       0       0       0       0       0       0
  6163 ;;      Locals:         0       0       0       0       0       0       0       0       0
  6164 ;;      Temps:          2       0       0       0       0       0       0       0       0
  6165 ;;      Totals:         4       0       0       0       0       0       0       0       0
  6166 ;;Total ram usage:        4 bytes
  6167 ;; Hardware stack levels used: 1
  6168 ;; This function calls:
  6169 ;;		Nothing
  6170 ;; This function is called by:
  6171 ;;		_dtoa
  6172 ;; This function uses a non-reentrant model
  6173 ;;
  6174                           
  6175                           	psect	text21
  6176  005ECA                     __ptext21:
  6177                           	callstack 0
  6178  005ECA                     _abs:
  6179                           	callstack 26
  6180  005ECA  BE14               	btfsc	(abs@a+1)^0,7,c
  6181  005ECC  EF72  F02F         	goto	u1180
  6182  005ED0  5014               	movf	(abs@a+1)^0,w,c
  6183  005ED2  E106               	bnz	u1181
  6184  005ED4  0413               	decf	abs@a^0,w,c
  6185  005ED6  B0D8               	btfsc	status,0,c
  6186  005ED8  EF70  F02F         	goto	u1181
  6187  005EDC  EF72  F02F         	goto	u1180
  6188  005EE0                     u1181:
  6189  005EE0  EF80  F02F         	goto	l1144
  6190  005EE4                     u1180:
  6191  005EE4  C013  F015         	movff	abs@a,??_abs
  6192  005EE8  C014  F016         	movff	abs@a+1,??_abs+1
  6193  005EEC  1E15               	comf	??_abs^0,f,c
  6194  005EEE  1E16               	comf	(??_abs+1)^0,f,c
  6195  005EF0  4A15               	infsnz	??_abs^0,f,c
  6196  005EF2  2A16               	incf	(??_abs+1)^0,f,c
  6197  005EF4  C015  F013         	movff	??_abs,?_abs
  6198  005EF8  C016  F014         	movff	??_abs+1,?_abs+1
  6199  005EFC  EF84  F02F         	goto	l1147
  6200  005F00                     l1144:
  6201  005F00  C013  F013         	movff	abs@a,?_abs
  6202  005F04  C014  F014         	movff	abs@a+1,?_abs+1
  6203  005F08                     l1147:
  6204  005F08  0012               	return		;funcret
  6205  005F0A                     __end_of_abs:
  6206                           	callstack 0
  6207                           
  6208 ;; *************** function ___aomod *****************
  6209 ;; Defined at:
  6210 ;;		line 9 in file "C:\Program Files\Microchip\xc8\v2.32\pic\sources\c99\common\aomod.c"
  6211 ;; Parameters:    Size  Location     Type
  6212 ;;  dividend        8    0[COMRAM] long long 
  6213 ;;  divisor         8    8[COMRAM] long long 
  6214 ;; Auto vars:     Size  Location     Type
  6215 ;;  sign            1   17[COMRAM] unsigned char 
  6216 ;;  counter         1   16[COMRAM] unsigned char 
  6217 ;; Return value:  Size  Location     Type
  6218 ;;                  8    0[COMRAM] long long 
  6219 ;; Registers used:
  6220 ;;		wreg, status,2, status,0
  6221 ;; Tracked objects:
  6222 ;;		On entry : 0/0
  6223 ;;		On exit  : 0/0
  6224 ;;		Unchanged: 0/0
  6225 ;; Data sizes:     COMRAM   BANK0   BANK1   BANK2   BANK3   BANK4   BANK5   BANK6   BANK7
  6226 ;;      Params:        16       0       0       0       0       0       0       0       0
  6227 ;;      Locals:         2       0       0       0       0       0       0       0       0
  6228 ;;      Temps:          0       0       0       0       0       0       0       0       0
  6229 ;;      Totals:        18       0       0       0       0       0       0       0       0
  6230 ;;Total ram usage:       18 bytes
  6231 ;; Hardware stack levels used: 1
  6232 ;; This function calls:
  6233 ;;		Nothing
  6234 ;; This function is called by:
  6235 ;;		_dtoa
  6236 ;; This function uses a non-reentrant model
  6237 ;;
  6238                           
  6239                           	psect	text22
  6240  0065E2                     __ptext22:
  6241                           	callstack 0
  6242  0065E2                     ___aomod:
  6243                           	callstack 26
  6244  0065E2  0E00               	movlw	0
  6245  0065E4  6E12               	movwf	___aomod@sign^0,c
  6246  0065E6  BE08               	btfsc	(___aomod@dividend+7)^0,7,c
  6247  0065E8  EFFA  F032         	goto	u1080
  6248  0065EC  EFF8  F032         	goto	u1081
  6249  0065F0                     u1081:
  6250  0065F0  EF0C  F033         	goto	l2418
  6251  0065F4                     u1080:
  6252  0065F4  1E08               	comf	(___aomod@dividend+7)^0,f,c
  6253  0065F6  1E07               	comf	(___aomod@dividend+6)^0,f,c
  6254  0065F8  1E06               	comf	(___aomod@dividend+5)^0,f,c
  6255  0065FA  1E05               	comf	(___aomod@dividend+4)^0,f,c
  6256  0065FC  1E04               	comf	(___aomod@dividend+3)^0,f,c
  6257  0065FE  1E03               	comf	(___aomod@dividend+2)^0,f,c
  6258  006600  1E02               	comf	(___aomod@dividend+1)^0,f,c
  6259  006602  6C01               	negf	___aomod@dividend^0,c
  6260  006604  0E00               	movlw	0
  6261  006606  2202               	addwfc	(___aomod@dividend+1)^0,f,c
  6262  006608  2203               	addwfc	(___aomod@dividend+2)^0,f,c
  6263  00660A  2204               	addwfc	(___aomod@dividend+3)^0,f,c
  6264  00660C  2205               	addwfc	(___aomod@dividend+4)^0,f,c
  6265  00660E  2206               	addwfc	(___aomod@dividend+5)^0,f,c
  6266  006610  2207               	addwfc	(___aomod@dividend+6)^0,f,c
  6267  006612  2208               	addwfc	(___aomod@dividend+7)^0,f,c
  6268  006614  0E01               	movlw	1
  6269  006616  6E12               	movwf	___aomod@sign^0,c
  6270  006618                     l2418:
  6271  006618  BE10               	btfsc	(___aomod@divisor+7)^0,7,c
  6272  00661A  EF13  F033         	goto	u1090
  6273  00661E  EF11  F033         	goto	u1091
  6274  006622                     u1091:
  6275  006622  EF23  F033         	goto	l2422
  6276  006626                     u1090:
  6277  006626  1E10               	comf	(___aomod@divisor+7)^0,f,c
  6278  006628  1E0F               	comf	(___aomod@divisor+6)^0,f,c
  6279  00662A  1E0E               	comf	(___aomod@divisor+5)^0,f,c
  6280  00662C  1E0D               	comf	(___aomod@divisor+4)^0,f,c
  6281  00662E  1E0C               	comf	(___aomod@divisor+3)^0,f,c
  6282  006630  1E0B               	comf	(___aomod@divisor+2)^0,f,c
  6283  006632  1E0A               	comf	(___aomod@divisor+1)^0,f,c
  6284  006634  6C09               	negf	___aomod@divisor^0,c
  6285  006636  0E00               	movlw	0
  6286  006638  220A               	addwfc	(___aomod@divisor+1)^0,f,c
  6287  00663A  220B               	addwfc	(___aomod@divisor+2)^0,f,c
  6288  00663C  220C               	addwfc	(___aomod@divisor+3)^0,f,c
  6289  00663E  220D               	addwfc	(___aomod@divisor+4)^0,f,c
  6290  006640  220E               	addwfc	(___aomod@divisor+5)^0,f,c
  6291  006642  220F               	addwfc	(___aomod@divisor+6)^0,f,c
  6292  006644  2210               	addwfc	(___aomod@divisor+7)^0,f,c
  6293  006646                     l2422:
  6294  006646  5009               	movf	___aomod@divisor^0,w,c
  6295  006648  100A               	iorwf	(___aomod@divisor+1)^0,w,c
  6296  00664A  100B               	iorwf	(___aomod@divisor+2)^0,w,c
  6297  00664C  100C               	iorwf	(___aomod@divisor+3)^0,w,c
  6298  00664E  100D               	iorwf	(___aomod@divisor+4)^0,w,c
  6299  006650  100E               	iorwf	(___aomod@divisor+5)^0,w,c
  6300  006652  100F               	iorwf	(___aomod@divisor+6)^0,w,c
  6301  006654  1010               	iorwf	(___aomod@divisor+7)^0,w,c
  6302  006656  B4D8               	btfsc	status,2,c
  6303  006658  EF30  F033         	goto	u1101
  6304  00665C  EF32  F033         	goto	u1100
  6305  006660                     u1101:
  6306  006660  EF7A  F033         	goto	l2438
  6307  006664                     u1100:
  6308  006664  0E01               	movlw	1
  6309  006666  6E11               	movwf	___aomod@counter^0,c
  6310  006668  EF40  F033         	goto	l2428
  6311  00666C                     l2426:
  6312  00666C  90D8               	bcf	status,0,c
  6313  00666E  3609               	rlcf	___aomod@divisor^0,f,c
  6314  006670  360A               	rlcf	(___aomod@divisor+1)^0,f,c
  6315  006672  360B               	rlcf	(___aomod@divisor+2)^0,f,c
  6316  006674  360C               	rlcf	(___aomod@divisor+3)^0,f,c
  6317  006676  360D               	rlcf	(___aomod@divisor+4)^0,f,c
  6318  006678  360E               	rlcf	(___aomod@divisor+5)^0,f,c
  6319  00667A  360F               	rlcf	(___aomod@divisor+6)^0,f,c
  6320  00667C  3610               	rlcf	(___aomod@divisor+7)^0,f,c
  6321  00667E  2A11               	incf	___aomod@counter^0,f,c
  6322  006680                     l2428:
  6323  006680  AE10               	btfss	(___aomod@divisor+7)^0,7,c
  6324  006682  EF45  F033         	goto	u1111
  6325  006686  EF47  F033         	goto	u1110
  6326  00668A                     u1111:
  6327  00668A  EF36  F033         	goto	l2426
  6328  00668E                     u1110:
  6329  00668E                     l2430:
  6330  00668E  5009               	movf	___aomod@divisor^0,w,c
  6331  006690  5C01               	subwf	___aomod@dividend^0,w,c
  6332  006692  500A               	movf	(___aomod@divisor+1)^0,w,c
  6333  006694  5802               	subwfb	(___aomod@dividend+1)^0,w,c
  6334  006696  500B               	movf	(___aomod@divisor+2)^0,w,c
  6335  006698  5803               	subwfb	(___aomod@dividend+2)^0,w,c
  6336  00669A  500C               	movf	(___aomod@divisor+3)^0,w,c
  6337  00669C  5804               	subwfb	(___aomod@dividend+3)^0,w,c
  6338  00669E  500D               	movf	(___aomod@divisor+4)^0,w,c
  6339  0066A0  5805               	subwfb	(___aomod@dividend+4)^0,w,c
  6340  0066A2  500E               	movf	(___aomod@divisor+5)^0,w,c
  6341  0066A4  5806               	subwfb	(___aomod@dividend+5)^0,w,c
  6342  0066A6  500F               	movf	(___aomod@divisor+6)^0,w,c
  6343  0066A8  5807               	subwfb	(___aomod@dividend+6)^0,w,c
  6344  0066AA  5010               	movf	(___aomod@divisor+7)^0,w,c
  6345  0066AC  5808               	subwfb	(___aomod@dividend+7)^0,w,c
  6346  0066AE  A0D8               	btfss	status,0,c
  6347  0066B0  EF5C  F033         	goto	u1121
  6348  0066B4  EF5E  F033         	goto	u1120
  6349  0066B8                     u1121:
  6350  0066B8  EF6E  F033         	goto	l2434
  6351  0066BC                     u1120:
  6352  0066BC  5009               	movf	___aomod@divisor^0,w,c
  6353  0066BE  5E01               	subwf	___aomod@dividend^0,f,c
  6354  0066C0  500A               	movf	(___aomod@divisor+1)^0,w,c
  6355  0066C2  5A02               	subwfb	(___aomod@dividend+1)^0,f,c
  6356  0066C4  500B               	movf	(___aomod@divisor+2)^0,w,c
  6357  0066C6  5A03               	subwfb	(___aomod@dividend+2)^0,f,c
  6358  0066C8  500C               	movf	(___aomod@divisor+3)^0,w,c
  6359  0066CA  5A04               	subwfb	(___aomod@dividend+3)^0,f,c
  6360  0066CC  500D               	movf	(___aomod@divisor+4)^0,w,c
  6361  0066CE  5A05               	subwfb	(___aomod@dividend+4)^0,f,c
  6362  0066D0  500E               	movf	(___aomod@divisor+5)^0,w,c
  6363  0066D2  5A06               	subwfb	(___aomod@dividend+5)^0,f,c
  6364  0066D4  500F               	movf	(___aomod@divisor+6)^0,w,c
  6365  0066D6  5A07               	subwfb	(___aomod@dividend+6)^0,f,c
  6366  0066D8  5010               	movf	(___aomod@divisor+7)^0,w,c
  6367  0066DA  5A08               	subwfb	(___aomod@dividend+7)^0,f,c
  6368  0066DC                     l2434:
  6369  0066DC  90D8               	bcf	status,0,c
  6370  0066DE  3210               	rrcf	(___aomod@divisor+7)^0,f,c
  6371  0066E0  320F               	rrcf	(___aomod@divisor+6)^0,f,c
  6372  0066E2  320E               	rrcf	(___aomod@divisor+5)^0,f,c
  6373  0066E4  320D               	rrcf	(___aomod@divisor+4)^0,f,c
  6374  0066E6  320C               	rrcf	(___aomod@divisor+3)^0,f,c
  6375  0066E8  320B               	rrcf	(___aomod@divisor+2)^0,f,c
  6376  0066EA  320A               	rrcf	(___aomod@divisor+1)^0,f,c
  6377  0066EC  3209               	rrcf	___aomod@divisor^0,f,c
  6378  0066EE  2E11               	decfsz	___aomod@counter^0,f,c
  6379  0066F0  EF47  F033         	goto	l2430
  6380  0066F4                     l2438:
  6381  0066F4  5012               	movf	___aomod@sign^0,w,c
  6382  0066F6  B4D8               	btfsc	status,2,c
  6383  0066F8  EF80  F033         	goto	u1131
  6384  0066FC  EF82  F033         	goto	u1130
  6385  006700                     u1131:
  6386  006700  EF92  F033         	goto	l2442
  6387  006704                     u1130:
  6388  006704  1E08               	comf	(___aomod@dividend+7)^0,f,c
  6389  006706  1E07               	comf	(___aomod@dividend+6)^0,f,c
  6390  006708  1E06               	comf	(___aomod@dividend+5)^0,f,c
  6391  00670A  1E05               	comf	(___aomod@dividend+4)^0,f,c
  6392  00670C  1E04               	comf	(___aomod@dividend+3)^0,f,c
  6393  00670E  1E03               	comf	(___aomod@dividend+2)^0,f,c
  6394  006710  1E02               	comf	(___aomod@dividend+1)^0,f,c
  6395  006712  6C01               	negf	___aomod@dividend^0,c
  6396  006714  0E00               	movlw	0
  6397  006716  2202               	addwfc	(___aomod@dividend+1)^0,f,c
  6398  006718  2203               	addwfc	(___aomod@dividend+2)^0,f,c
  6399  00671A  2204               	addwfc	(___aomod@dividend+3)^0,f,c
  6400  00671C  2205               	addwfc	(___aomod@dividend+4)^0,f,c
  6401  00671E  2206               	addwfc	(___aomod@dividend+5)^0,f,c
  6402  006720  2207               	addwfc	(___aomod@dividend+6)^0,f,c
  6403  006722  2208               	addwfc	(___aomod@dividend+7)^0,f,c
  6404  006724                     l2442:
  6405  006724  C001  F001         	movff	___aomod@dividend,?___aomod
  6406  006728  C002  F002         	movff	___aomod@dividend+1,?___aomod+1
  6407  00672C  C003  F003         	movff	___aomod@dividend+2,?___aomod+2
  6408  006730  C004  F004         	movff	___aomod@dividend+3,?___aomod+3
  6409  006734  C005  F005         	movff	___aomod@dividend+4,?___aomod+4
  6410  006738  C006  F006         	movff	___aomod@dividend+5,?___aomod+5
  6411  00673C  C007  F007         	movff	___aomod@dividend+6,?___aomod+6
  6412  006740  C008  F008         	movff	___aomod@dividend+7,?___aomod+7
  6413  006744  0012               	return		;funcret
  6414  006746                     __end_of___aomod:
  6415                           	callstack 0
  6416                           
  6417 ;; *************** function ___aodiv *****************
  6418 ;; Defined at:
  6419 ;;		line 9 in file "C:\Program Files\Microchip\xc8\v2.32\pic\sources\c99\common\aodiv.c"
  6420 ;; Parameters:    Size  Location     Type
  6421 ;;  dividend        8    0[COMRAM] long long 
  6422 ;;  divisor         8    8[COMRAM] long long 
  6423 ;; Auto vars:     Size  Location     Type
  6424 ;;  quotient        8   18[COMRAM] long long 
  6425 ;;  sign            1   17[COMRAM] unsigned char 
  6426 ;;  counter         1   16[COMRAM] unsigned char 
  6427 ;; Return value:  Size  Location     Type
  6428 ;;                  8    0[COMRAM] long long 
  6429 ;; Registers used:
  6430 ;;		wreg, fsr2l, fsr2h, status,2, status,0
  6431 ;; Tracked objects:
  6432 ;;		On entry : 0/0
  6433 ;;		On exit  : 0/0
  6434 ;;		Unchanged: 0/0
  6435 ;; Data sizes:     COMRAM   BANK0   BANK1   BANK2   BANK3   BANK4   BANK5   BANK6   BANK7
  6436 ;;      Params:        16       0       0       0       0       0       0       0       0
  6437 ;;      Locals:        10       0       0       0       0       0       0       0       0
  6438 ;;      Temps:          0       0       0       0       0       0       0       0       0
  6439 ;;      Totals:        26       0       0       0       0       0       0       0       0
  6440 ;;Total ram usage:       26 bytes
  6441 ;; Hardware stack levels used: 1
  6442 ;; This function calls:
  6443 ;;		Nothing
  6444 ;; This function is called by:
  6445 ;;		_dtoa
  6446 ;; This function uses a non-reentrant model
  6447 ;;
  6448                           
  6449                           	psect	text23
  6450  006746                     __ptext23:
  6451                           	callstack 0
  6452  006746                     ___aodiv:
  6453                           	callstack 26
  6454  006746  0E00               	movlw	0
  6455  006748  6E12               	movwf	___aodiv@sign^0,c
  6456  00674A  BE10               	btfsc	(___aodiv@divisor+7)^0,7,c
  6457  00674C  EFAC  F033         	goto	u1010
  6458  006750  EFAA  F033         	goto	u1011
  6459  006754                     u1011:
  6460  006754  EFBE  F033         	goto	l2374
  6461  006758                     u1010:
  6462  006758  1E10               	comf	(___aodiv@divisor+7)^0,f,c
  6463  00675A  1E0F               	comf	(___aodiv@divisor+6)^0,f,c
  6464  00675C  1E0E               	comf	(___aodiv@divisor+5)^0,f,c
  6465  00675E  1E0D               	comf	(___aodiv@divisor+4)^0,f,c
  6466  006760  1E0C               	comf	(___aodiv@divisor+3)^0,f,c
  6467  006762  1E0B               	comf	(___aodiv@divisor+2)^0,f,c
  6468  006764  1E0A               	comf	(___aodiv@divisor+1)^0,f,c
  6469  006766  6C09               	negf	___aodiv@divisor^0,c
  6470  006768  0E00               	movlw	0
  6471  00676A  220A               	addwfc	(___aodiv@divisor+1)^0,f,c
  6472  00676C  220B               	addwfc	(___aodiv@divisor+2)^0,f,c
  6473  00676E  220C               	addwfc	(___aodiv@divisor+3)^0,f,c
  6474  006770  220D               	addwfc	(___aodiv@divisor+4)^0,f,c
  6475  006772  220E               	addwfc	(___aodiv@divisor+5)^0,f,c
  6476  006774  220F               	addwfc	(___aodiv@divisor+6)^0,f,c
  6477  006776  2210               	addwfc	(___aodiv@divisor+7)^0,f,c
  6478  006778  0E01               	movlw	1
  6479  00677A  6E12               	movwf	___aodiv@sign^0,c
  6480  00677C                     l2374:
  6481  00677C  BE08               	btfsc	(___aodiv@dividend+7)^0,7,c
  6482  00677E  EFC5  F033         	goto	u1020
  6483  006782  EFC3  F033         	goto	u1021
  6484  006786                     u1021:
  6485  006786  EFD7  F033         	goto	l2380
  6486  00678A                     u1020:
  6487  00678A  1E08               	comf	(___aodiv@dividend+7)^0,f,c
  6488  00678C  1E07               	comf	(___aodiv@dividend+6)^0,f,c
  6489  00678E  1E06               	comf	(___aodiv@dividend+5)^0,f,c
  6490  006790  1E05               	comf	(___aodiv@dividend+4)^0,f,c
  6491  006792  1E04               	comf	(___aodiv@dividend+3)^0,f,c
  6492  006794  1E03               	comf	(___aodiv@dividend+2)^0,f,c
  6493  006796  1E02               	comf	(___aodiv@dividend+1)^0,f,c
  6494  006798  6C01               	negf	___aodiv@dividend^0,c
  6495  00679A  0E00               	movlw	0
  6496  00679C  2202               	addwfc	(___aodiv@dividend+1)^0,f,c
  6497  00679E  2203               	addwfc	(___aodiv@dividend+2)^0,f,c
  6498  0067A0  2204               	addwfc	(___aodiv@dividend+3)^0,f,c
  6499  0067A2  2205               	addwfc	(___aodiv@dividend+4)^0,f,c
  6500  0067A4  2206               	addwfc	(___aodiv@dividend+5)^0,f,c
  6501  0067A6  2207               	addwfc	(___aodiv@dividend+6)^0,f,c
  6502  0067A8  2208               	addwfc	(___aodiv@dividend+7)^0,f,c
  6503  0067AA  0E01               	movlw	1
  6504  0067AC  1A12               	xorwf	___aodiv@sign^0,f,c
  6505  0067AE                     l2380:
  6506  0067AE  EE20  F013         	lfsr	2,___aodiv@quotient
  6507  0067B2  0E07               	movlw	7
  6508  0067B4                     u1031:
  6509  0067B4  6ADE               	clrf	postinc2,c
  6510  0067B6  06E8               	decf	wreg,f,c
  6511  0067B8  E2FD               	bc	u1031
  6512  0067BA  5009               	movf	___aodiv@divisor^0,w,c
  6513  0067BC  100A               	iorwf	(___aodiv@divisor+1)^0,w,c
  6514  0067BE  100B               	iorwf	(___aodiv@divisor+2)^0,w,c
  6515  0067C0  100C               	iorwf	(___aodiv@divisor+3)^0,w,c
  6516  0067C2  100D               	iorwf	(___aodiv@divisor+4)^0,w,c
  6517  0067C4  100E               	iorwf	(___aodiv@divisor+5)^0,w,c
  6518  0067C6  100F               	iorwf	(___aodiv@divisor+6)^0,w,c
  6519  0067C8  1010               	iorwf	(___aodiv@divisor+7)^0,w,c
  6520  0067CA  B4D8               	btfsc	status,2,c
  6521  0067CC  EFEA  F033         	goto	u1041
  6522  0067D0  EFEC  F033         	goto	u1040
  6523  0067D4                     u1041:
  6524  0067D4  EF3E  F034         	goto	l2402
  6525  0067D8                     u1040:
  6526  0067D8  0E01               	movlw	1
  6527  0067DA  6E11               	movwf	___aodiv@counter^0,c
  6528  0067DC  EFFA  F033         	goto	l2388
  6529  0067E0                     l2386:
  6530  0067E0  90D8               	bcf	status,0,c
  6531  0067E2  3609               	rlcf	___aodiv@divisor^0,f,c
  6532  0067E4  360A               	rlcf	(___aodiv@divisor+1)^0,f,c
  6533  0067E6  360B               	rlcf	(___aodiv@divisor+2)^0,f,c
  6534  0067E8  360C               	rlcf	(___aodiv@divisor+3)^0,f,c
  6535  0067EA  360D               	rlcf	(___aodiv@divisor+4)^0,f,c
  6536  0067EC  360E               	rlcf	(___aodiv@divisor+5)^0,f,c
  6537  0067EE  360F               	rlcf	(___aodiv@divisor+6)^0,f,c
  6538  0067F0  3610               	rlcf	(___aodiv@divisor+7)^0,f,c
  6539  0067F2  2A11               	incf	___aodiv@counter^0,f,c
  6540  0067F4                     l2388:
  6541  0067F4  AE10               	btfss	(___aodiv@divisor+7)^0,7,c
  6542  0067F6  EFFF  F033         	goto	u1051
  6543  0067FA  EF01  F034         	goto	u1050
  6544  0067FE                     u1051:
  6545  0067FE  EFF0  F033         	goto	l2386
  6546  006802                     u1050:
  6547  006802                     l2390:
  6548  006802  90D8               	bcf	status,0,c
  6549  006804  3613               	rlcf	___aodiv@quotient^0,f,c
  6550  006806  3614               	rlcf	(___aodiv@quotient+1)^0,f,c
  6551  006808  3615               	rlcf	(___aodiv@quotient+2)^0,f,c
  6552  00680A  3616               	rlcf	(___aodiv@quotient+3)^0,f,c
  6553  00680C  3617               	rlcf	(___aodiv@quotient+4)^0,f,c
  6554  00680E  3618               	rlcf	(___aodiv@quotient+5)^0,f,c
  6555  006810  3619               	rlcf	(___aodiv@quotient+6)^0,f,c
  6556  006812  361A               	rlcf	(___aodiv@quotient+7)^0,f,c
  6557  006814  5009               	movf	___aodiv@divisor^0,w,c
  6558  006816  5C01               	subwf	___aodiv@dividend^0,w,c
  6559  006818  500A               	movf	(___aodiv@divisor+1)^0,w,c
  6560  00681A  5802               	subwfb	(___aodiv@dividend+1)^0,w,c
  6561  00681C  500B               	movf	(___aodiv@divisor+2)^0,w,c
  6562  00681E  5803               	subwfb	(___aodiv@dividend+2)^0,w,c
  6563  006820  500C               	movf	(___aodiv@divisor+3)^0,w,c
  6564  006822  5804               	subwfb	(___aodiv@dividend+3)^0,w,c
  6565  006824  500D               	movf	(___aodiv@divisor+4)^0,w,c
  6566  006826  5805               	subwfb	(___aodiv@dividend+4)^0,w,c
  6567  006828  500E               	movf	(___aodiv@divisor+5)^0,w,c
  6568  00682A  5806               	subwfb	(___aodiv@dividend+5)^0,w,c
  6569  00682C  500F               	movf	(___aodiv@divisor+6)^0,w,c
  6570  00682E  5807               	subwfb	(___aodiv@dividend+6)^0,w,c
  6571  006830  5010               	movf	(___aodiv@divisor+7)^0,w,c
  6572  006832  5808               	subwfb	(___aodiv@dividend+7)^0,w,c
  6573  006834  A0D8               	btfss	status,0,c
  6574  006836  EF1F  F034         	goto	u1061
  6575  00683A  EF21  F034         	goto	u1060
  6576  00683E                     u1061:
  6577  00683E  EF32  F034         	goto	l2398
  6578  006842                     u1060:
  6579  006842  5009               	movf	___aodiv@divisor^0,w,c
  6580  006844  5E01               	subwf	___aodiv@dividend^0,f,c
  6581  006846  500A               	movf	(___aodiv@divisor+1)^0,w,c
  6582  006848  5A02               	subwfb	(___aodiv@dividend+1)^0,f,c
  6583  00684A  500B               	movf	(___aodiv@divisor+2)^0,w,c
  6584  00684C  5A03               	subwfb	(___aodiv@dividend+2)^0,f,c
  6585  00684E  500C               	movf	(___aodiv@divisor+3)^0,w,c
  6586  006850  5A04               	subwfb	(___aodiv@dividend+3)^0,f,c
  6587  006852  500D               	movf	(___aodiv@divisor+4)^0,w,c
  6588  006854  5A05               	subwfb	(___aodiv@dividend+4)^0,f,c
  6589  006856  500E               	movf	(___aodiv@divisor+5)^0,w,c
  6590  006858  5A06               	subwfb	(___aodiv@dividend+5)^0,f,c
  6591  00685A  500F               	movf	(___aodiv@divisor+6)^0,w,c
  6592  00685C  5A07               	subwfb	(___aodiv@dividend+6)^0,f,c
  6593  00685E  5010               	movf	(___aodiv@divisor+7)^0,w,c
  6594  006860  5A08               	subwfb	(___aodiv@dividend+7)^0,f,c
  6595  006862  8013               	bsf	___aodiv@quotient^0,0,c
  6596  006864                     l2398:
  6597  006864  90D8               	bcf	status,0,c
  6598  006866  3210               	rrcf	(___aodiv@divisor+7)^0,f,c
  6599  006868  320F               	rrcf	(___aodiv@divisor+6)^0,f,c
  6600  00686A  320E               	rrcf	(___aodiv@divisor+5)^0,f,c
  6601  00686C  320D               	rrcf	(___aodiv@divisor+4)^0,f,c
  6602  00686E  320C               	rrcf	(___aodiv@divisor+3)^0,f,c
  6603  006870  320B               	rrcf	(___aodiv@divisor+2)^0,f,c
  6604  006872  320A               	rrcf	(___aodiv@divisor+1)^0,f,c
  6605  006874  3209               	rrcf	___aodiv@divisor^0,f,c
  6606  006876  2E11               	decfsz	___aodiv@counter^0,f,c
  6607  006878  EF01  F034         	goto	l2390
  6608  00687C                     l2402:
  6609  00687C  5012               	movf	___aodiv@sign^0,w,c
  6610  00687E  B4D8               	btfsc	status,2,c
  6611  006880  EF44  F034         	goto	u1071
  6612  006884  EF46  F034         	goto	u1070
  6613  006888                     u1071:
  6614  006888  EF56  F034         	goto	l2406
  6615  00688C                     u1070:
  6616  00688C  1E1A               	comf	(___aodiv@quotient+7)^0,f,c
  6617  00688E  1E19               	comf	(___aodiv@quotient+6)^0,f,c
  6618  006890  1E18               	comf	(___aodiv@quotient+5)^0,f,c
  6619  006892  1E17               	comf	(___aodiv@quotient+4)^0,f,c
  6620  006894  1E16               	comf	(___aodiv@quotient+3)^0,f,c
  6621  006896  1E15               	comf	(___aodiv@quotient+2)^0,f,c
  6622  006898  1E14               	comf	(___aodiv@quotient+1)^0,f,c
  6623  00689A  6C13               	negf	___aodiv@quotient^0,c
  6624  00689C  0E00               	movlw	0
  6625  00689E  2214               	addwfc	(___aodiv@quotient+1)^0,f,c
  6626  0068A0  2215               	addwfc	(___aodiv@quotient+2)^0,f,c
  6627  0068A2  2216               	addwfc	(___aodiv@quotient+3)^0,f,c
  6628  0068A4  2217               	addwfc	(___aodiv@quotient+4)^0,f,c
  6629  0068A6  2218               	addwfc	(___aodiv@quotient+5)^0,f,c
  6630  0068A8  2219               	addwfc	(___aodiv@quotient+6)^0,f,c
  6631  0068AA  221A               	addwfc	(___aodiv@quotient+7)^0,f,c
  6632  0068AC                     l2406:
  6633  0068AC  C013  F001         	movff	___aodiv@quotient,?___aodiv
  6634  0068B0  C014  F002         	movff	___aodiv@quotient+1,?___aodiv+1
  6635  0068B4  C015  F003         	movff	___aodiv@quotient+2,?___aodiv+2
  6636  0068B8  C016  F004         	movff	___aodiv@quotient+3,?___aodiv+3
  6637  0068BC  C017  F005         	movff	___aodiv@quotient+4,?___aodiv+4
  6638  0068C0  C018  F006         	movff	___aodiv@quotient+5,?___aodiv+5
  6639  0068C4  C019  F007         	movff	___aodiv@quotient+6,?___aodiv+6
  6640  0068C8  C01A  F008         	movff	___aodiv@quotient+7,?___aodiv+7
  6641  0068CC  0012               	return		;funcret
  6642  0068CE                     __end_of___aodiv:
  6643                           	callstack 0
  6644                           
  6645 ;; *************** function _ctoa *****************
  6646 ;; Defined at:
  6647 ;;		line 259 in file "C:\Program Files\Microchip\xc8\v2.32\pic\sources\c99\common\doprnt.c"
  6648 ;; Parameters:    Size  Location     Type
  6649 ;;  fp              2    9[COMRAM] PTR struct _IO_FILE
  6650 ;;		 -> sprintf@f(6), 
  6651 ;;  c               1   11[COMRAM] unsigned char 
  6652 ;; Auto vars:     Size  Location     Type
  6653 ;;  w               2   15[COMRAM] int 
  6654 ;;  l               2   13[COMRAM] int 
  6655 ;; Return value:  Size  Location     Type
  6656 ;;                  2    9[COMRAM] int 
  6657 ;; Registers used:
  6658 ;;		wreg, fsr1l, fsr1h, fsr2l, fsr2h, status,2, status,0, cstack
  6659 ;; Tracked objects:
  6660 ;;		On entry : 0/0
  6661 ;;		On exit  : 0/0
  6662 ;;		Unchanged: 0/0
  6663 ;; Data sizes:     COMRAM   BANK0   BANK1   BANK2   BANK3   BANK4   BANK5   BANK6   BANK7
  6664 ;;      Params:         3       0       0       0       0       0       0       0       0
  6665 ;;      Locals:         4       0       0       0       0       0       0       0       0
  6666 ;;      Temps:          1       0       0       0       0       0       0       0       0
  6667 ;;      Totals:         8       0       0       0       0       0       0       0       0
  6668 ;;Total ram usage:        8 bytes
  6669 ;; Hardware stack levels used: 1
  6670 ;; Hardware stack levels required when called: 2
  6671 ;; This function calls:
  6672 ;;		_fputc
  6673 ;; This function is called by:
  6674 ;;		_vfpfcnvrt
  6675 ;; This function uses a non-reentrant model
  6676 ;;
  6677                           
  6678                           	psect	text24
  6679  00650A                     __ptext24:
  6680                           	callstack 0
  6681  00650A                     _ctoa:
  6682                           	callstack 25
  6683  00650A  0100               	movlb	0	; () banked
  6684  00650C  51A0               	movf	_width& (0+255),w,b
  6685  00650E  11A1               	iorwf	(_width+1)& (0+255),w,b
  6686  006510  A4D8               	btfss	status,2,c
  6687  006512  EF8D  F032         	goto	u1191
  6688  006516  EF8F  F032         	goto	u1190
  6689  00651A                     u1191:
  6690  00651A  EF95  F032         	goto	l2500
  6691  00651E                     u1190:
  6692  00651E                     
  6693                           ; BSR set to: 0
  6694  00651E  C0A0  F010         	movff	_width,ctoa@w
  6695  006522  C0A1  F011         	movff	_width+1,ctoa@w+1
  6696  006526  EF9B  F032         	goto	l2502
  6697  00652A                     l2500:
  6698                           
  6699                           ; BSR set to: 0
  6700  00652A  0EFF               	movlw	255
  6701  00652C  25A0               	addwf	_width& (0+255),w,b
  6702  00652E  6E10               	movwf	ctoa@w^0,c
  6703  006530  0EFF               	movlw	255
  6704  006532  21A1               	addwfc	(_width+1)& (0+255),w,b
  6705  006534  6E11               	movwf	(ctoa@w+1)^0,c
  6706  006536                     l2502:
  6707                           
  6708                           ; BSR set to: 0
  6709  006536  A1A4               	btfss	_flags& (0+255),0,b
  6710  006538  EFA0  F032         	goto	u1201
  6711  00653C  EFA2  F032         	goto	u1200
  6712  006540                     u1201:
  6713  006540  EFAB  F032         	goto	l2506
  6714  006544                     u1200:
  6715  006544                     
  6716                           ; BSR set to: 0
  6717  006544  C00C  F001         	movff	ctoa@c,fputc@c
  6718  006548  6A02               	clrf	(fputc@c+1)^0,c
  6719  00654A  C00A  F003         	movff	ctoa@fp,fputc@fp
  6720  00654E  C00B  F004         	movff	ctoa@fp+1,fputc@fp+1
  6721  006552  EC20  F032         	call	_fputc	;wreg free
  6722  006556                     l2506:
  6723  006556  BE11               	btfsc	(ctoa@w+1)^0,7,c
  6724  006558  EFB0  F032         	goto	u1211
  6725  00655C  EFB2  F032         	goto	u1210
  6726  006560                     u1211:
  6727  006560  EFB4  F032         	goto	l2510
  6728  006564                     u1210:
  6729  006564  EFB8  F032         	goto	l1094
  6730  006568                     l2510:
  6731  006568  0E00               	movlw	0
  6732  00656A  6E11               	movwf	(ctoa@w+1)^0,c
  6733  00656C  0E00               	movlw	0
  6734  00656E  6E10               	movwf	ctoa@w^0,c
  6735  006570                     l1094:
  6736  006570  0E00               	movlw	0
  6737  006572  6E0F               	movwf	(ctoa@l+1)^0,c
  6738  006574  0E00               	movlw	0
  6739  006576  6E0E               	movwf	ctoa@l^0,c
  6740  006578  EFCA  F032         	goto	l2516
  6741  00657C                     l2512:
  6742  00657C  0E00               	movlw	0
  6743  00657E  6E02               	movwf	(fputc@c+1)^0,c
  6744  006580  0E20               	movlw	32
  6745  006582  6E01               	movwf	fputc@c^0,c
  6746  006584  C00A  F003         	movff	ctoa@fp,fputc@fp
  6747  006588  C00B  F004         	movff	ctoa@fp+1,fputc@fp+1
  6748  00658C  EC20  F032         	call	_fputc	;wreg free
  6749  006590  4A0E               	infsnz	ctoa@l^0,f,c
  6750  006592  2A0F               	incf	(ctoa@l+1)^0,f,c
  6751  006594                     l2516:
  6752  006594  5010               	movf	ctoa@w^0,w,c
  6753  006596  5C0E               	subwf	ctoa@l^0,w,c
  6754  006598  500F               	movf	(ctoa@l+1)^0,w,c
  6755  00659A  0A80               	xorlw	128
  6756  00659C  6E0D               	movwf	??_ctoa^0,c
  6757  00659E  5011               	movf	(ctoa@w+1)^0,w,c
  6758  0065A0  0A80               	xorlw	128
  6759  0065A2  580D               	subwfb	??_ctoa^0,w,c
  6760  0065A4  A0D8               	btfss	status,0,c
  6761  0065A6  EFD7  F032         	goto	u1221
  6762  0065AA  EFD9  F032         	goto	u1220
  6763  0065AE                     u1221:
  6764  0065AE  EFBE  F032         	goto	l2512
  6765  0065B2                     u1220:
  6766  0065B2  0100               	movlb	0	; () banked
  6767  0065B4  B1A4               	btfsc	_flags& (0+255),0,b
  6768  0065B6  EFDF  F032         	goto	u1231
  6769  0065BA  EFE1  F032         	goto	u1230
  6770  0065BE                     u1231:
  6771  0065BE  EFEA  F032         	goto	l2520
  6772  0065C2                     u1230:
  6773  0065C2                     
  6774                           ; BSR set to: 0
  6775  0065C2  C00C  F001         	movff	ctoa@c,fputc@c
  6776  0065C6  6A02               	clrf	(fputc@c+1)^0,c
  6777  0065C8  C00A  F003         	movff	ctoa@fp,fputc@fp
  6778  0065CC  C00B  F004         	movff	ctoa@fp+1,fputc@fp+1
  6779  0065D0  EC20  F032         	call	_fputc	;wreg free
  6780  0065D4                     l2520:
  6781  0065D4  0E01               	movlw	1
  6782  0065D6  240E               	addwf	ctoa@l^0,w,c
  6783  0065D8  6E0A               	movwf	?_ctoa^0,c
  6784  0065DA  0E00               	movlw	0
  6785  0065DC  200F               	addwfc	(ctoa@l+1)^0,w,c
  6786  0065DE  6E0B               	movwf	(?_ctoa+1)^0,c
  6787  0065E0  0012               	return		;funcret
  6788  0065E2                     __end_of_ctoa:
  6789                           	callstack 0
  6790                           
  6791 ;; *************** function _fputc *****************
  6792 ;; Defined at:
  6793 ;;		line 8 in file "C:\Program Files\Microchip\xc8\v2.32\pic\sources\c99\common\nf_fputc.c"
  6794 ;; Parameters:    Size  Location     Type
  6795 ;;  c               2    0[COMRAM] int 
  6796 ;;  fp              2    2[COMRAM] PTR struct _IO_FILE
  6797 ;;		 -> sprintf@f(6), 
  6798 ;; Auto vars:     Size  Location     Type
  6799 ;;		None
  6800 ;; Return value:  Size  Location     Type
  6801 ;;                  2    0[COMRAM] int 
  6802 ;; Registers used:
  6803 ;;		wreg, fsr1l, fsr1h, fsr2l, fsr2h, status,2, status,0, cstack
  6804 ;; Tracked objects:
  6805 ;;		On entry : 0/0
  6806 ;;		On exit  : 0/0
  6807 ;;		Unchanged: 0/0
  6808 ;; Data sizes:     COMRAM   BANK0   BANK1   BANK2   BANK3   BANK4   BANK5   BANK6   BANK7
  6809 ;;      Params:         4       0       0       0       0       0       0       0       0
  6810 ;;      Locals:         0       0       0       0       0       0       0       0       0
  6811 ;;      Temps:          5       0       0       0       0       0       0       0       0
  6812 ;;      Totals:         9       0       0       0       0       0       0       0       0
  6813 ;;Total ram usage:        9 bytes
  6814 ;; Hardware stack levels used: 1
  6815 ;; Hardware stack levels required when called: 1
  6816 ;; This function calls:
  6817 ;;		_putch
  6818 ;; This function is called by:
  6819 ;;		_pad
  6820 ;;		_ctoa
  6821 ;;		_vfpfcnvrt
  6822 ;;		_fputs
  6823 ;; This function uses a non-reentrant model
  6824 ;;
  6825                           
  6826                           	psect	text25
  6827  006440                     __ptext25:
  6828                           	callstack 0
  6829  006440                     _fputc:
  6830                           	callstack 26
  6831  006440  5003               	movf	fputc@fp^0,w,c
  6832  006442  1004               	iorwf	(fputc@fp+1)^0,w,c
  6833  006444  B4D8               	btfsc	status,2,c
  6834  006446  EF27  F032         	goto	u951
  6835  00644A  EF29  F032         	goto	u950
  6836  00644E                     u951:
  6837  00644E  EF32  F032         	goto	l2324
  6838  006452                     u950:
  6839  006452  5003               	movf	fputc@fp^0,w,c
  6840  006454  1004               	iorwf	(fputc@fp+1)^0,w,c
  6841  006456  A4D8               	btfss	status,2,c
  6842  006458  EF30  F032         	goto	u961
  6843  00645C  EF32  F032         	goto	u960
  6844  006460                     u961:
  6845  006460  EF37  F032         	goto	l2326
  6846  006464                     u960:
  6847  006464                     l2324:
  6848  006464  5001               	movf	fputc@c^0,w,c
  6849  006466  ECB0  F02D         	call	_putch
  6850  00646A  EF84  F032         	goto	l1159
  6851  00646E                     l2326:
  6852  00646E  EE20 F004          	lfsr	2,4
  6853  006472  5003               	movf	fputc@fp^0,w,c
  6854  006474  26D9               	addwf	fsr2l,f,c
  6855  006476  5004               	movf	(fputc@fp+1)^0,w,c
  6856  006478  22DA               	addwfc	fsr2h,f,c
  6857  00647A  50DE               	movf	postinc2,w,c
  6858  00647C  10DE               	iorwf	postinc2,w,c
  6859  00647E  B4D8               	btfsc	status,2,c
  6860  006480  EF44  F032         	goto	u971
  6861  006484  EF46  F032         	goto	u970
  6862  006488                     u971:
  6863  006488  EF61  F032         	goto	l2330
  6864  00648C                     u970:
  6865  00648C  EE20 F004          	lfsr	2,4
  6866  006490  5003               	movf	fputc@fp^0,w,c
  6867  006492  26D9               	addwf	fsr2l,f,c
  6868  006494  5004               	movf	(fputc@fp+1)^0,w,c
  6869  006496  22DA               	addwfc	fsr2h,f,c
  6870  006498  EE10 F002          	lfsr	1,2
  6871  00649C  5003               	movf	fputc@fp^0,w,c
  6872  00649E  26E1               	addwf	fsr1l,f,c
  6873  0064A0  5004               	movf	(fputc@fp+1)^0,w,c
  6874  0064A2  22E2               	addwfc	fsr1h,f,c
  6875  0064A4  50DE               	movf	postinc2,w,c
  6876  0064A6  5CE6               	subwf	postinc1,w,c
  6877  0064A8  50E6               	movf	postinc1,w,c
  6878  0064AA  0A80               	xorlw	128
  6879  0064AC  6E09               	movwf	(??_fputc+4)^0,c
  6880  0064AE  50DE               	movf	postinc2,w,c
  6881  0064B0  0A80               	xorlw	128
  6882  0064B2  5809               	subwfb	(??_fputc+4)^0,w,c
  6883  0064B4  B0D8               	btfsc	status,0,c
  6884  0064B6  EF5F  F032         	goto	u981
  6885  0064BA  EF61  F032         	goto	u980
  6886  0064BE                     u981:
  6887  0064BE  EF84  F032         	goto	l1159
  6888  0064C2                     u980:
  6889  0064C2                     l2330:
  6890  0064C2  EE20 F002          	lfsr	2,2
  6891  0064C6  5003               	movf	fputc@fp^0,w,c
  6892  0064C8  26D9               	addwf	fsr2l,f,c
  6893  0064CA  5004               	movf	(fputc@fp+1)^0,w,c
  6894  0064CC  22DA               	addwfc	fsr2h,f,c
  6895  0064CE  CFDE F005          	movff	postinc2,??_fputc
  6896  0064D2  CFDD F006          	movff	postdec2,??_fputc+1
  6897  0064D6  C003  FFD9         	movff	fputc@fp,fsr2l
  6898  0064DA  C004  FFDA         	movff	fputc@fp+1,fsr2h
  6899  0064DE  CFDE F007          	movff	postinc2,??_fputc+2
  6900  0064E2  CFDD F008          	movff	postdec2,??_fputc+3
  6901  0064E6  5005               	movf	??_fputc^0,w,c
  6902  0064E8  2407               	addwf	(??_fputc+2)^0,w,c
  6903  0064EA  6ED9               	movwf	fsr2l,c
  6904  0064EC  5006               	movf	(??_fputc+1)^0,w,c
  6905  0064EE  2008               	addwfc	(??_fputc+3)^0,w,c
  6906  0064F0  6EDA               	movwf	fsr2h,c
  6907  0064F2  C001  FFDF         	movff	fputc@c,indf2
  6908  0064F6  EE20 F002          	lfsr	2,2
  6909  0064FA  5003               	movf	fputc@fp^0,w,c
  6910  0064FC  26D9               	addwf	fsr2l,f,c
  6911  0064FE  5004               	movf	(fputc@fp+1)^0,w,c
  6912  006500  22DA               	addwfc	fsr2h,f,c
  6913  006502  2ADE               	incf	postinc2,f,c
  6914  006504  0E00               	movlw	0
  6915  006506  22DD               	addwfc	postdec2,f,c
  6916  006508                     l1159:
  6917  006508  0012               	return		;funcret
  6918  00650A                     __end_of_fputc:
  6919                           	callstack 0
  6920                           
  6921 ;; *************** function _putch *****************
  6922 ;; Defined at:
  6923 ;;		line 7 in file "C:\Program Files\Microchip\xc8\v2.32\pic\sources\c99\common\putch.c"
  6924 ;; Parameters:    Size  Location     Type
  6925 ;;  c               1    wreg     unsigned char 
  6926 ;; Auto vars:     Size  Location     Type
  6927 ;;  c               1    0[COMRAM] unsigned char 
  6928 ;; Return value:  Size  Location     Type
  6929 ;;                  1    wreg      void 
  6930 ;; Registers used:
  6931 ;;		wreg
  6932 ;; Tracked objects:
  6933 ;;		On entry : 0/0
  6934 ;;		On exit  : 0/0
  6935 ;;		Unchanged: 0/0
  6936 ;; Data sizes:     COMRAM   BANK0   BANK1   BANK2   BANK3   BANK4   BANK5   BANK6   BANK7
  6937 ;;      Params:         0       0       0       0       0       0       0       0       0
  6938 ;;      Locals:         0       0       0       0       0       0       0       0       0
  6939 ;;      Temps:          0       0       0       0       0       0       0       0       0
  6940 ;;      Totals:         0       0       0       0       0       0       0       0       0
  6941 ;;Total ram usage:        0 bytes
  6942 ;; Hardware stack levels used: 1
  6943 ;; This function calls:
  6944 ;;		Nothing
  6945 ;; This function is called by:
  6946 ;;		_fputc
  6947 ;; This function uses a non-reentrant model
  6948 ;;
  6949                           
  6950                           	psect	text26
  6951  005B60                     __ptext26:
  6952                           	callstack 0
  6953  005B60                     _putch:
  6954                           	callstack 26
  6955  005B60  0012               	return		;funcret
  6956  005B62                     __end_of_putch:
  6957                           	callstack 0
  6958                           
  6959 ;; *************** function _sendCommand *****************
  6960 ;; Defined at:
  6961 ;;		line 38 in file "main.c"
  6962 ;; Parameters:    Size  Location     Type
  6963 ;;  texto           2    1[COMRAM] PTR unsigned char 
  6964 ;;		 -> STR_92(12), STR_88(13), STR_85(14), STR_82(14), 
  6965 ;;		 -> STR_79(14), STR_76(14), STR_73(14), STR_70(14), 
  6966 ;;		 -> STR_67(14), STR_64(14), STR_61(14), STR_58(12), 
  6967 ;;		 -> STR_46(20), STR_42(20), STR_38(22), STR_34(20), 
  6968 ;;		 -> STR_30(21), STR_26(19), STR_22(19), STR_18(27), 
  6969 ;;		 -> STR_14(19), STR_10(18), STR_5(26), STR_4(26), 
  6970 ;;		 -> STR_3(26), STR_2(26), 
  6971 ;; Auto vars:     Size  Location     Type
  6972 ;;		None
  6973 ;; Return value:  Size  Location     Type
  6974 ;;                  1    wreg      void 
  6975 ;; Registers used:
  6976 ;;		wreg, status,2, status,0, tblptrl, tblptrh, tblptru, cstack
  6977 ;; Tracked objects:
  6978 ;;		On entry : 0/0
  6979 ;;		On exit  : 0/0
  6980 ;;		Unchanged: 0/0
  6981 ;; Data sizes:     COMRAM   BANK0   BANK1   BANK2   BANK3   BANK4   BANK5   BANK6   BANK7
  6982 ;;      Params:         2       0       0       0       0       0       0       0       0
  6983 ;;      Locals:         0       0       0       0       0       0       0       0       0
  6984 ;;      Temps:          0       0       0       0       0       0       0       0       0
  6985 ;;      Totals:         2       0       0       0       0       0       0       0       0
  6986 ;;Total ram usage:        2 bytes
  6987 ;; Hardware stack levels used: 1
  6988 ;; Hardware stack levels required when called: 1
  6989 ;; This function calls:
  6990 ;;		_EUSART1_Write
  6991 ;; This function is called by:
  6992 ;;		_init_mod_LoRa
  6993 ;;		_main
  6994 ;;		_RN_Leds
  6995 ;; This function uses a non-reentrant model
  6996 ;;
  6997                           
  6998                           	psect	text27
  6999  005DA8                     __ptext27:
  7000                           	callstack 0
  7001  005DA8                     _sendCommand:
  7002                           	callstack 29
  7003  005DA8                     
  7004                           ;main.c: 38: void sendCommand(char * texto);main.c: 39: {;main.c: 40:     while(* texto)
  7005  005DA8  EFE0  F02E         	goto	l2762
  7006  005DAC                     l2758:
  7007                           
  7008                           ;main.c: 41:     {;main.c: 42:         EUSART1_Write(* texto);
  7009  005DAC  C002  FFF6         	movff	sendCommand@texto,tblptrl
  7010  005DB0  C003  FFF7         	movff	sendCommand@texto+1,tblptrh
  7011  005DB4                     	if	0	;tblptru may be non-zero
  7012  005DB4                     	endif
  7013  005DB4                     	if	0	;tblptru may be non-zero
  7014  005DB4                     	endif
  7015  005DB4  0008               	tblrd		*
  7016  005DB6  50F5               	movf	tablat,w,c
  7017  005DB8  EC11  F02E         	call	_EUSART1_Write
  7018  005DBC                     
  7019                           ;main.c: 43:         texto++;
  7020  005DBC  4A02               	infsnz	sendCommand@texto^0,f,c
  7021  005DBE  2A03               	incf	(sendCommand@texto+1)^0,f,c
  7022  005DC0                     l2762:
  7023                           
  7024                           ;main.c: 40:     while(* texto)
  7025  005DC0  C002  FFF6         	movff	sendCommand@texto,tblptrl
  7026  005DC4  C003  FFF7         	movff	sendCommand@texto+1,tblptrh
  7027  005DC8                     	if	0	;tblptru may be non-zero
  7028  005DC8                     	endif
  7029  005DC8                     	if	0	;tblptru may be non-zero
  7030  005DC8                     	endif
  7031  005DC8  0008               	tblrd		*
  7032  005DCA  50F5               	movf	tablat,w,c
  7033  005DCC  0900               	iorlw	0
  7034  005DCE  A4D8               	btfss	status,2,c
  7035  005DD0  EFEC  F02E         	goto	u1541
  7036  005DD4  EFEE  F02E         	goto	u1540
  7037  005DD8                     u1541:
  7038  005DD8  EFD6  F02E         	goto	l2758
  7039  005DDC                     u1540:
  7040  005DDC  0012               	return		;funcret
  7041  005DDE                     __end_of_sendCommand:
  7042                           	callstack 0
  7043                           
  7044 ;; *************** function _EUSART1_Write *****************
  7045 ;; Defined at:
  7046 ;;		line 156 in file "mcc_generated_files/eusart1.c"
  7047 ;; Parameters:    Size  Location     Type
  7048 ;;  txData          1    wreg     unsigned char 
  7049 ;; Auto vars:     Size  Location     Type
  7050 ;;  txData          1    0[COMRAM] unsigned char 
  7051 ;; Return value:  Size  Location     Type
  7052 ;;                  1    wreg      void 
  7053 ;; Registers used:
  7054 ;;		wreg
  7055 ;; Tracked objects:
  7056 ;;		On entry : 0/0
  7057 ;;		On exit  : 0/0
  7058 ;;		Unchanged: 0/0
  7059 ;; Data sizes:     COMRAM   BANK0   BANK1   BANK2   BANK3   BANK4   BANK5   BANK6   BANK7
  7060 ;;      Params:         0       0       0       0       0       0       0       0       0
  7061 ;;      Locals:         1       0       0       0       0       0       0       0       0
  7062 ;;      Temps:          0       0       0       0       0       0       0       0       0
  7063 ;;      Totals:         1       0       0       0       0       0       0       0       0
  7064 ;;Total ram usage:        1 bytes
  7065 ;; Hardware stack levels used: 1
  7066 ;; This function calls:
  7067 ;;		Nothing
  7068 ;; This function is called by:
  7069 ;;		_sendCommand
  7070 ;;		_Endline
  7071 ;; This function uses a non-reentrant model
  7072 ;;
  7073                           
  7074                           	psect	text28
  7075  005C22                     __ptext28:
  7076                           	callstack 0
  7077  005C22                     _EUSART1_Write:
  7078                           	callstack 29
  7079                           
  7080                           ;incstack = 0
  7081                           ;EUSART1_Write@txData stored from wreg
  7082  005C22  6E01               	movwf	EUSART1_Write@txData^0,c
  7083  005C24                     l74:
  7084                           
  7085                           ;mcc_generated_files/eusart1.c: 158:     while(0 == PIR1bits.TX1IF)
  7086  005C24  A89E               	btfss	158,4,c	;volatile
  7087  005C26  EF17  F02E         	goto	u1451
  7088  005C2A  EF19  F02E         	goto	u1450
  7089  005C2E                     u1451:
  7090  005C2E  EF12  F02E         	goto	l74
  7091  005C32                     u1450:
  7092  005C32                     
  7093                           ;mcc_generated_files/eusart1.c: 162:     TXREG1 = txData;
  7094  005C32  C001  FFAD         	movff	EUSART1_Write@txData,4013	;volatile
  7095  005C36  0012               	return		;funcret
  7096  005C38                     __end_of_EUSART1_Write:
  7097                           	callstack 0
  7098                           
  7099 ;; *************** function _oled_putString *****************
  7100 ;; Defined at:
  7101 ;;		line 331 in file "SSD1306oLED.c"
  7102 ;; Parameters:    Size  Location     Type
  7103 ;;  string          2   12[COMRAM] PTR const unsigned char 
  7104 ;;		 -> oled_putUint16@numData(6), oled_putint8@numData(6), oled_putUint8@numData(6), STR_94(7), 
  7105 ;;		 -> STR_91(10), STR_90(7), STR_87(8), STR_84(14), 
  7106 ;;		 -> STR_81(14), STR_78(14), STR_75(14), STR_72(14), 
  7107 ;;		 -> STR_69(14), STR_66(14), STR_63(14), STR_60(14), 
  7108 ;;		 -> main@read(32), STR_57(10), STR_54(8), STR_53(16), 
  7109 ;;		 -> test_LoRa@READ(64), test_LoRa@read(32), STR_50(10), STR_49(16), 
  7110 ;;		 -> STR_45(5), STR_41(21), STR_37(4), STR_33(10), 
  7111 ;;		 -> STR_29(9), STR_25(12), STR_21(16), STR_17(11), 
  7112 ;;		 -> STR_13(15), init_mod_LoRa@read(10), STR_9(9), STR_8(17), 
  7113 ;;		 -> init_mod_LoRa@READ(10), STR_1(10), 
  7114 ;;  station_dot     1   14[COMRAM] unsigned char 
  7115 ;;  start_page      1   15[COMRAM] unsigned char 
  7116 ;; Auto vars:     Size  Location     Type
  7117 ;;  index           1   16[COMRAM] unsigned char 
  7118 ;; Return value:  Size  Location     Type
  7119 ;;                  1    wreg      void 
  7120 ;; Registers used:
  7121 ;;		wreg, fsr0l, fsr0h, status,2, status,0, tblptrl, tblptrh, tblptru, prodl, prodh, cstack
  7122 ;; Tracked objects:
  7123 ;;		On entry : 0/0
  7124 ;;		On exit  : 0/0
  7125 ;;		Unchanged: 0/0
  7126 ;; Data sizes:     COMRAM   BANK0   BANK1   BANK2   BANK3   BANK4   BANK5   BANK6   BANK7
  7127 ;;      Params:         4       0       0       0       0       0       0       0       0
  7128 ;;      Locals:         1       0       0       0       0       0       0       0       0
  7129 ;;      Temps:          0       0       0       0       0       0       0       0       0
  7130 ;;      Totals:         5       0       0       0       0       0       0       0       0
  7131 ;;Total ram usage:        5 bytes
  7132 ;; Hardware stack levels used: 1
  7133 ;; Hardware stack levels required when called: 3
  7134 ;; This function calls:
  7135 ;;		_oled_putChar
  7136 ;; This function is called by:
  7137 ;;		_init_mod_LoRa
  7138 ;;		_main
  7139 ;;		_oled_putUint8
  7140 ;;		_test_leds
  7141 ;;		_test_LoRa
  7142 ;;		_oled_putint8
  7143 ;;		_oled_putUint16
  7144 ;; This function uses a non-reentrant model
  7145 ;;
  7146                           
  7147                           	psect	text29
  7148  0060F6                     __ptext29:
  7149                           	callstack 0
  7150  0060F6                     _oled_putString:
  7151                           	callstack 26
  7152  0060F6                     
  7153                           ;SSD1306oLED.c: 331: void oled_putString(const char *string, uint8_t station_dot, uint8_
      +                          t start_page);SSD1306oLED.c: 332: {;SSD1306oLED.c: 333:     uint8_t index;;SSD1306oLED.c
      +                          : 334:     for(index = station_dot; index < 16; index++)
  7154  0060F6  C00F  F011         	movff	oled_putString@station_dot,oled_putString@index
  7155  0060FA                     l2766:
  7156  0060FA  0E0F               	movlw	15
  7157  0060FC  6411               	cpfsgt	oled_putString@index^0,c
  7158  0060FE  EF83  F030         	goto	u1551
  7159  006102  EF85  F030         	goto	u1550
  7160  006106                     u1551:
  7161  006106  EF87  F030         	goto	l2770
  7162  00610A                     u1550:
  7163  00610A  EFBA  F030         	goto	l330
  7164  00610E                     l2770:
  7165                           
  7166                           ;SSD1306oLED.c: 335:     {;SSD1306oLED.c: 336:         if (*string != 0)
  7167  00610E  C00D  FFF6         	movff	oled_putString@string,tblptrl
  7168  006112  C00E  FFF7         	movff	oled_putString@string+1,tblptrh
  7169  006116  6AF8               	clrf	tblptru,c
  7170  006118  0E07               	movlw	(high __ramtop+-1)
  7171  00611A  64F7               	cpfsgt	tblptrh,c
  7172  00611C  D003               	bra	u1567
  7173  00611E  0008               	tblrd		*
  7174  006120  50F5               	movf	tablat,w,c
  7175  006122  D005               	bra	u1560
  7176  006124                     u1567:
  7177  006124  CFF6 FFE9          	movff	tblptrl,fsr0l
  7178  006128  CFF7 FFEA          	movff	tblptrh,fsr0h
  7179  00612C  50EF               	movf	indf0,w,c
  7180  00612E                     u1560:
  7181  00612E  0900               	iorlw	0
  7182  006130  B4D8               	btfsc	status,2,c
  7183  006132  EF9D  F030         	goto	u1571
  7184  006136  EF9F  F030         	goto	u1570
  7185  00613A                     u1571:
  7186  00613A  EFBA  F030         	goto	l330
  7187  00613E                     u1570:
  7188  00613E                     
  7189                           ;SSD1306oLED.c: 337:         {;SSD1306oLED.c: 338:             oled_putChar(*string, ind
      +                          ex, start_page);
  7190  00613E  C011  F003         	movff	oled_putString@index,oled_putChar@station_dot
  7191  006142  C010  F004         	movff	oled_putString@start_page,oled_putChar@start_page
  7192  006146  C00D  FFF6         	movff	oled_putString@string,tblptrl
  7193  00614A  C00E  FFF7         	movff	oled_putString@string+1,tblptrh
  7194  00614E  6AF8               	clrf	tblptru,c
  7195  006150  0E07               	movlw	(high __ramtop+-1)
  7196  006152  64F7               	cpfsgt	tblptrh,c
  7197  006154  D003               	bra	u1587
  7198  006156  0008               	tblrd		*
  7199  006158  50F5               	movf	tablat,w,c
  7200  00615A  D005               	bra	u1580
  7201  00615C                     u1587:
  7202  00615C  CFF6 FFE9          	movff	tblptrl,fsr0l
  7203  006160  CFF7 FFEA          	movff	tblptrh,fsr0h
  7204  006164  50EF               	movf	indf0,w,c
  7205  006166                     u1580:
  7206  006166  EC3D  F030         	call	_oled_putChar
  7207  00616A                     
  7208                           ;SSD1306oLED.c: 339:             *string++;
  7209  00616A  4A0D               	infsnz	oled_putString@string^0,f,c
  7210  00616C  2A0E               	incf	(oled_putString@string+1)^0,f,c
  7211  00616E                     
  7212                           ;SSD1306oLED.c: 345:     }
  7213  00616E  2A11               	incf	oled_putString@index^0,f,c
  7214  006170  EF7D  F030         	goto	l2766
  7215  006174                     l330:
  7216  006174  0012               	return		;funcret
  7217  006176                     __end_of_oled_putString:
  7218                           	callstack 0
  7219                           
  7220 ;; *************** function _oled_clear *****************
  7221 ;; Defined at:
  7222 ;;		line 348 in file "SSD1306oLED.c"
  7223 ;; Parameters:    Size  Location     Type
  7224 ;;		None
  7225 ;; Auto vars:     Size  Location     Type
  7226 ;;		None
  7227 ;; Return value:  Size  Location     Type
  7228 ;;                  1    wreg      void 
  7229 ;; Registers used:
  7230 ;;		wreg, status,2, status,0, tblptrl, tblptrh, tblptru, prodl, prodh, cstack
  7231 ;; Tracked objects:
  7232 ;;		On entry : 0/0
  7233 ;;		On exit  : 0/0
  7234 ;;		Unchanged: 0/0
  7235 ;; Data sizes:     COMRAM   BANK0   BANK1   BANK2   BANK3   BANK4   BANK5   BANK6   BANK7
  7236 ;;      Params:         0       0       0       0       0       0       0       0       0
  7237 ;;      Locals:         0       0       0       0       0       0       0       0       0
  7238 ;;      Temps:          0       0       0       0       0       0       0       0       0
  7239 ;;      Totals:         0       0       0       0       0       0       0       0       0
  7240 ;;Total ram usage:        0 bytes
  7241 ;; Hardware stack levels used: 1
  7242 ;; Hardware stack levels required when called: 4
  7243 ;; This function calls:
  7244 ;;		_oled_clearRow
  7245 ;; This function is called by:
  7246 ;;		_init_mod_LoRa
  7247 ;;		_main
  7248 ;;		_oled_init
  7249 ;;		_test_LoRa
  7250 ;; This function uses a non-reentrant model
  7251 ;;
  7252                           
  7253                           	psect	text30
  7254  005C38                     __ptext30:
  7255                           	callstack 0
  7256  005C38                     _oled_clear:
  7257                           	callstack 25
  7258  005C38                     
  7259                           ;SSD1306oLED.c: 350:     oled_clearRow(0);
  7260  005C38  0E00               	movlw	0
  7261  005C3A  EC47  F02E         	call	_oled_clearRow
  7262                           
  7263                           ;SSD1306oLED.c: 351:     oled_clearRow(1);
  7264  005C3E  0E01               	movlw	1
  7265  005C40  EC47  F02E         	call	_oled_clearRow
  7266                           
  7267                           ;SSD1306oLED.c: 352:     oled_clearRow(2);
  7268  005C44  0E02               	movlw	2
  7269  005C46  EC47  F02E         	call	_oled_clearRow
  7270                           
  7271                           ;SSD1306oLED.c: 353:     oled_clearRow(3);
  7272  005C4A  0E03               	movlw	3
  7273  005C4C  EC47  F02E         	call	_oled_clearRow
  7274  005C50  0012               	return		;funcret
  7275  005C52                     __end_of_oled_clear:
  7276                           	callstack 0
  7277                           
  7278 ;; *************** function _oled_clearRow *****************
  7279 ;; Defined at:
  7280 ;;		line 356 in file "SSD1306oLED.c"
  7281 ;; Parameters:    Size  Location     Type
  7282 ;;  page            1    wreg     unsigned char 
  7283 ;; Auto vars:     Size  Location     Type
  7284 ;;  page            1   12[COMRAM] unsigned char 
  7285 ;;  index           1   13[COMRAM] unsigned char 
  7286 ;; Return value:  Size  Location     Type
  7287 ;;                  1    wreg      void 
  7288 ;; Registers used:
  7289 ;;		wreg, status,2, status,0, tblptrl, tblptrh, tblptru, prodl, prodh, cstack
  7290 ;; Tracked objects:
  7291 ;;		On entry : 0/0
  7292 ;;		On exit  : 0/0
  7293 ;;		Unchanged: 0/0
  7294 ;; Data sizes:     COMRAM   BANK0   BANK1   BANK2   BANK3   BANK4   BANK5   BANK6   BANK7
  7295 ;;      Params:         0       0       0       0       0       0       0       0       0
  7296 ;;      Locals:         2       0       0       0       0       0       0       0       0
  7297 ;;      Temps:          0       0       0       0       0       0       0       0       0
  7298 ;;      Totals:         2       0       0       0       0       0       0       0       0
  7299 ;;Total ram usage:        2 bytes
  7300 ;; Hardware stack levels used: 1
  7301 ;; Hardware stack levels required when called: 3
  7302 ;; This function calls:
  7303 ;;		_oled_putChar
  7304 ;; This function is called by:
  7305 ;;		_init_mod_LoRa
  7306 ;;		_oled_clear
  7307 ;; This function uses a non-reentrant model
  7308 ;;
  7309                           
  7310                           	psect	text31
  7311  005C8E                     __ptext31:
  7312                           	callstack 0
  7313  005C8E                     _oled_clearRow:
  7314                           	callstack 25
  7315                           
  7316                           ;incstack = 0
  7317                           ;oled_clearRow@page stored from wreg
  7318  005C8E  6E0D               	movwf	oled_clearRow@page^0,c
  7319  005C90                     
  7320                           ;SSD1306oLED.c: 356: void oled_clearRow(uint8_t page);SSD1306oLED.c: 357: {;SSD1306oLED.
      +                          c: 358:     uint8_t index;;SSD1306oLED.c: 360:     for(index = 0; index < 16; index++)
  7321  005C90  0E00               	movlw	0
  7322  005C92  6E0E               	movwf	oled_clearRow@index^0,c
  7323  005C94                     l2668:
  7324                           
  7325                           ;SSD1306oLED.c: 361:     {;SSD1306oLED.c: 362:       oled_putChar( ' ', index, page);
  7326  005C94  C00E  F003         	movff	oled_clearRow@index,oled_putChar@station_dot
  7327  005C98  C00D  F004         	movff	oled_clearRow@page,oled_putChar@start_page
  7328  005C9C  0E20               	movlw	32
  7329  005C9E  EC3D  F030         	call	_oled_putChar
  7330  005CA2                     
  7331                           ;SSD1306oLED.c: 363:     }
  7332  005CA2  2A0E               	incf	oled_clearRow@index^0,f,c
  7333  005CA4  0E0F               	movlw	15
  7334  005CA6  640E               	cpfsgt	oled_clearRow@index^0,c
  7335  005CA8  EF58  F02E         	goto	u1461
  7336  005CAC  EF5A  F02E         	goto	u1460
  7337  005CB0                     u1461:
  7338  005CB0  EF4A  F02E         	goto	l2668
  7339  005CB4                     u1460:
  7340  005CB4  0012               	return		;funcret
  7341  005CB6                     __end_of_oled_clearRow:
  7342                           	callstack 0
  7343                           
  7344 ;; *************** function _oled_putChar *****************
  7345 ;; Defined at:
  7346 ;;		line 318 in file "SSD1306oLED.c"
  7347 ;; Parameters:    Size  Location     Type
  7348 ;;  k               1    wreg     unsigned char 
  7349 ;;  station_dot     1    2[COMRAM] unsigned char 
  7350 ;;  start_page      1    3[COMRAM] unsigned char 
  7351 ;; Auto vars:     Size  Location     Type
  7352 ;;  k               1   10[COMRAM] unsigned char 
  7353 ;;  index           1   11[COMRAM] unsigned char 
  7354 ;; Return value:  Size  Location     Type
  7355 ;;                  1    wreg      void 
  7356 ;; Registers used:
  7357 ;;		wreg, status,2, status,0, tblptrl, tblptrh, tblptru, prodl, prodh, cstack
  7358 ;; Tracked objects:
  7359 ;;		On entry : 0/0
  7360 ;;		On exit  : 0/0
  7361 ;;		Unchanged: 0/0
  7362 ;; Data sizes:     COMRAM   BANK0   BANK1   BANK2   BANK3   BANK4   BANK5   BANK6   BANK7
  7363 ;;      Params:         2       0       0       0       0       0       0       0       0
  7364 ;;      Locals:         2       0       0       0       0       0       0       0       0
  7365 ;;      Temps:          6       0       0       0       0       0       0       0       0
  7366 ;;      Totals:        10       0       0       0       0       0       0       0       0
  7367 ;;Total ram usage:       10 bytes
  7368 ;; Hardware stack levels used: 1
  7369 ;; Hardware stack levels required when called: 2
  7370 ;; This function calls:
  7371 ;;		_Set_Column_Address
  7372 ;;		_Set_Page_Address
  7373 ;;		_oled_writeData
  7374 ;; This function is called by:
  7375 ;;		_oled_putString
  7376 ;;		_oled_clearRow
  7377 ;; This function uses a non-reentrant model
  7378 ;;
  7379                           
  7380                           	psect	text32
  7381  00607A                     __ptext32:
  7382                           	callstack 0
  7383  00607A                     _oled_putChar:
  7384                           	callstack 26
  7385                           
  7386                           ;incstack = 0
  7387                           ;oled_putChar@k stored from wreg
  7388  00607A  6E0B               	movwf	oled_putChar@k^0,c
  7389  00607C                     
  7390                           ;SSD1306oLED.c: 318: void oled_putChar(char k,uint8_t station_dot, uint8_t start_page);S
      +                          SD1306oLED.c: 319: {;SSD1306oLED.c: 320:     uint8_t index;;SSD1306oLED.c: 322:     Set_
      +                          Page_Address(start_page);
  7391  00607C  5004               	movf	oled_putChar@start_page^0,w,c
  7392  00607E  ECE2  F02D         	call	_Set_Page_Address
  7393  006082                     
  7394                           ;SSD1306oLED.c: 323:     Set_Column_Address(0x00 + station_dot * 8 + 4);
  7395  006082  5003               	movf	oled_putChar@station_dot^0,w,c
  7396  006084  0D08               	mullw	8
  7397  006086  50F3               	movf	243,w,c
  7398  006088  0F04               	addlw	4
  7399  00608A  EC06  F02E         	call	_Set_Column_Address
  7400  00608E                     
  7401                           ;SSD1306oLED.c: 325:     for(index = 0; index < 8; index++)
  7402  00608E  0E00               	movlw	0
  7403  006090  6E0C               	movwf	oled_putChar@index^0,c
  7404  006092                     l2596:
  7405                           
  7406                           ;SSD1306oLED.c: 326:     {;SSD1306oLED.c: 327:         oled_writeData(*(selectedFont + 8
      +                           * (k - 0x20) + index));
  7407  006092  0E00               	movlw	0
  7408  006094  6E05               	movwf	??_oled_putChar^0,c
  7409  006096  0EFF               	movlw	255
  7410  006098  6E06               	movwf	(??_oled_putChar+1)^0,c
  7411  00609A  500B               	movf	oled_putChar@k^0,w,c
  7412  00609C  6E07               	movwf	(??_oled_putChar+2)^0,c
  7413  00609E  6A08               	clrf	(??_oled_putChar+3)^0,c
  7414  0060A0  90D8               	bcf	status,0,c
  7415  0060A2  3607               	rlcf	(??_oled_putChar+2)^0,f,c
  7416  0060A4  3608               	rlcf	(??_oled_putChar+3)^0,f,c
  7417  0060A6  90D8               	bcf	status,0,c
  7418  0060A8  3607               	rlcf	(??_oled_putChar+2)^0,f,c
  7419  0060AA  3608               	rlcf	(??_oled_putChar+3)^0,f,c
  7420  0060AC  90D8               	bcf	status,0,c
  7421  0060AE  3607               	rlcf	(??_oled_putChar+2)^0,f,c
  7422  0060B0  3608               	rlcf	(??_oled_putChar+3)^0,f,c
  7423  0060B2  C0CF  F009         	movff	_selectedFont,??_oled_putChar+4
  7424  0060B6  C0D0  F00A         	movff	_selectedFont+1,??_oled_putChar+5
  7425  0060BA  5007               	movf	(??_oled_putChar+2)^0,w,c
  7426  0060BC  2609               	addwf	(??_oled_putChar+4)^0,f,c
  7427  0060BE  5008               	movf	(??_oled_putChar+3)^0,w,c
  7428  0060C0  220A               	addwfc	(??_oled_putChar+5)^0,f,c
  7429  0060C2  500C               	movf	oled_putChar@index^0,w,c
  7430  0060C4  2609               	addwf	(??_oled_putChar+4)^0,f,c
  7431  0060C6  0E00               	movlw	0
  7432  0060C8  220A               	addwfc	(??_oled_putChar+5)^0,f,c
  7433  0060CA  5005               	movf	??_oled_putChar^0,w,c
  7434  0060CC  2609               	addwf	(??_oled_putChar+4)^0,f,c
  7435  0060CE  5006               	movf	(??_oled_putChar+1)^0,w,c
  7436  0060D0  220A               	addwfc	(??_oled_putChar+5)^0,f,c
  7437  0060D2  C009  FFF6         	movff	??_oled_putChar+4,tblptrl
  7438  0060D6  C00A  FFF7         	movff	??_oled_putChar+5,tblptrh
  7439  0060DA                     	if	0	;tblptru may be non-zero
  7440  0060DA                     	endif
  7441  0060DA                     	if	0	;tblptru may be non-zero
  7442  0060DA                     	endif
  7443  0060DA  0008               	tblrd		*
  7444  0060DC  50F5               	movf	tablat,w,c
  7445  0060DE  ECFC  F02D         	call	_oled_writeData
  7446  0060E2                     
  7447                           ;SSD1306oLED.c: 328:     }
  7448  0060E2  2A0C               	incf	oled_putChar@index^0,f,c
  7449  0060E4  0E07               	movlw	7
  7450  0060E6  640C               	cpfsgt	oled_putChar@index^0,c
  7451  0060E8  EF78  F030         	goto	u1391
  7452  0060EC  EF7A  F030         	goto	u1390
  7453  0060F0                     u1391:
  7454  0060F0  EF49  F030         	goto	l2596
  7455  0060F4                     u1390:
  7456  0060F4  0012               	return		;funcret
  7457  0060F6                     __end_of_oled_putChar:
  7458                           	callstack 0
  7459                           
  7460 ;; *************** function _oled_writeData *****************
  7461 ;; Defined at:
  7462 ;;		line 442 in file "SSD1306oLED.c"
  7463 ;; Parameters:    Size  Location     Type
  7464 ;;  data            1    wreg     unsigned char 
  7465 ;; Auto vars:     Size  Location     Type
  7466 ;;  data            1    0[COMRAM] unsigned char 
  7467 ;; Return value:  Size  Location     Type
  7468 ;;                  1    wreg      void 
  7469 ;; Registers used:
  7470 ;;		wreg
  7471 ;; Tracked objects:
  7472 ;;		On entry : 0/0
  7473 ;;		On exit  : 0/0
  7474 ;;		Unchanged: 0/0
  7475 ;; Data sizes:     COMRAM   BANK0   BANK1   BANK2   BANK3   BANK4   BANK5   BANK6   BANK7
  7476 ;;      Params:         0       0       0       0       0       0       0       0       0
  7477 ;;      Locals:         1       0       0       0       0       0       0       0       0
  7478 ;;      Temps:          0       0       0       0       0       0       0       0       0
  7479 ;;      Totals:         1       0       0       0       0       0       0       0       0
  7480 ;;Total ram usage:        1 bytes
  7481 ;; Hardware stack levels used: 1
  7482 ;; This function calls:
  7483 ;;		Nothing
  7484 ;; This function is called by:
  7485 ;;		_oled_putChar
  7486 ;; This function uses a non-reentrant model
  7487 ;;
  7488                           
  7489                           	psect	text33
  7490  005BF8                     __ptext33:
  7491                           	callstack 0
  7492  005BF8                     _oled_writeData:
  7493                           	callstack 27
  7494                           
  7495                           ;incstack = 0
  7496                           ;oled_writeData@data stored from wreg
  7497  005BF8  6E01               	movwf	oled_writeData@data^0,c
  7498  005BFA                     
  7499                           ;SSD1306oLED.c: 442: void oled_writeData(uint8_t data);SSD1306oLED.c: 443: {;SSD1306oLED
      +                          .c: 444:     LATBbits.LATB4=0;
  7500  005BFA  988A               	bcf	138,4,c	;volatile
  7501                           
  7502                           ;SSD1306oLED.c: 445:     LATCbits.LATC0=1;
  7503  005BFC  808B               	bsf	139,0,c	;volatile
  7504  005BFE                     
  7505                           ;SSD1306oLED.c: 446:     LATD=data;
  7506  005BFE  C001  FF8C         	movff	oled_writeData@data,3980	;volatile
  7507  005C02                     
  7508                           ;SSD1306oLED.c: 447:     LATCbits.LATC1=0;
  7509  005C02  928B               	bcf	139,1,c	;volatile
  7510  005C04                     
  7511                           ;SSD1306oLED.c: 448:     __nop();
  7512  005C04  F000               	nop	
  7513  005C06                     
  7514                           ;SSD1306oLED.c: 449:     LATCbits.LATC1=1;
  7515  005C06  828B               	bsf	139,1,c	;volatile
  7516  005C08                     
  7517                           ;SSD1306oLED.c: 450:     LATBbits.LATB4=1;
  7518  005C08  888A               	bsf	138,4,c	;volatile
  7519  005C0A  0012               	return		;funcret
  7520  005C0C                     __end_of_oled_writeData:
  7521                           	callstack 0
  7522                           
  7523 ;; *************** function _Set_Page_Address *****************
  7524 ;; Defined at:
  7525 ;;		line 241 in file "SSD1306oLED.c"
  7526 ;; Parameters:    Size  Location     Type
  7527 ;;  address         1    wreg     unsigned char 
  7528 ;; Auto vars:     Size  Location     Type
  7529 ;;  address         1    1[COMRAM] unsigned char 
  7530 ;; Return value:  Size  Location     Type
  7531 ;;                  1    wreg      void 
  7532 ;; Registers used:
  7533 ;;		wreg, status,2, status,0, cstack
  7534 ;; Tracked objects:
  7535 ;;		On entry : 0/0
  7536 ;;		On exit  : 0/0
  7537 ;;		Unchanged: 0/0
  7538 ;; Data sizes:     COMRAM   BANK0   BANK1   BANK2   BANK3   BANK4   BANK5   BANK6   BANK7
  7539 ;;      Params:         0       0       0       0       0       0       0       0       0
  7540 ;;      Locals:         1       0       0       0       0       0       0       0       0
  7541 ;;      Temps:          0       0       0       0       0       0       0       0       0
  7542 ;;      Totals:         1       0       0       0       0       0       0       0       0
  7543 ;;Total ram usage:        1 bytes
  7544 ;; Hardware stack levels used: 1
  7545 ;; Hardware stack levels required when called: 1
  7546 ;; This function calls:
  7547 ;;		_oled_writeCommand
  7548 ;; This function is called by:
  7549 ;;		_oled_putChar
  7550 ;; This function uses a non-reentrant model
  7551 ;;
  7552                           
  7553                           	psect	text34
  7554  005BC4                     __ptext34:
  7555                           	callstack 0
  7556  005BC4                     _Set_Page_Address:
  7557                           	callstack 26
  7558                           
  7559                           ;incstack = 0
  7560                           ;Set_Page_Address@address stored from wreg
  7561  005BC4  6E02               	movwf	Set_Page_Address@address^0,c
  7562  005BC6                     
  7563                           ;SSD1306oLED.c: 241: void Set_Page_Address(uint8_t address);SSD1306oLED.c: 242: {;SSD130
      +                          6oLED.c: 243:     address = 0xb0 | address;
  7564  005BC6  5002               	movf	Set_Page_Address@address^0,w,c
  7565  005BC8  09B0               	iorlw	176
  7566  005BCA  6E02               	movwf	Set_Page_Address@address^0,c
  7567  005BCC                     
  7568                           ;SSD1306oLED.c: 244:     oled_writeCommand(address);
  7569  005BCC  5002               	movf	Set_Page_Address@address^0,w,c
  7570  005BCE  ECF2  F02D         	call	_oled_writeCommand
  7571  005BD2  0012               	return		;funcret
  7572  005BD4                     __end_of_Set_Page_Address:
  7573                           	callstack 0
  7574                           
  7575 ;; *************** function _Set_Column_Address *****************
  7576 ;; Defined at:
  7577 ;;		line 249 in file "SSD1306oLED.c"
  7578 ;; Parameters:    Size  Location     Type
  7579 ;;  address         1    wreg     unsigned char 
  7580 ;; Auto vars:     Size  Location     Type
  7581 ;;  address         1    1[COMRAM] unsigned char 
  7582 ;; Return value:  Size  Location     Type
  7583 ;;                  1    wreg      void 
  7584 ;; Registers used:
  7585 ;;		wreg, status,2, status,0, cstack
  7586 ;; Tracked objects:
  7587 ;;		On entry : 0/0
  7588 ;;		On exit  : 0/0
  7589 ;;		Unchanged: 0/0
  7590 ;; Data sizes:     COMRAM   BANK0   BANK1   BANK2   BANK3   BANK4   BANK5   BANK6   BANK7
  7591 ;;      Params:         0       0       0       0       0       0       0       0       0
  7592 ;;      Locals:         1       0       0       0       0       0       0       0       0
  7593 ;;      Temps:          0       0       0       0       0       0       0       0       0
  7594 ;;      Totals:         1       0       0       0       0       0       0       0       0
  7595 ;;Total ram usage:        1 bytes
  7596 ;; Hardware stack levels used: 1
  7597 ;; Hardware stack levels required when called: 1
  7598 ;; This function calls:
  7599 ;;		_oled_writeCommand
  7600 ;; This function is called by:
  7601 ;;		_oled_putChar
  7602 ;; This function uses a non-reentrant model
  7603 ;;
  7604                           
  7605                           	psect	text35
  7606  005C0C                     __ptext35:
  7607                           	callstack 0
  7608  005C0C                     _Set_Column_Address:
  7609                           	callstack 26
  7610                           
  7611                           ;incstack = 0
  7612                           ;Set_Column_Address@address stored from wreg
  7613  005C0C  6E02               	movwf	Set_Column_Address@address^0,c
  7614  005C0E                     
  7615                           ;SSD1306oLED.c: 249: void Set_Column_Address(uint8_t address);SSD1306oLED.c: 250: {;SSD1
      +                          306oLED.c: 251:     oled_writeCommand((0x10|(address>>4)));
  7616  005C0E  3802               	swapf	Set_Column_Address@address^0,w,c
  7617  005C10  0B0F               	andlw	15
  7618  005C12  0910               	iorlw	16
  7619  005C14  ECF2  F02D         	call	_oled_writeCommand
  7620                           
  7621                           ;SSD1306oLED.c: 252:     oled_writeCommand((0x0f&address));
  7622  005C18  5002               	movf	Set_Column_Address@address^0,w,c
  7623  005C1A  0B0F               	andlw	15
  7624  005C1C  ECF2  F02D         	call	_oled_writeCommand
  7625  005C20  0012               	return		;funcret
  7626  005C22                     __end_of_Set_Column_Address:
  7627                           	callstack 0
  7628                           
  7629 ;; *************** function _oled_writeCommand *****************
  7630 ;; Defined at:
  7631 ;;		line 430 in file "SSD1306oLED.c"
  7632 ;; Parameters:    Size  Location     Type
  7633 ;;  command         1    wreg     unsigned char 
  7634 ;; Auto vars:     Size  Location     Type
  7635 ;;  command         1    0[COMRAM] unsigned char 
  7636 ;; Return value:  Size  Location     Type
  7637 ;;                  1    wreg      void 
  7638 ;; Registers used:
  7639 ;;		wreg
  7640 ;; Tracked objects:
  7641 ;;		On entry : 0/0
  7642 ;;		On exit  : 0/0
  7643 ;;		Unchanged: 0/0
  7644 ;; Data sizes:     COMRAM   BANK0   BANK1   BANK2   BANK3   BANK4   BANK5   BANK6   BANK7
  7645 ;;      Params:         0       0       0       0       0       0       0       0       0
  7646 ;;      Locals:         1       0       0       0       0       0       0       0       0
  7647 ;;      Temps:          0       0       0       0       0       0       0       0       0
  7648 ;;      Totals:         1       0       0       0       0       0       0       0       0
  7649 ;;Total ram usage:        1 bytes
  7650 ;; Hardware stack levels used: 1
  7651 ;; This function calls:
  7652 ;;		Nothing
  7653 ;; This function is called by:
  7654 ;;		_Set_Page_Address
  7655 ;;		_Set_Column_Address
  7656 ;;		_oled_devInit
  7657 ;;		_oled_setDisplay
  7658 ;;		_oled_setContrastControlRegister
  7659 ;;		_oled_initialDispayLine
  7660 ;;		_oled_powerControl
  7661 ;;		_oled_regulorResistorSelect
  7662 ;;		_oled_displayOff
  7663 ;; This function uses a non-reentrant model
  7664 ;;
  7665                           
  7666                           	psect	text36
  7667  005BE4                     __ptext36:
  7668                           	callstack 0
  7669  005BE4                     _oled_writeCommand:
  7670                           	callstack 26
  7671                           
  7672                           ;incstack = 0
  7673                           ;oled_writeCommand@command stored from wreg
  7674  005BE4  6E01               	movwf	oled_writeCommand@command^0,c
  7675  005BE6                     
  7676                           ;SSD1306oLED.c: 430: void oled_writeCommand(uint8_t command);SSD1306oLED.c: 431: {;SSD13
      +                          06oLED.c: 432:     LATBbits.LATB4=0;
  7677  005BE6  988A               	bcf	138,4,c	;volatile
  7678                           
  7679                           ;SSD1306oLED.c: 433:     LATCbits.LATC0=0;
  7680  005BE8  908B               	bcf	139,0,c	;volatile
  7681  005BEA                     
  7682                           ;SSD1306oLED.c: 434:     LATD=command;
  7683  005BEA  C001  FF8C         	movff	oled_writeCommand@command,3980	;volatile
  7684  005BEE                     
  7685                           ;SSD1306oLED.c: 435:     LATCbits.LATC1=0;
  7686  005BEE  928B               	bcf	139,1,c	;volatile
  7687  005BF0                     
  7688                           ;SSD1306oLED.c: 436:     __nop();
  7689  005BF0  F000               	nop	
  7690  005BF2                     
  7691                           ;SSD1306oLED.c: 437:     LATCbits.LATC1=1;
  7692  005BF2  828B               	bsf	139,1,c	;volatile
  7693  005BF4                     
  7694                           ;SSD1306oLED.c: 438:     LATBbits.LATB4=1;
  7695  005BF4  888A               	bsf	138,4,c	;volatile
  7696  005BF6  0012               	return		;funcret
  7697  005BF8                     __end_of_oled_writeCommand:
  7698                           	callstack 0
  7699                           
  7700 ;; *************** function _get_Data *****************
  7701 ;; Defined at:
  7702 ;;		line 132 in file "mcc_generated_files/eusart1.c"
  7703 ;; Parameters:    Size  Location     Type
  7704 ;;		None
  7705 ;; Auto vars:     Size  Location     Type
  7706 ;;		None
  7707 ;; Return value:  Size  Location     Type
  7708 ;;                  2    0[COMRAM] PTR unsigned char 
  7709 ;; Registers used:
  7710 ;;		wreg, status,2
  7711 ;; Tracked objects:
  7712 ;;		On entry : 0/0
  7713 ;;		On exit  : 0/0
  7714 ;;		Unchanged: 0/0
  7715 ;; Data sizes:     COMRAM   BANK0   BANK1   BANK2   BANK3   BANK4   BANK5   BANK6   BANK7
  7716 ;;      Params:         2       0       0       0       0       0       0       0       0
  7717 ;;      Locals:         0       0       0       0       0       0       0       0       0
  7718 ;;      Temps:          2       0       0       0       0       0       0       0       0
  7719 ;;      Totals:         4       0       0       0       0       0       0       0       0
  7720 ;;Total ram usage:        4 bytes
  7721 ;; Hardware stack levels used: 1
  7722 ;; This function calls:
  7723 ;;		Nothing
  7724 ;; This function is called by:
  7725 ;;		_init_mod_LoRa
  7726 ;;		_test_LoRa
  7727 ;; This function uses a non-reentrant model
  7728 ;;
  7729                           
  7730                           	psect	text37
  7731  005D72                     __ptext37:
  7732                           	callstack 0
  7733  005D72                     _get_Data:
  7734                           	callstack 29
  7735  005D72                     l67:
  7736                           
  7737                           ;mcc_generated_files/eusart1.c: 136:     while(!PIR1bits.RC1IF)
  7738  005D72  AA9E               	btfss	158,5,c	;volatile
  7739  005D74  EFBE  F02E         	goto	u1501
  7740  005D78  EFC0  F02E         	goto	u1500
  7741  005D7C                     u1501:
  7742  005D7C  EFB9  F02E         	goto	l67
  7743  005D80                     u1500:
  7744  005D80                     
  7745                           ;mcc_generated_files/eusart1.c: 140:     eusart1RxLastError.status = 0;
  7746  005D80  0E00               	movlw	0
  7747  005D82  0100               	movlb	0	; () banked
  7748  005D84  6FAE               	movwf	_eusart1RxLastError& (0+255),b	;volatile
  7749  005D86                     
  7750                           ; BSR set to: 0
  7751                           ;mcc_generated_files/eusart1.c: 142:     if(1 == RCSTA1bits.OERR)
  7752  005D86  A2AB               	btfss	171,1,c	;volatile
  7753  005D88  EFC8  F02E         	goto	u1511
  7754  005D8C  EFCA  F02E         	goto	u1510
  7755  005D90                     u1511:
  7756  005D90  EFCC  F02E         	goto	l2732
  7757  005D94                     u1510:
  7758  005D94                     
  7759                           ; BSR set to: 0
  7760                           ;mcc_generated_files/eusart1.c: 143:     {;mcc_generated_files/eusart1.c: 146:         R
      +                          CSTA1bits.CREN = 0;
  7761  005D94  98AB               	bcf	171,4,c	;volatile
  7762                           
  7763                           ;mcc_generated_files/eusart1.c: 147:         RCSTA1bits.CREN = 1;
  7764  005D96  88AB               	bsf	171,4,c	;volatile
  7765  005D98                     l2732:
  7766                           
  7767                           ; BSR set to: 0
  7768                           ;mcc_generated_files/eusart1.c: 154:     return RCREG1;
  7769  005D98  50AE               	movf	174,w,c	;volatile
  7770  005D9A  6E03               	movwf	??_get_Data^0,c
  7771  005D9C  6A04               	clrf	(??_get_Data+1)^0,c
  7772  005D9E  C003  F001         	movff	??_get_Data,?_get_Data
  7773  005DA2  C004  F002         	movff	??_get_Data+1,?_get_Data+1
  7774  005DA6                     
  7775                           ; BSR set to: 0
  7776  005DA6  0012               	return		;funcret
  7777  005DA8                     __end_of_get_Data:
  7778                           	callstack 0
  7779                           
  7780 ;; *************** function _delayms *****************
  7781 ;; Defined at:
  7782 ;;		line 23 in file "main.c"
  7783 ;; Parameters:    Size  Location     Type
  7784 ;;  length          2    0[COMRAM] unsigned short 
  7785 ;; Auto vars:     Size  Location     Type
  7786 ;;  counter         2    3[COMRAM] unsigned short 
  7787 ;; Return value:  Size  Location     Type
  7788 ;;                  1    wreg      void 
  7789 ;; Registers used:
  7790 ;;		wreg, status,2, status,0
  7791 ;; Tracked objects:
  7792 ;;		On entry : 0/0
  7793 ;;		On exit  : 0/0
  7794 ;;		Unchanged: 0/0
  7795 ;; Data sizes:     COMRAM   BANK0   BANK1   BANK2   BANK3   BANK4   BANK5   BANK6   BANK7
  7796 ;;      Params:         2       0       0       0       0       0       0       0       0
  7797 ;;      Locals:         2       0       0       0       0       0       0       0       0
  7798 ;;      Temps:          1       0       0       0       0       0       0       0       0
  7799 ;;      Totals:         5       0       0       0       0       0       0       0       0
  7800 ;;Total ram usage:        5 bytes
  7801 ;; Hardware stack levels used: 1
  7802 ;; This function calls:
  7803 ;;		Nothing
  7804 ;; This function is called by:
  7805 ;;		_init_mod_LoRa
  7806 ;;		_main
  7807 ;;		_test_leds
  7808 ;;		_test_LoRa
  7809 ;; This function uses a non-reentrant model
  7810 ;;
  7811                           
  7812                           	psect	text38
  7813  005E14                     __ptext38:
  7814                           	callstack 0
  7815  005E14                     _delayms:
  7816                           	callstack 29
  7817  005E14                     
  7818                           ;main.c: 23: void delayms(uint16_t length);main.c: 24: {;main.c: 25:     uint16_t counte
      +                          r;;main.c: 26:     for(counter = 0; counter < length; counter++)
  7819  005E14  0E00               	movlw	0
  7820  005E16  6E05               	movwf	(delayms@counter+1)^0,c
  7821  005E18  0E00               	movlw	0
  7822  005E1A  6E04               	movwf	delayms@counter^0,c
  7823  005E1C  EF1A  F02F         	goto	l196
  7824  005E20                     l2752:
  7825                           
  7826                           ;main.c: 27:     {;main.c: 28:         _delay((unsigned long)((1)*(48000000/4000.0)));
  7827  005E20  0E10               	movlw	16
  7828  005E22  6E03               	movwf	??_delayms^0,c
  7829  005E24  0E94               	movlw	148
  7830  005E26                     u1907:
  7831  005E26  2EE8               	decfsz	wreg,f,c
  7832  005E28  D7FE               	bra	u1907
  7833  005E2A  2E03               	decfsz	??_delayms^0,f,c
  7834  005E2C  D7FC               	bra	u1907
  7835  005E2E  D000               	nop2	
  7836  005E30                     
  7837                           ;main.c: 29:     }
  7838  005E30  4A04               	infsnz	delayms@counter^0,f,c
  7839  005E32  2A05               	incf	(delayms@counter+1)^0,f,c
  7840  005E34                     l196:
  7841  005E34  5001               	movf	delayms@length^0,w,c
  7842  005E36  5C04               	subwf	delayms@counter^0,w,c
  7843  005E38  5002               	movf	(delayms@length+1)^0,w,c
  7844  005E3A  5805               	subwfb	(delayms@counter+1)^0,w,c
  7845  005E3C  A0D8               	btfss	status,0,c
  7846  005E3E  EF23  F02F         	goto	u1531
  7847  005E42  EF25  F02F         	goto	u1530
  7848  005E46                     u1531:
  7849  005E46  EF10  F02F         	goto	l2752
  7850  005E4A                     u1530:
  7851  005E4A  0012               	return		;funcret
  7852  005E4C                     __end_of_delayms:
  7853                           	callstack 0
  7854                           
  7855 ;; *************** function _EUSART1_Read *****************
  7856 ;; Defined at:
  7857 ;;		line 113 in file "mcc_generated_files/eusart1.c"
  7858 ;; Parameters:    Size  Location     Type
  7859 ;;		None
  7860 ;; Auto vars:     Size  Location     Type
  7861 ;;		None
  7862 ;; Return value:  Size  Location     Type
  7863 ;;                  1    wreg      unsigned char 
  7864 ;; Registers used:
  7865 ;;		wreg, status,2
  7866 ;; Tracked objects:
  7867 ;;		On entry : 0/0
  7868 ;;		On exit  : 0/0
  7869 ;;		Unchanged: 0/0
  7870 ;; Data sizes:     COMRAM   BANK0   BANK1   BANK2   BANK3   BANK4   BANK5   BANK6   BANK7
  7871 ;;      Params:         0       0       0       0       0       0       0       0       0
  7872 ;;      Locals:         0       0       0       0       0       0       0       0       0
  7873 ;;      Temps:          0       0       0       0       0       0       0       0       0
  7874 ;;      Totals:         0       0       0       0       0       0       0       0       0
  7875 ;;Total ram usage:        0 bytes
  7876 ;; Hardware stack levels used: 1
  7877 ;; This function calls:
  7878 ;;		Nothing
  7879 ;; This function is called by:
  7880 ;;		_init_mod_LoRa
  7881 ;;		_main
  7882 ;;		_test_LoRa
  7883 ;; This function uses a non-reentrant model
  7884 ;;
  7885                           
  7886                           	psect	text39
  7887  005CB6                     __ptext39:
  7888                           	callstack 0
  7889  005CB6                     _EUSART1_Read:
  7890                           	callstack 29
  7891  005CB6                     l60:
  7892                           
  7893                           ;mcc_generated_files/eusart1.c: 115:     while(!PIR1bits.RC1IF)
  7894  005CB6  AA9E               	btfss	158,5,c	;volatile
  7895  005CB8  EF60  F02E         	goto	u1481
  7896  005CBC  EF62  F02E         	goto	u1480
  7897  005CC0                     u1481:
  7898  005CC0  EF5B  F02E         	goto	l60
  7899  005CC4                     u1480:
  7900  005CC4                     
  7901                           ;mcc_generated_files/eusart1.c: 119:     eusart1RxLastError.status = 0;
  7902  005CC4  0E00               	movlw	0
  7903  005CC6  0100               	movlb	0	; () banked
  7904  005CC8  6FAE               	movwf	_eusart1RxLastError& (0+255),b	;volatile
  7905  005CCA                     
  7906                           ; BSR set to: 0
  7907                           ;mcc_generated_files/eusart1.c: 121:     if(1 == RCSTA1bits.OERR)
  7908  005CCA  A2AB               	btfss	171,1,c	;volatile
  7909  005CCC  EF6A  F02E         	goto	u1491
  7910  005CD0  EF6C  F02E         	goto	u1490
  7911  005CD4                     u1491:
  7912  005CD4  EF6E  F02E         	goto	l2720
  7913  005CD8                     u1490:
  7914  005CD8                     
  7915                           ; BSR set to: 0
  7916                           ;mcc_generated_files/eusart1.c: 122:     {;mcc_generated_files/eusart1.c: 125:         R
      +                          CSTA1bits.CREN = 0;
  7917  005CD8  98AB               	bcf	171,4,c	;volatile
  7918                           
  7919                           ;mcc_generated_files/eusart1.c: 126:         RCSTA1bits.CREN = 1;
  7920  005CDA  88AB               	bsf	171,4,c	;volatile
  7921  005CDC                     l2720:
  7922                           
  7923                           ; BSR set to: 0
  7924                           ;mcc_generated_files/eusart1.c: 129:     return RCREG1;
  7925  005CDC  50AE               	movf	174,w,c	;volatile
  7926  005CDE                     
  7927                           ; BSR set to: 0
  7928  005CDE  0012               	return		;funcret
  7929  005CE0                     __end_of_EUSART1_Read:
  7930                           	callstack 0
  7931                           
  7932 ;; *************** function _SYSTEM_Initialize *****************
  7933 ;; Defined at:
  7934 ;;		line 50 in file "mcc_generated_files/mcc.c"
  7935 ;; Parameters:    Size  Location     Type
  7936 ;;		None
  7937 ;; Auto vars:     Size  Location     Type
  7938 ;;		None
  7939 ;; Return value:  Size  Location     Type
  7940 ;;                  1    wreg      void 
  7941 ;; Registers used:
  7942 ;;		wreg, status,2, status,0, cstack
  7943 ;; Tracked objects:
  7944 ;;		On entry : 0/0
  7945 ;;		On exit  : 0/0
  7946 ;;		Unchanged: 0/0
  7947 ;; Data sizes:     COMRAM   BANK0   BANK1   BANK2   BANK3   BANK4   BANK5   BANK6   BANK7
  7948 ;;      Params:         0       0       0       0       0       0       0       0       0
  7949 ;;      Locals:         0       0       0       0       0       0       0       0       0
  7950 ;;      Temps:          0       0       0       0       0       0       0       0       0
  7951 ;;      Totals:         0       0       0       0       0       0       0       0       0
  7952 ;;Total ram usage:        0 bytes
  7953 ;; Hardware stack levels used: 1
  7954 ;; Hardware stack levels required when called: 2
  7955 ;; This function calls:
  7956 ;;		_EUSART1_Initialize
  7957 ;;		_OSCILLATOR_Initialize
  7958 ;;		_PIN_MANAGER_Initialize
  7959 ;; This function is called by:
  7960 ;;		_main
  7961 ;; This function uses a non-reentrant model
  7962 ;;
  7963                           
  7964                           	psect	text40
  7965  005BA8                     __ptext40:
  7966                           	callstack 0
  7967  005BA8                     _SYSTEM_Initialize:
  7968                           	callstack 28
  7969  005BA8                     
  7970                           ;mcc_generated_files/mcc.c: 53:     PIN_MANAGER_Initialize();
  7971  005BA8  EC26  F02F         	call	_PIN_MANAGER_Initialize	;wreg free
  7972                           
  7973                           ;mcc_generated_files/mcc.c: 54:     OSCILLATOR_Initialize();
  7974  005BAC  EC37  F02E         	call	_OSCILLATOR_Initialize	;wreg free
  7975  005BB0                     
  7976                           ;mcc_generated_files/mcc.c: 55:     EUSART1_Initialize();
  7977  005BB0  EC45  F02F         	call	_EUSART1_Initialize	;wreg free
  7978  005BB4  0012               	return		;funcret
  7979  005BB6                     __end_of_SYSTEM_Initialize:
  7980                           	callstack 0
  7981                           
  7982 ;; *************** function _PIN_MANAGER_Initialize *****************
  7983 ;; Defined at:
  7984 ;;		line 55 in file "mcc_generated_files/pin_manager.c"
  7985 ;; Parameters:    Size  Location     Type
  7986 ;;		None
  7987 ;; Auto vars:     Size  Location     Type
  7988 ;;		None
  7989 ;; Return value:  Size  Location     Type
  7990 ;;                  1    wreg      void 
  7991 ;; Registers used:
  7992 ;;		wreg, status,2
  7993 ;; Tracked objects:
  7994 ;;		On entry : 0/0
  7995 ;;		On exit  : 0/0
  7996 ;;		Unchanged: 0/0
  7997 ;; Data sizes:     COMRAM   BANK0   BANK1   BANK2   BANK3   BANK4   BANK5   BANK6   BANK7
  7998 ;;      Params:         0       0       0       0       0       0       0       0       0
  7999 ;;      Locals:         0       0       0       0       0       0       0       0       0
  8000 ;;      Temps:          0       0       0       0       0       0       0       0       0
  8001 ;;      Totals:         0       0       0       0       0       0       0       0       0
  8002 ;;Total ram usage:        0 bytes
  8003 ;; Hardware stack levels used: 1
  8004 ;; This function calls:
  8005 ;;		Nothing
  8006 ;; This function is called by:
  8007 ;;		_SYSTEM_Initialize
  8008 ;; This function uses a non-reentrant model
  8009 ;;
  8010                           
  8011                           	psect	text41
  8012  005E4C                     __ptext41:
  8013                           	callstack 0
  8014  005E4C                     _PIN_MANAGER_Initialize:
  8015                           	callstack 29
  8016  005E4C                     
  8017                           ;mcc_generated_files/pin_manager.c: 60:     LATE = 0x00;
  8018  005E4C  0E00               	movlw	0
  8019  005E4E  6E8D               	movwf	141,c	;volatile
  8020                           
  8021                           ;mcc_generated_files/pin_manager.c: 61:     LATD = 0x00;
  8022  005E50  0E00               	movlw	0
  8023  005E52  6E8C               	movwf	140,c	;volatile
  8024                           
  8025                           ;mcc_generated_files/pin_manager.c: 62:     LATA = 0x00;
  8026  005E54  0E00               	movlw	0
  8027  005E56  6E89               	movwf	137,c	;volatile
  8028                           
  8029                           ;mcc_generated_files/pin_manager.c: 63:     LATB = 0x00;
  8030  005E58  0E00               	movlw	0
  8031  005E5A  6E8A               	movwf	138,c	;volatile
  8032                           
  8033                           ;mcc_generated_files/pin_manager.c: 64:     LATC = 0x00;
  8034  005E5C  0E00               	movlw	0
  8035  005E5E  6E8B               	movwf	139,c	;volatile
  8036                           
  8037                           ;mcc_generated_files/pin_manager.c: 69:     TRISE = 0x07;
  8038  005E60  0E07               	movlw	7
  8039  005E62  6E96               	movwf	150,c	;volatile
  8040  005E64                     
  8041                           ;mcc_generated_files/pin_manager.c: 70:     TRISA = 0xFF;
  8042  005E64  6892               	setf	146,c	;volatile
  8043  005E66                     
  8044                           ;mcc_generated_files/pin_manager.c: 71:     TRISB = 0xFF;
  8045  005E66  6893               	setf	147,c	;volatile
  8046                           
  8047                           ;mcc_generated_files/pin_manager.c: 72:     TRISC = 0x87;
  8048  005E68  0E87               	movlw	135
  8049  005E6A  6E94               	movwf	148,c	;volatile
  8050  005E6C                     
  8051                           ;mcc_generated_files/pin_manager.c: 73:     TRISD = 0xFF;
  8052  005E6C  6895               	setf	149,c	;volatile
  8053  005E6E                     
  8054                           ;mcc_generated_files/pin_manager.c: 78:     ANSELD = 0xFF;
  8055  005E6E  010F               	movlb	15	; () banked
  8056  005E70  695E               	setf	94,b	;volatile
  8057                           
  8058                           ;mcc_generated_files/pin_manager.c: 79:     ANSELC = 0x04;
  8059  005E72  0E04               	movlw	4
  8060  005E74  6F5D               	movwf	93,b	;volatile
  8061                           
  8062                           ;mcc_generated_files/pin_manager.c: 80:     ANSELB = 0x3F;
  8063  005E76  0E3F               	movlw	63
  8064  005E78  6F5C               	movwf	92,b	;volatile
  8065                           
  8066                           ;mcc_generated_files/pin_manager.c: 81:     ANSELE = 0x07;
  8067  005E7A  0E07               	movlw	7
  8068  005E7C  6F5F               	movwf	95,b	;volatile
  8069                           
  8070                           ;mcc_generated_files/pin_manager.c: 82:     ANSELA = 0x2F;
  8071  005E7E  0E2F               	movlw	47
  8072  005E80  6F5B               	movwf	91,b	;volatile
  8073                           
  8074                           ;mcc_generated_files/pin_manager.c: 87:     WPUB = 0x00;
  8075  005E82  0E00               	movlw	0
  8076  005E84  6E85               	movwf	133,c	;volatile
  8077  005E86                     
  8078                           ; BSR set to: 15
  8079                           ;mcc_generated_files/pin_manager.c: 88:     INTCON2bits.nRBPU = 1;
  8080  005E86  8EF1               	bsf	241,7,c	;volatile
  8081  005E88                     
  8082                           ; BSR set to: 15
  8083  005E88  0012               	return		;funcret
  8084  005E8A                     __end_of_PIN_MANAGER_Initialize:
  8085                           	callstack 0
  8086                           
  8087 ;; *************** function _OSCILLATOR_Initialize *****************
  8088 ;; Defined at:
  8089 ;;		line 58 in file "mcc_generated_files/mcc.c"
  8090 ;; Parameters:    Size  Location     Type
  8091 ;;		None
  8092 ;; Auto vars:     Size  Location     Type
  8093 ;;		None
  8094 ;; Return value:  Size  Location     Type
  8095 ;;                  1    wreg      void 
  8096 ;; Registers used:
  8097 ;;		wreg, status,2
  8098 ;; Tracked objects:
  8099 ;;		On entry : 0/0
  8100 ;;		On exit  : 0/0
  8101 ;;		Unchanged: 0/0
  8102 ;; Data sizes:     COMRAM   BANK0   BANK1   BANK2   BANK3   BANK4   BANK5   BANK6   BANK7
  8103 ;;      Params:         0       0       0       0       0       0       0       0       0
  8104 ;;      Locals:         0       0       0       0       0       0       0       0       0
  8105 ;;      Temps:          0       0       0       0       0       0       0       0       0
  8106 ;;      Totals:         0       0       0       0       0       0       0       0       0
  8107 ;;Total ram usage:        0 bytes
  8108 ;; Hardware stack levels used: 1
  8109 ;; This function calls:
  8110 ;;		Nothing
  8111 ;; This function is called by:
  8112 ;;		_SYSTEM_Initialize
  8113 ;; This function uses a non-reentrant model
  8114 ;;
  8115                           
  8116                           	psect	text42
  8117  005C6E                     __ptext42:
  8118                           	callstack 0
  8119  005C6E                     _OSCILLATOR_Initialize:
  8120                           	callstack 29
  8121  005C6E                     
  8122                           ;mcc_generated_files/mcc.c: 61:     OSCCON = 0x70;
  8123  005C6E  0E70               	movlw	112
  8124  005C70  6ED3               	movwf	211,c	;volatile
  8125                           
  8126                           ;mcc_generated_files/mcc.c: 63:     OSCCON2 = 0x00;
  8127  005C72  0E00               	movlw	0
  8128  005C74  6ED2               	movwf	210,c	;volatile
  8129                           
  8130                           ;mcc_generated_files/mcc.c: 65:     OSCTUNE = 0x80;
  8131  005C76  0E80               	movlw	128
  8132  005C78  6E9B               	movwf	155,c	;volatile
  8133                           
  8134                           ;mcc_generated_files/mcc.c: 67:     ACTCON = 0x00;
  8135  005C7A  0E00               	movlw	0
  8136  005C7C  6EB5               	movwf	181,c	;volatile
  8137  005C7E                     l159:
  8138                           
  8139                           ;mcc_generated_files/mcc.c: 69:     while(PLLRDY == 0)
  8140  005C7E  AED2               	btfss	4050,7,c	;volatile
  8141  005C80  EF44  F02E         	goto	u1521
  8142  005C84  EF46  F02E         	goto	u1520
  8143  005C88                     u1521:
  8144  005C88  EF3F  F02E         	goto	l159
  8145  005C8C                     u1520:
  8146  005C8C  0012               	return		;funcret
  8147  005C8E                     __end_of_OSCILLATOR_Initialize:
  8148                           	callstack 0
  8149                           
  8150 ;; *************** function _EUSART1_Initialize *****************
  8151 ;; Defined at:
  8152 ;;		line 66 in file "mcc_generated_files/eusart1.c"
  8153 ;; Parameters:    Size  Location     Type
  8154 ;;		None
  8155 ;; Auto vars:     Size  Location     Type
  8156 ;;		None
  8157 ;; Return value:  Size  Location     Type
  8158 ;;                  1    wreg      void 
  8159 ;; Registers used:
  8160 ;;		wreg, status,2, status,0, cstack
  8161 ;; Tracked objects:
  8162 ;;		On entry : 0/0
  8163 ;;		On exit  : 0/0
  8164 ;;		Unchanged: 0/0
  8165 ;; Data sizes:     COMRAM   BANK0   BANK1   BANK2   BANK3   BANK4   BANK5   BANK6   BANK7
  8166 ;;      Params:         0       0       0       0       0       0       0       0       0
  8167 ;;      Locals:         0       0       0       0       0       0       0       0       0
  8168 ;;      Temps:          0       0       0       0       0       0       0       0       0
  8169 ;;      Totals:         0       0       0       0       0       0       0       0       0
  8170 ;;Total ram usage:        0 bytes
  8171 ;; Hardware stack levels used: 1
  8172 ;; Hardware stack levels required when called: 1
  8173 ;; This function calls:
  8174 ;;		_EUSART1_SetErrorHandler
  8175 ;;		_EUSART1_SetFramingErrorHandler
  8176 ;;		_EUSART1_SetOverrunErrorHandler
  8177 ;; This function is called by:
  8178 ;;		_SYSTEM_Initialize
  8179 ;; This function uses a non-reentrant model
  8180 ;;
  8181                           
  8182                           	psect	text43
  8183  005E8A                     __ptext43:
  8184                           	callstack 0
  8185  005E8A                     _EUSART1_Initialize:
  8186                           	callstack 28
  8187  005E8A                     
  8188                           ;mcc_generated_files/eusart1.c: 71:     BAUDCON1 = 0x08;
  8189  005E8A  0E08               	movlw	8
  8190  005E8C  6EB8               	movwf	184,c	;volatile
  8191                           
  8192                           ;mcc_generated_files/eusart1.c: 74:     RCSTA1 = 0x90;
  8193  005E8E  0E90               	movlw	144
  8194  005E90  6EAB               	movwf	171,c	;volatile
  8195                           
  8196                           ;mcc_generated_files/eusart1.c: 77:     TXSTA1 = 0x24;
  8197  005E92  0E24               	movlw	36
  8198  005E94  6EAC               	movwf	172,c	;volatile
  8199                           
  8200                           ;mcc_generated_files/eusart1.c: 80:     SPBRG1 = 0xCF;
  8201  005E96  0ECF               	movlw	207
  8202  005E98  6EAF               	movwf	175,c	;volatile
  8203                           
  8204                           ;mcc_generated_files/eusart1.c: 83:     SPBRGH1 = 0x00;
  8205  005E9A  0E00               	movlw	0
  8206  005E9C  6EB0               	movwf	176,c	;volatile
  8207  005E9E                     
  8208                           ;mcc_generated_files/eusart1.c: 86:     EUSART1_SetFramingErrorHandler(EUSART1_DefaultFr
      +                          amingErrorHandler);
  8209  005E9E  0E00               	movlw	0
  8210  005EA0  6E01               	movwf	EUSART1_SetFramingErrorHandler@interruptHandler^0,c
  8211  005EA2  0E00               	movlw	0
  8212  005EA4  6E02               	movwf	(EUSART1_SetFramingErrorHandler@interruptHandler+1)^0,c
  8213  005EA6  ECB8  F02D         	call	_EUSART1_SetFramingErrorHandler	;wreg free
  8214  005EAA                     
  8215                           ;mcc_generated_files/eusart1.c: 87:     EUSART1_SetOverrunErrorHandler(EUSART1_DefaultOv
      +                          errunErrorHandler);
  8216  005EAA  0E00               	movlw	0
  8217  005EAC  6E01               	movwf	EUSART1_SetOverrunErrorHandler@interruptHandler^0,c
  8218  005EAE  0E00               	movlw	0
  8219  005EB0  6E02               	movwf	(EUSART1_SetOverrunErrorHandler@interruptHandler+1)^0,c
  8220  005EB2  ECBD  F02D         	call	_EUSART1_SetOverrunErrorHandler	;wreg free
  8221  005EB6                     
  8222                           ;mcc_generated_files/eusart1.c: 88:     EUSART1_SetErrorHandler(EUSART1_DefaultErrorHand
      +                          ler);
  8223  005EB6  0E00               	movlw	0
  8224  005EB8  6E01               	movwf	EUSART1_SetErrorHandler@interruptHandler^0,c
  8225  005EBA  0E00               	movlw	0
  8226  005EBC  6E02               	movwf	(EUSART1_SetErrorHandler@interruptHandler+1)^0,c
  8227  005EBE  ECB3  F02D         	call	_EUSART1_SetErrorHandler	;wreg free
  8228  005EC2                     
  8229                           ;mcc_generated_files/eusart1.c: 90:     eusart1RxLastError.status = 0;
  8230  005EC2  0E00               	movlw	0
  8231  005EC4  0100               	movlb	0	; () banked
  8232  005EC6  6FAE               	movwf	_eusart1RxLastError& (0+255),b	;volatile
  8233  005EC8                     
  8234                           ; BSR set to: 0
  8235  005EC8  0012               	return		;funcret
  8236  005ECA                     __end_of_EUSART1_Initialize:
  8237                           	callstack 0
  8238                           
  8239 ;; *************** function _EUSART1_SetOverrunErrorHandler *****************
  8240 ;; Defined at:
  8241 ;;		line 185 in file "mcc_generated_files/eusart1.c"
  8242 ;; Parameters:    Size  Location     Type
  8243 ;;  interruptHan    2    0[COMRAM] PTR FTN()void 
  8244 ;;		 -> EUSART1_DefaultOverrunErrorHandler(1), 
  8245 ;; Auto vars:     Size  Location     Type
  8246 ;;		None
  8247 ;; Return value:  Size  Location     Type
  8248 ;;                  1    wreg      void 
  8249 ;; Registers used:
  8250 ;;		wreg, status,2, status,0
  8251 ;; Tracked objects:
  8252 ;;		On entry : 0/0
  8253 ;;		On exit  : 0/0
  8254 ;;		Unchanged: 0/0
  8255 ;; Data sizes:     COMRAM   BANK0   BANK1   BANK2   BANK3   BANK4   BANK5   BANK6   BANK7
  8256 ;;      Params:         2       0       0       0       0       0       0       0       0
  8257 ;;      Locals:         0       0       0       0       0       0       0       0       0
  8258 ;;      Temps:          0       0       0       0       0       0       0       0       0
  8259 ;;      Totals:         2       0       0       0       0       0       0       0       0
  8260 ;;Total ram usage:        2 bytes
  8261 ;; Hardware stack levels used: 1
  8262 ;; This function calls:
  8263 ;;		Nothing
  8264 ;; This function is called by:
  8265 ;;		_EUSART1_Initialize
  8266 ;; This function uses a non-reentrant model
  8267 ;;
  8268                           
  8269                           	psect	text44
  8270  005B7A                     __ptext44:
  8271                           	callstack 0
  8272  005B7A                     _EUSART1_SetOverrunErrorHandler:
  8273                           	callstack 28
  8274  005B7A                     
  8275                           ;mcc_generated_files/eusart1.c: 186:     EUSART1_OverrunErrorHandler = interruptHandler;
  8276  005B7A  C001  F0AA         	movff	EUSART1_SetOverrunErrorHandler@interruptHandler,_EUSART1_OverrunErrorHandler
  8277  005B7E  C002  F0AB         	movff	EUSART1_SetOverrunErrorHandler@interruptHandler+1,_EUSART1_OverrunErrorHandler+1
  8278  005B82  0012               	return		;funcret
  8279  005B84                     __end_of_EUSART1_SetOverrunErrorHandler:
  8280                           	callstack 0
  8281                           
  8282 ;; *************** function _EUSART1_SetFramingErrorHandler *****************
  8283 ;; Defined at:
  8284 ;;		line 181 in file "mcc_generated_files/eusart1.c"
  8285 ;; Parameters:    Size  Location     Type
  8286 ;;  interruptHan    2    0[COMRAM] PTR FTN()void 
  8287 ;;		 -> EUSART1_DefaultFramingErrorHandler(1), 
  8288 ;; Auto vars:     Size  Location     Type
  8289 ;;		None
  8290 ;; Return value:  Size  Location     Type
  8291 ;;                  1    wreg      void 
  8292 ;; Registers used:
  8293 ;;		wreg, status,2, status,0
  8294 ;; Tracked objects:
  8295 ;;		On entry : 0/0
  8296 ;;		On exit  : 0/0
  8297 ;;		Unchanged: 0/0
  8298 ;; Data sizes:     COMRAM   BANK0   BANK1   BANK2   BANK3   BANK4   BANK5   BANK6   BANK7
  8299 ;;      Params:         2       0       0       0       0       0       0       0       0
  8300 ;;      Locals:         0       0       0       0       0       0       0       0       0
  8301 ;;      Temps:          0       0       0       0       0       0       0       0       0
  8302 ;;      Totals:         2       0       0       0       0       0       0       0       0
  8303 ;;Total ram usage:        2 bytes
  8304 ;; Hardware stack levels used: 1
  8305 ;; This function calls:
  8306 ;;		Nothing
  8307 ;; This function is called by:
  8308 ;;		_EUSART1_Initialize
  8309 ;; This function uses a non-reentrant model
  8310 ;;
  8311                           
  8312                           	psect	text45
  8313  005B70                     __ptext45:
  8314                           	callstack 0
  8315  005B70                     _EUSART1_SetFramingErrorHandler:
  8316                           	callstack 28
  8317  005B70                     
  8318                           ;mcc_generated_files/eusart1.c: 182:     EUSART1_FramingErrorHandler = interruptHandler;
  8319  005B70  C001  F0AC         	movff	EUSART1_SetFramingErrorHandler@interruptHandler,_EUSART1_FramingErrorHandler
  8320  005B74  C002  F0AD         	movff	EUSART1_SetFramingErrorHandler@interruptHandler+1,_EUSART1_FramingErrorHandler+1
  8321  005B78  0012               	return		;funcret
  8322  005B7A                     __end_of_EUSART1_SetFramingErrorHandler:
  8323                           	callstack 0
  8324                           
  8325 ;; *************** function _EUSART1_SetErrorHandler *****************
  8326 ;; Defined at:
  8327 ;;		line 189 in file "mcc_generated_files/eusart1.c"
  8328 ;; Parameters:    Size  Location     Type
  8329 ;;  interruptHan    2    0[COMRAM] PTR FTN()void 
  8330 ;;		 -> EUSART1_DefaultErrorHandler(1), 
  8331 ;; Auto vars:     Size  Location     Type
  8332 ;;		None
  8333 ;; Return value:  Size  Location     Type
  8334 ;;                  1    wreg      void 
  8335 ;; Registers used:
  8336 ;;		wreg, status,2, status,0
  8337 ;; Tracked objects:
  8338 ;;		On entry : 0/0
  8339 ;;		On exit  : 0/0
  8340 ;;		Unchanged: 0/0
  8341 ;; Data sizes:     COMRAM   BANK0   BANK1   BANK2   BANK3   BANK4   BANK5   BANK6   BANK7
  8342 ;;      Params:         2       0       0       0       0       0       0       0       0
  8343 ;;      Locals:         0       0       0       0       0       0       0       0       0
  8344 ;;      Temps:          0       0       0       0       0       0       0       0       0
  8345 ;;      Totals:         2       0       0       0       0       0       0       0       0
  8346 ;;Total ram usage:        2 bytes
  8347 ;; Hardware stack levels used: 1
  8348 ;; This function calls:
  8349 ;;		Nothing
  8350 ;; This function is called by:
  8351 ;;		_EUSART1_Initialize
  8352 ;; This function uses a non-reentrant model
  8353 ;;
  8354                           
  8355                           	psect	text46
  8356  005B66                     __ptext46:
  8357                           	callstack 0
  8358  005B66                     _EUSART1_SetErrorHandler:
  8359                           	callstack 28
  8360  005B66                     
  8361                           ;mcc_generated_files/eusart1.c: 190:     EUSART1_ErrorHandler = interruptHandler;
  8362  005B66  C001  F0A8         	movff	EUSART1_SetErrorHandler@interruptHandler,_EUSART1_ErrorHandler
  8363  005B6A  C002  F0A9         	movff	EUSART1_SetErrorHandler@interruptHandler+1,_EUSART1_ErrorHandler+1
  8364  005B6E  0012               	return		;funcret
  8365  005B70                     __end_of_EUSART1_SetErrorHandler:
  8366                           	callstack 0
  8367                           
  8368                           	psect	rparam
  8369  0000                     
  8370                           	psect	idloc
  8371                           
  8372                           ;Config register IDLOC0 @ 0x200000
  8373                           ;	unspecified, using default values
  8374  200000                     	org	2097152
  8375  200000  FF                 	db	255
  8376                           
  8377                           ;Config register IDLOC1 @ 0x200001
  8378                           ;	unspecified, using default values
  8379  200001                     	org	2097153
  8380  200001  FF                 	db	255
  8381                           
  8382                           ;Config register IDLOC2 @ 0x200002
  8383                           ;	unspecified, using default values
  8384  200002                     	org	2097154
  8385  200002  FF                 	db	255
  8386                           
  8387                           ;Config register IDLOC3 @ 0x200003
  8388                           ;	unspecified, using default values
  8389  200003                     	org	2097155
  8390  200003  FF                 	db	255
  8391                           
  8392                           ;Config register IDLOC4 @ 0x200004
  8393                           ;	unspecified, using default values
  8394  200004                     	org	2097156
  8395  200004  FF                 	db	255
  8396                           
  8397                           ;Config register IDLOC5 @ 0x200005
  8398                           ;	unspecified, using default values
  8399  200005                     	org	2097157
  8400  200005  FF                 	db	255
  8401                           
  8402                           ;Config register IDLOC6 @ 0x200006
  8403                           ;	unspecified, using default values
  8404  200006                     	org	2097158
  8405  200006  FF                 	db	255
  8406                           
  8407                           ;Config register IDLOC7 @ 0x200007
  8408                           ;	unspecified, using default values
  8409  200007                     	org	2097159
  8410  200007  FF                 	db	255
  8411                           
  8412                           	psect	config
  8413                           
  8414                           ;Config register CONFIG1L @ 0x300000
  8415                           ;	PLL Selection
  8416                           ;	PLLSEL = PLL3X, 3x clock multiplier
  8417                           ;	PLL Enable Configuration bit
  8418                           ;	CFGPLLEN = ON, PLL Enabled
  8419                           ;	CPU System Clock Postscaler
  8420                           ;	CPUDIV = NOCLKDIV, CPU uses system clock (no divide)
  8421                           ;	Low Speed USB mode with 48 MHz system clock
  8422                           ;	LS48MHZ = SYS48X8, System clock at 48 MHz, USB clock divider is set to 8
  8423  300000                     	org	3145728
  8424  300000  23                 	db	35
  8425                           
  8426                           ;Config register CONFIG1H @ 0x300001
  8427                           ;	Oscillator Selection
  8428                           ;	FOSC = INTOSCIO, Internal oscillator
  8429                           ;	Primary Oscillator Shutdown
  8430                           ;	PCLKEN = ON, Primary oscillator enabled
  8431                           ;	Fail-Safe Clock Monitor
  8432                           ;	FCMEN = OFF, Fail-Safe Clock Monitor disabled
  8433                           ;	Internal/External Oscillator Switchover
  8434                           ;	IESO = OFF, Oscillator Switchover mode disabled
  8435  300001                     	org	3145729
  8436  300001  28                 	db	40
  8437                           
  8438                           ;Config register CONFIG2L @ 0x300002
  8439                           ;	Power-up Timer Enable
  8440                           ;	nPWRTEN = OFF, Power up timer disabled
  8441                           ;	Brown-out Reset Enable
  8442                           ;	BOREN = SBORDIS, BOR enabled in hardware (SBOREN is ignored)
  8443                           ;	Brown-out Reset Voltage
  8444                           ;	BORV = 190, BOR set to 1.9V nominal
  8445                           ;	Low-Power Brown-out Reset
  8446                           ;	nLPBOR = OFF, Low-Power Brown-out Reset disabled
  8447  300002                     	org	3145730
  8448  300002  5F                 	db	95
  8449                           
  8450                           ;Config register CONFIG2H @ 0x300003
  8451                           ;	Watchdog Timer Enable bits
  8452                           ;	WDTEN = OFF, WDT disabled in hardware (SWDTEN ignored)
  8453                           ;	Watchdog Timer Postscaler
  8454                           ;	WDTPS = 32768, 1:32768
  8455  300003                     	org	3145731
  8456  300003  3C                 	db	60
  8457                           
  8458                           ; Padding undefined space
  8459  300004                     	org	3145732
  8460  300004  FF                 	db	255
  8461                           
  8462                           ;Config register CONFIG3H @ 0x300005
  8463                           ;	CCP2 MUX bit
  8464                           ;	CCP2MX = RC1, CCP2 input/output is multiplexed with RC1
  8465                           ;	PORTB A/D Enable bit
  8466                           ;	PBADEN = ON, PORTB<5:0> pins are configured as analog input channels on Reset
  8467                           ;	Timer3 Clock Input MUX bit
  8468                           ;	T3CMX = RC0, T3CKI function is on RC0
  8469                           ;	SDO Output MUX bit
  8470                           ;	SDOMX = RB3, SDO function is on RB3
  8471                           ;	Master Clear Reset Pin Enable
  8472                           ;	MCLRE = ON, MCLR pin enabled; RE3 input disabled
  8473  300005                     	org	3145733
  8474  300005  D3                 	db	211
  8475                           
  8476                           ;Config register CONFIG4L @ 0x300006
  8477                           ;	Stack Full/Underflow Reset
  8478                           ;	STVREN = ON, Stack full/underflow will cause Reset
  8479                           ;	Single-Supply ICSP Enable bit
  8480                           ;	LVP = OFF, Single-Supply ICSP disabled
  8481                           ;	Dedicated In-Circuit Debug/Programming Port Enable
  8482                           ;	ICPRT = OFF, ICPORT disabled
  8483                           ;	Extended Instruction Set Enable bit
  8484                           ;	XINST = OFF, Instruction set extension and Indexed Addressing mode disabled
  8485                           ;	Background Debugger Enable bit
  8486                           ;	DEBUG = OFF, Background debugger disabled, RB6 and RB7 configured as general purpose I
      +                          /O pins
  8487  300006                     	org	3145734
  8488  300006  81                 	db	129
  8489                           
  8490                           ; Padding undefined space
  8491  300007                     	org	3145735
  8492  300007  FF                 	db	255
  8493                           
  8494                           ;Config register CONFIG5L @ 0x300008
  8495                           ;	Block 0 Code Protect
  8496                           ;	CP0 = OFF, Block 0 is not code-protected
  8497                           ;	Block 1 Code Protect
  8498                           ;	CP1 = OFF, Block 1 is not code-protected
  8499                           ;	Block 2 Code Protect
  8500                           ;	CP2 = OFF, Block 2 is not code-protected
  8501                           ;	Block 3 Code Protect
  8502                           ;	CP3 = OFF, Block 3 is not code-protected
  8503  300008                     	org	3145736
  8504  300008  0F                 	db	15
  8505                           
  8506                           ;Config register CONFIG5H @ 0x300009
  8507                           ;	Boot Block Code Protect
  8508                           ;	CPB = OFF, Boot block is not code-protected
  8509                           ;	Data EEPROM Code Protect
  8510                           ;	CPD = OFF, Data EEPROM is not code-protected
  8511  300009                     	org	3145737
  8512  300009  C0                 	db	192
  8513                           
  8514                           ;Config register CONFIG6L @ 0x30000A
  8515                           ;	Block 0 Write Protect
  8516                           ;	WRT0 = OFF, Block 0 (0800-1FFFh) is not write-protected
  8517                           ;	Block 1 Write Protect
  8518                           ;	WRT1 = OFF, Block 1 (2000-3FFFh) is not write-protected
  8519                           ;	Block 2 Write Protect
  8520                           ;	WRT2 = OFF, Block 2 (04000-5FFFh) is not write-protected
  8521                           ;	Block 3 Write Protect
  8522                           ;	WRT3 = OFF, Block 3 (06000-7FFFh) is not write-protected
  8523  30000A                     	org	3145738
  8524  30000A  0F                 	db	15
  8525                           
  8526                           ;Config register CONFIG6H @ 0x30000B
  8527                           ;	Configuration Registers Write Protect
  8528                           ;	WRTC = OFF, Configuration registers (300000-3000FFh) are not write-protected
  8529                           ;	Boot Block Write Protect
  8530                           ;	WRTB = OFF, Boot block (0000-7FFh) is not write-protected
  8531                           ;	Data EEPROM Write Protect
  8532                           ;	WRTD = OFF, Data EEPROM is not write-protected
  8533  30000B                     	org	3145739
  8534  30000B  E0                 	db	224
  8535                           
  8536                           ;Config register CONFIG7L @ 0x30000C
  8537                           ;	Block 0 Table Read Protect
  8538                           ;	EBTR0 = OFF, Block 0 is not protected from table reads executed in other blocks
  8539                           ;	Block 1 Table Read Protect
  8540                           ;	EBTR1 = OFF, Block 1 is not protected from table reads executed in other blocks
  8541                           ;	Block 2 Table Read Protect
  8542                           ;	EBTR2 = OFF, Block 2 is not protected from table reads executed in other blocks
  8543                           ;	Block 3 Table Read Protect
  8544                           ;	EBTR3 = OFF, Block 3 is not protected from table reads executed in other blocks
  8545  30000C                     	org	3145740
  8546  30000C  0F                 	db	15
  8547                           
  8548                           ;Config register CONFIG7H @ 0x30000D
  8549                           ;	Boot Block Table Read Protect
  8550                           ;	EBTRB = OFF, Boot block is not protected from table reads executed in other blocks
  8551  30000D                     	org	3145741
  8552  30000D  40                 	db	64
  8553                           tosu	equ	0xFFF
  8554                           tosh	equ	0xFFE
  8555                           tosl	equ	0xFFD
  8556                           stkptr	equ	0xFFC
  8557                           pclatu	equ	0xFFB
  8558                           pclath	equ	0xFFA
  8559                           pcl	equ	0xFF9
  8560                           tblptru	equ	0xFF8
  8561                           tblptrh	equ	0xFF7
  8562                           tblptrl	equ	0xFF6
  8563                           tablat	equ	0xFF5
  8564                           prodh	equ	0xFF4
  8565                           prodl	equ	0xFF3
  8566                           indf0	equ	0xFEF
  8567                           postinc0	equ	0xFEE
  8568                           postdec0	equ	0xFED
  8569                           preinc0	equ	0xFEC
  8570                           plusw0	equ	0xFEB
  8571                           fsr0h	equ	0xFEA
  8572                           fsr0l	equ	0xFE9
  8573                           wreg	equ	0xFE8
  8574                           indf1	equ	0xFE7
  8575                           postinc1	equ	0xFE6
  8576                           postdec1	equ	0xFE5
  8577                           preinc1	equ	0xFE4
  8578                           plusw1	equ	0xFE3
  8579                           fsr1h	equ	0xFE2
  8580                           fsr1l	equ	0xFE1
  8581                           bsr	equ	0xFE0
  8582                           indf2	equ	0xFDF
  8583                           postinc2	equ	0xFDE
  8584                           postdec2	equ	0xFDD
  8585                           preinc2	equ	0xFDC
  8586                           plusw2	equ	0xFDB
  8587                           fsr2h	equ	0xFDA
  8588                           fsr2l	equ	0xFD9
  8589                           status	equ	0xFD8

Data Sizes:
    Strings     790
    Constant    768
    Data        3
    BSS         49
    Persistent  0
    Stack       0

Auto Spaces:
    Space          Size  Autos    Used
    COMRAM           95     95      95
    BANK0           160     62     114
    BANK1           256      0       0
    BANK2           256      0       0
    BANK3           256      0       0
    BANK4           256      0       0
    BANK5           256      0       0
    BANK6           256      0       0
    BANK7           256      0       0

Pointer List with Targets:

    strlen@s	PTR const unsigned char  size(2) Largest target is 32
		 -> dbuf(BANK0[32]), 

    strlen@a	PTR const unsigned char  size(2) Largest target is 32
		 -> dbuf(BANK0[32]), 

    fputs@s	PTR const unsigned char  size(2) Largest target is 32
		 -> dbuf(BANK0[32]), 

    fputs@fp	PTR struct _IO_FILE size(2) Largest target is 7
		 -> sprintf@f(BANK0[6]), 

    fputc@fp.buffer	PTR unsigned char  size(2) Largest target is 64
		 -> main@read(BANK0[32]), test_LoRa@READ(COMRAM[64]), test_LoRa@read(COMRAM[32]), init_mod_LoRa@read(BANK0[10]), 
		 -> init_mod_LoRa@READ(BANK0[10]), 

    fputc@fp	PTR struct _IO_FILE size(2) Largest target is 7
		 -> sprintf@f(BANK0[6]), 

    vfprintf@ap	PTR PTR void  size(2) Largest target is 2
		 -> sprintf@ap(BANK0[2]), 

    vfprintf@fp	PTR struct _IO_FILE size(2) Largest target is 7
		 -> sprintf@f(BANK0[6]), 

    vfprintf@fmt	PTR const unsigned char  size(2) Largest target is 3
		 -> STR_93(CODE[3]), STR_89(CODE[3]), STR_86(CODE[3]), STR_83(CODE[3]), 
		 -> STR_80(CODE[3]), STR_77(CODE[3]), STR_74(CODE[3]), STR_71(CODE[3]), 
		 -> STR_68(CODE[3]), STR_65(CODE[3]), STR_62(CODE[3]), STR_59(CODE[3]), 
		 -> STR_56(CODE[3]), STR_55(CODE[3]), STR_52(CODE[3]), STR_51(CODE[3]), 
		 -> STR_48(CODE[3]), STR_47(CODE[3]), STR_44(CODE[3]), STR_43(CODE[3]), 
		 -> STR_40(CODE[3]), STR_39(CODE[3]), STR_36(CODE[3]), STR_35(CODE[3]), 
		 -> STR_32(CODE[3]), STR_31(CODE[3]), STR_28(CODE[3]), STR_27(CODE[3]), 
		 -> STR_24(CODE[3]), STR_23(CODE[3]), STR_20(CODE[3]), STR_19(CODE[3]), 
		 -> STR_16(CODE[3]), STR_15(CODE[3]), STR_12(CODE[3]), STR_11(CODE[3]), 
		 -> STR_7(CODE[3]), STR_6(CODE[3]), 

    vfprintf@cfmt	PTR unsigned char  size(2) Largest target is 3
		 -> STR_93(CODE[3]), STR_89(CODE[3]), STR_86(CODE[3]), STR_83(CODE[3]), 
		 -> STR_80(CODE[3]), STR_77(CODE[3]), STR_74(CODE[3]), STR_71(CODE[3]), 
		 -> STR_68(CODE[3]), STR_65(CODE[3]), STR_62(CODE[3]), STR_59(CODE[3]), 
		 -> STR_56(CODE[3]), STR_55(CODE[3]), STR_52(CODE[3]), STR_51(CODE[3]), 
		 -> STR_48(CODE[3]), STR_47(CODE[3]), STR_44(CODE[3]), STR_43(CODE[3]), 
		 -> STR_40(CODE[3]), STR_39(CODE[3]), STR_36(CODE[3]), STR_35(CODE[3]), 
		 -> STR_32(CODE[3]), STR_31(CODE[3]), STR_28(CODE[3]), STR_27(CODE[3]), 
		 -> STR_24(CODE[3]), STR_23(CODE[3]), STR_20(CODE[3]), STR_19(CODE[3]), 
		 -> STR_16(CODE[3]), STR_15(CODE[3]), STR_12(CODE[3]), STR_11(CODE[3]), 
		 -> STR_7(CODE[3]), STR_6(CODE[3]), 

    vfpfcnvrt@fp	PTR struct _IO_FILE size(2) Largest target is 7
		 -> sprintf@f(BANK0[6]), 

    vfpfcnvrt@ap	PTR PTR void  size(2) Largest target is 2
		 -> sprintf@ap(BANK0[2]), 

    vfpfcnvrt@fmt	PTR PTR unsigned char  size(2) Largest target is 2
		 -> vfprintf@cfmt(COMRAM[2]), 

    dtoa@fp	PTR struct _IO_FILE size(2) Largest target is 7
		 -> sprintf@f(BANK0[6]), 

    ctoa@fp	PTR struct _IO_FILE size(2) Largest target is 7
		 -> sprintf@f(BANK0[6]), 

    pad@fp	PTR struct _IO_FILE size(2) Largest target is 7
		 -> sprintf@f(BANK0[6]), 

    pad@buf	PTR unsigned char  size(2) Largest target is 32
		 -> dbuf(BANK0[32]), 

    sprintf@fmt	PTR const unsigned char  size(2) Largest target is 3
		 -> STR_93(CODE[3]), STR_89(CODE[3]), STR_86(CODE[3]), STR_83(CODE[3]), 
		 -> STR_80(CODE[3]), STR_77(CODE[3]), STR_74(CODE[3]), STR_71(CODE[3]), 
		 -> STR_68(CODE[3]), STR_65(CODE[3]), STR_62(CODE[3]), STR_59(CODE[3]), 
		 -> STR_56(CODE[3]), STR_55(CODE[3]), STR_52(CODE[3]), STR_51(CODE[3]), 
		 -> STR_48(CODE[3]), STR_47(CODE[3]), STR_44(CODE[3]), STR_43(CODE[3]), 
		 -> STR_40(CODE[3]), STR_39(CODE[3]), STR_36(CODE[3]), STR_35(CODE[3]), 
		 -> STR_32(CODE[3]), STR_31(CODE[3]), STR_28(CODE[3]), STR_27(CODE[3]), 
		 -> STR_24(CODE[3]), STR_23(CODE[3]), STR_20(CODE[3]), STR_19(CODE[3]), 
		 -> STR_16(CODE[3]), STR_15(CODE[3]), STR_12(CODE[3]), STR_11(CODE[3]), 
		 -> STR_7(CODE[3]), STR_6(CODE[3]), 

    sprintf@s	PTR unsigned char  size(2) Largest target is 64
		 -> main@read(BANK0[32]), test_LoRa@READ(COMRAM[64]), test_LoRa@read(COMRAM[32]), init_mod_LoRa@read(BANK0[10]), 
		 -> init_mod_LoRa@READ(BANK0[10]), 

    sprintf@ap	PTR void [1] size(2) Largest target is 2
		 -> ?_sprintf(COMRAM[2]), 

    S1556_IO_FILE$buffer	PTR unsigned char  size(2) Largest target is 64
		 -> main@read(BANK0[32]), test_LoRa@READ(COMRAM[64]), test_LoRa@read(COMRAM[32]), init_mod_LoRa@read(BANK0[10]), 
		 -> init_mod_LoRa@READ(BANK0[10]), 

    f.buffer	PTR unsigned char  size(2) Largest target is 64
		 -> main@read(BANK0[32]), test_LoRa@READ(COMRAM[64]), test_LoRa@read(COMRAM[32]), init_mod_LoRa@read(BANK0[10]), 
		 -> init_mod_LoRa@READ(BANK0[10]), 

    oled_putString@string	PTR const unsigned char  size(2) Largest target is 64
		 -> oled_putUint16@numData(COMRAM[6]), oled_putint8@numData(COMRAM[6]), oled_putUint8@numData(COMRAM[6]), STR_94(CODE[7]), 
		 -> STR_91(CODE[10]), STR_90(CODE[7]), STR_87(CODE[8]), STR_84(CODE[14]), 
		 -> STR_81(CODE[14]), STR_78(CODE[14]), STR_75(CODE[14]), STR_72(CODE[14]), 
		 -> STR_69(CODE[14]), STR_66(CODE[14]), STR_63(CODE[14]), STR_60(CODE[14]), 
		 -> main@read(BANK0[32]), STR_57(CODE[10]), STR_54(CODE[8]), STR_53(CODE[16]), 
		 -> test_LoRa@READ(COMRAM[64]), test_LoRa@read(COMRAM[32]), STR_50(CODE[10]), STR_49(CODE[16]), 
		 -> STR_45(CODE[5]), STR_41(CODE[21]), STR_37(CODE[4]), STR_33(CODE[10]), 
		 -> STR_29(CODE[9]), STR_25(CODE[12]), STR_21(CODE[16]), STR_17(CODE[11]), 
		 -> STR_13(CODE[15]), init_mod_LoRa@read(BANK0[10]), STR_9(CODE[9]), STR_8(CODE[17]), 
		 -> init_mod_LoRa@READ(BANK0[10]), STR_1(CODE[10]), 

    oled_setFont@font	PTR const unsigned char  size(2) Largest target is 768
		 -> OledFont0(CODE[768]), 

    selectedFont	PTR const unsigned char  size(2) Largest target is 768
		 -> OledFont0(CODE[768]), 

    sendCommand@texto	PTR unsigned char  size(2) Largest target is 27
		 -> STR_92(CODE[12]), STR_88(CODE[13]), STR_85(CODE[14]), STR_82(CODE[14]), 
		 -> STR_79(CODE[14]), STR_76(CODE[14]), STR_73(CODE[14]), STR_70(CODE[14]), 
		 -> STR_67(CODE[14]), STR_64(CODE[14]), STR_61(CODE[14]), STR_58(CODE[12]), 
		 -> STR_46(CODE[20]), STR_42(CODE[20]), STR_38(CODE[22]), STR_34(CODE[20]), 
		 -> STR_30(CODE[21]), STR_26(CODE[19]), STR_22(CODE[19]), STR_18(CODE[27]), 
		 -> STR_14(CODE[19]), STR_10(CODE[18]), STR_5(CODE[26]), STR_4(CODE[26]), 
		 -> STR_3(CODE[26]), STR_2(CODE[26]), 

    EUSART1_SetErrorHandler@interruptHandler	PTR FTN()void  size(2) Largest target is 1
		 -> EUSART1_DefaultErrorHandler(), 

    EUSART1_ErrorHandler	PTR FTN()void  size(2) Largest target is 1
		 -> Absolute function(), EUSART1_DefaultErrorHandler(), 

    EUSART1_SetOverrunErrorHandler@interruptHandler	PTR FTN()void  size(2) Largest target is 1
		 -> EUSART1_DefaultOverrunErrorHandler(), 

    EUSART1_OverrunErrorHandler	PTR FTN()void  size(2) Largest target is 1
		 -> Absolute function(), EUSART1_DefaultOverrunErrorHandler(), 

    EUSART1_SetFramingErrorHandler@interruptHandler	PTR FTN()void  size(2) Largest target is 1
		 -> EUSART1_DefaultFramingErrorHandler(), 

    EUSART1_FramingErrorHandler	PTR FTN()void  size(2) Largest target is 1
		 -> Absolute function(), EUSART1_DefaultFramingErrorHandler(), 

    sp__get_Data	PTR unsigned char  size(2) Largest target is 2047
		 -> RAM(DATA[2047]), 


Critical Paths under _main in COMRAM

    _main->_init_mod_LoRa
    _oled_putUint8->_oled_putString
    _oled_setDisplay->_oled_writeCommand
    _oled_devInit->_oled_initialDispayLine
    _oled_devInit->_oled_powerControl
    _oled_devInit->_oled_regulorResistorSelect
    _oled_devInit->_oled_setContrastControlRegister
    _oled_setContrastControlRegister->_oled_writeCommand
    _oled_regulorResistorSelect->_oled_writeCommand
    _oled_powerControl->_oled_writeCommand
    _oled_initialDispayLine->_oled_writeCommand
    _init_mod_LoRa->_sprintf
    _sprintf->_vfprintf
    _vfprintf->_vfpfcnvrt
    _vfpfcnvrt->_dtoa
    _dtoa->_pad
    _pad->_fputs
    _fputs->_fputc
    _abs->___aomod
    _ctoa->_fputc
    _sendCommand->_EUSART1_Write
    _oled_putString->_oled_putChar
    _oled_clear->_oled_clearRow
    _oled_clearRow->_oled_putChar
    _oled_putChar->_Set_Column_Address
    _oled_putChar->_Set_Page_Address
    _Set_Page_Address->_oled_writeCommand
    _Set_Column_Address->_oled_writeCommand
    _EUSART1_Initialize->_EUSART1_SetErrorHandler
    _EUSART1_Initialize->_EUSART1_SetFramingErrorHandler
    _EUSART1_Initialize->_EUSART1_SetOverrunErrorHandler

Critical Paths under _main in BANK0

    _main->_init_mod_LoRa
    _init_mod_LoRa->_sprintf

Critical Paths under _main in BANK1

    None.

Critical Paths under _main in BANK2

    None.

Critical Paths under _main in BANK3

    None.

Critical Paths under _main in BANK4

    None.

Critical Paths under _main in BANK5

    None.

Critical Paths under _main in BANK6

    None.

Critical Paths under _main in BANK7

    None.

Call Graph Tables:

 ---------------------------------------------------------------------------------
 (Depth) Function   	        Calls       Base Space   Used Autos Params    Refs
 ---------------------------------------------------------------------------------
 (0) _main                                                34    34      0   96923
                                             28 BANK0     34    34      0
                       _EUSART1_Read
                  _SYSTEM_Initialize
                            _delayms
                      _init_mod_LoRa
                          _init_port
                         _oled_clear
                          _oled_init
                     _oled_putString
                      _oled_putUint8
                        _sendCommand
                            _sprintf
 ---------------------------------------------------------------------------------
 (1) _oled_putUint8                                        9     7      2   19611
                                             17 COMRAM     9     7      2
                            ___awdiv
                            ___awmod
                     _oled_putString
 ---------------------------------------------------------------------------------
 (2) ___awmod                                              6     2      4    1208
                                              0 COMRAM     6     2      4
 ---------------------------------------------------------------------------------
 (2) ___awdiv                                              8     4      4     908
                                              0 COMRAM     8     4      4
 ---------------------------------------------------------------------------------
 (1) _oled_init                                            0     0      0    1046
                         _oled_clear
                       _oled_devInit
                    _oled_setDisplay
                       _oled_setFont
 ---------------------------------------------------------------------------------
 (2) _oled_setFont                                         2     0      2     120
                                              0 COMRAM     2     0      2
 ---------------------------------------------------------------------------------
 (2) _oled_setDisplay                                      1     1      0      44
                                              1 COMRAM     1     1      0
                  _oled_writeCommand
 ---------------------------------------------------------------------------------
 (2) _oled_devInit                                         1     1      0     199
                                              2 COMRAM     1     1      0
             _oled_initialDispayLine
                  _oled_powerControl
         _oled_regulorResistorSelect
    _oled_setContrastControlRegister
                  _oled_writeCommand
 ---------------------------------------------------------------------------------
 (3) _oled_setContrastControlRegister                      1     1      0      44
                                              1 COMRAM     1     1      0
                  _oled_writeCommand
 ---------------------------------------------------------------------------------
 (3) _oled_regulorResistorSelect                           1     1      0      44
                                              1 COMRAM     1     1      0
                  _oled_writeCommand
 ---------------------------------------------------------------------------------
 (3) _oled_powerControl                                    1     1      0      44
                                              1 COMRAM     1     1      0
                  _oled_writeCommand
 ---------------------------------------------------------------------------------
 (3) _oled_initialDispayLine                               1     1      0      45
                                              1 COMRAM     1     1      0
                  _oled_writeCommand
 ---------------------------------------------------------------------------------
 (1) _init_port                                            0     0      0       0
 ---------------------------------------------------------------------------------
 (1) _init_mod_LoRa                                       21    21      0   38406
                                             94 COMRAM     1     1      0
                                              8 BANK0     20    20      0
                       _EUSART1_Read
                            _delayms
                           _get_Data
                         _oled_clear
                      _oled_clearRow
                     _oled_putString
                        _sendCommand
                            _sprintf
 ---------------------------------------------------------------------------------
 (1) _sprintf                                             16    10      6   15209
                                             88 COMRAM     6     0      6
                                              0 BANK0      8     8      0
                       _EUSART1_Read (ARG)
                           _get_Data (ARG)
                           _vfprintf
 ---------------------------------------------------------------------------------
 (2) _vfprintf                                             8     2      6    9232
                                             80 COMRAM     8     2      6
                          _vfpfcnvrt
 ---------------------------------------------------------------------------------
 (3) _vfpfcnvrt                                           42    36      6    8875
                                             63 COMRAM    17    11      6
                               _ctoa
                               _dtoa
                              _fputc
 ---------------------------------------------------------------------------------
 (4) _dtoa                                                36    26     10    5270
                                             27 COMRAM    36    26     10
                            ___aodiv
                            ___aomod
                                _abs
                                _pad
 ---------------------------------------------------------------------------------
 (5) _pad                                                 11     5      6    3621
                                             16 COMRAM    11     5      6
                              _fputc
                              _fputs
                             _strlen
 ---------------------------------------------------------------------------------
 (6) _strlen                                               4     2      2     166
                                              0 COMRAM     4     2      2
 ---------------------------------------------------------------------------------
 (6) _fputs                                                7     3      4    1691
                                              9 COMRAM     7     3      4
                              _fputc
 ---------------------------------------------------------------------------------
 (5) _abs                                                  4     2      2     142
                                             18 COMRAM     4     2      2
                            ___aomod (ARG)
 ---------------------------------------------------------------------------------
 (5) ___aomod                                             18     2     16     448
                                              0 COMRAM    18     2     16
 ---------------------------------------------------------------------------------
 (5) ___aodiv                                             26    10     16     452
                                              0 COMRAM    26    10     16
 ---------------------------------------------------------------------------------
 (4) _ctoa                                                 8     5      3    1645
                                              9 COMRAM     8     5      3
                              _fputc
 ---------------------------------------------------------------------------------
 (4) _fputc                                                9     5      4    1290
                                              0 COMRAM     9     5      4
                              _putch
 ---------------------------------------------------------------------------------
 (5) _putch                                                1     1      0       0
 ---------------------------------------------------------------------------------
 (1) _sendCommand                                          2     0      2    2043
                                              1 COMRAM     2     0      2
                      _EUSART1_Write
 ---------------------------------------------------------------------------------
 (2) _EUSART1_Write                                        1     1      0      22
                                              0 COMRAM     1     1      0
 ---------------------------------------------------------------------------------
 (2) _oled_putString                                       5     1      4   16938
                                             12 COMRAM     5     1      4
                       _oled_putChar
 ---------------------------------------------------------------------------------
 (2) _oled_clear                                           0     0      0     683
                      _oled_clearRow
 ---------------------------------------------------------------------------------
 (3) _oled_clearRow                                        2     2      0     683
                                             12 COMRAM     2     2      0
                       _oled_putChar
 ---------------------------------------------------------------------------------
 (3) _oled_putChar                                        10     8      2     593
                                              2 COMRAM    10     8      2
                 _Set_Column_Address
                   _Set_Page_Address
                     _oled_writeData
 ---------------------------------------------------------------------------------
 (4) _oled_writeData                                       1     1      0      22
                                              0 COMRAM     1     1      0
 ---------------------------------------------------------------------------------
 (4) _Set_Page_Address                                     1     1      0      67
                                              1 COMRAM     1     1      0
                  _oled_writeCommand
 ---------------------------------------------------------------------------------
 (4) _Set_Column_Address                                   1     1      0      66
                                              1 COMRAM     1     1      0
                  _oled_writeCommand
 ---------------------------------------------------------------------------------
 (5) _oled_writeCommand                                    1     1      0      22
                                              0 COMRAM     1     1      0
 ---------------------------------------------------------------------------------
 (2) _get_Data                                             4     2      2       0
                                              0 COMRAM     4     2      2
 ---------------------------------------------------------------------------------
 (2) _delayms                                              5     3      2    1870
                                              0 COMRAM     5     3      2
 ---------------------------------------------------------------------------------
 (2) _EUSART1_Read                                         0     0      0       0
 ---------------------------------------------------------------------------------
 (1) _SYSTEM_Initialize                                    0     0      0     294
                 _EUSART1_Initialize
              _OSCILLATOR_Initialize
             _PIN_MANAGER_Initialize
 ---------------------------------------------------------------------------------
 (2) _PIN_MANAGER_Initialize                               0     0      0       0
 ---------------------------------------------------------------------------------
 (2) _OSCILLATOR_Initialize                                0     0      0       0
 ---------------------------------------------------------------------------------
 (2) _EUSART1_Initialize                                   0     0      0     294
            _EUSART1_SetErrorHandler
     _EUSART1_SetFramingErrorHandler
     _EUSART1_SetOverrunErrorHandler
 ---------------------------------------------------------------------------------
 (3) _EUSART1_SetOverrunErrorHandler                       2     0      2      98
                                              0 COMRAM     2     0      2
 ---------------------------------------------------------------------------------
 (3) _EUSART1_SetFramingErrorHandler                       2     0      2      98
                                              0 COMRAM     2     0      2
 ---------------------------------------------------------------------------------
 (3) _EUSART1_SetErrorHandler                              2     0      2      98
                                              0 COMRAM     2     0      2
 ---------------------------------------------------------------------------------
 Estimated maximum stack depth 6
 ---------------------------------------------------------------------------------

 Call Graph Graphs:

 _main (ROOT)
   _EUSART1_Read
   _SYSTEM_Initialize
     _EUSART1_Initialize
       _EUSART1_SetErrorHandler
       _EUSART1_SetFramingErrorHandler
       _EUSART1_SetOverrunErrorHandler
     _OSCILLATOR_Initialize
     _PIN_MANAGER_Initialize
   _delayms
   _init_mod_LoRa
     _EUSART1_Read
     _delayms
     _get_Data
     _oled_clear
       _oled_clearRow
         _oled_putChar
           _Set_Column_Address
             _oled_writeCommand
           _Set_Page_Address
             _oled_writeCommand
           _oled_writeData
     _oled_clearRow
     _oled_putString
       _oled_putChar
     _sendCommand
       _EUSART1_Write
     _sprintf
       _EUSART1_Read (ARG)
       _get_Data (ARG)
       _vfprintf (ARG)
         _vfpfcnvrt
           _ctoa
             _fputc
               _putch
           _dtoa
             ___aodiv
             ___aomod
             _abs
               ___aomod (ARG)
             _pad
               _fputc
               _fputs
                 _fputc
               _strlen
           _fputc
   _init_port
   _oled_clear
   _oled_init
     _oled_clear
     _oled_devInit
       _oled_initialDispayLine
         _oled_writeCommand
       _oled_powerControl
         _oled_writeCommand
       _oled_regulorResistorSelect
         _oled_writeCommand
       _oled_setContrastControlRegister
         _oled_writeCommand
       _oled_writeCommand
     _oled_setDisplay
       _oled_writeCommand
     _oled_setFont
   _oled_putString
   _oled_putUint8
     ___awdiv
     ___awmod
     _oled_putString
   _sendCommand
   _sprintf

 Address spaces:
Name               Size   Autos  Total    Cost      Usage
BIGRAM             7FF      0       0      21        0.0%
EEDATA             100      0       0       0        0.0%
BITBANK7           100      0       0      19        0.0%
BANK7              100      0       0      20        0.0%
BITBANK6           100      0       0      17        0.0%
BANK6              100      0       0      18        0.0%
BITBANK5           100      0       0      15        0.0%
BANK5              100      0       0      16        0.0%
BITBANK4           100      0       0      13        0.0%
BANK4              100      0       0      14        0.0%
BITBANK3           100      0       0      11        0.0%
BANK3              100      0       0      12        0.0%
BITBANK2           100      0       0       9        0.0%
BANK2              100      0       0      10        0.0%
BITBANK1           100      0       0       7        0.0%
BANK1              100      0       0       8        0.0%
BITBANK0            A0      0       0       4        0.0%
BANK0               A0     3E      72       5       71.2%
BITCOMRAM           5F      0       0       0        0.0%
COMRAM              5F     5F      5F       1      100.0%
BITSFR_1             0      0       0     200        0.0%
SFR_1                0      0       0     200        0.0%
BITSFR               0      0       0     200        0.0%
SFR                  0      0       0     200        0.0%
STACK                0      0       0       2        0.0%
NULL                 0      0       0       0        0.0%
ABS                  0      0      D1       6        0.0%
DATA                 0      0      D1       3        0.0%
CODE                 0      0       0       0        0.0%


Microchip Technology PIC18 Macro Assembler V2.32 build 20210201212658 
Symbol Table                                                                                   Fri Jul 02 17:19:09 2021

                                            l43 5EC8                                              l60 5CB6  
                                            l71 5DA6                                              l64 5CDE  
                                            l74 5C24                                              l67 5D72  
                                            l92 5B82                                              l77 5C36  
                                            l95 5B6E                                              l89 5B78  
                                  ___awdiv@sign 0006                          __end_of_oled_writeData 5C0C  
                                           l300 5BD2                                             l134 5E88  
                                           l310 6204                                             l303 5C20  
                                           l208 5DDC                                             l162 5C8C  
                                           l330 6174                                             l323 60F4  
                                           l219 79E6                                             l307 5C6C  
                                           l243 728A                                             l156 5BB4  
                                           l500 6744                                             l333 5C50  
                                           l341 5D0C                                             l159 5C7E  
                                           l344 6078                                             l193 5BC2  
                                           l361 5BE2                                             l338 5CB4  
                                           l370 5BA6                                             l355 5BF6  
                                           l196 5E34                                             l364 5B8E  
                                           l604 6378                                             l349 5D3C  
                                           l358 5C0A                                             l199 5E4A  
                                           l367 5B9A                                             l617 62B4  
                                           l487 68CC                         ?_oled_initialDispayLine 0001  
                                           u950 6452                                             u951 644E  
                                           u960 6464                                             u961 6460  
                                           u970 648C                                             u971 6488  
                                           u980 64C2                                             u981 64BE  
                                           u990 5F4C                                             u991 5F48  
                                           _abs 5ECA                                             _pad 637A  
                                           _log 00A6                                    ___awmod@sign 0006  
                                           wreg 000FE8                                      _TXSTA1bits 000FAC  
                                          l1105 6B94                                            l1130 6AF2  
                                          l1107 6B9C                                            l1051 5F9E  
                                          ?_abs 0013                                            l1140 6000  
                                          l1125 6DD4                                            l1144 5F00  
                                          l3000 7462                                            l1081 6402  
                                          l1170 5B60                                            l3010 74BC  
                                          l3002 7482                                            l1147 5F08  
                                          l1083 643E                                            l1139 5FF8  
                                          l3100 77A0                                            l3020 7508  
                                          l3012 74C2                                            l3004 7496  
                                          l1094 6570                                            l1078 63C0  
                                          l3110 77FA                                            l3102 77C0  
                                          l3030 7562                                            l3022 7528  
                                          l3014 74C8                                            l3006 74AA  
                                          l1159 6508                                            l1167 5F4C  
                                          l2320 6440                                            l2400 6876  
                                          l1176 5E12                                            l3120 7846  
                                          l3112 7800                                            l3104 77D4  
                                          l3040 75AE                                            l3032 7568  
                                          l3024 753C                                            l3016 74DC  
                                          l3008 74B6                                            l1097 65B2  
                                          l2330 64C2                                            l2322 6452  
                                          l2402 687C                                            l2410 65E2  
                                          l3130 78A0                                            l3122 7866  
                                          l3114 7806                                            l3106 77E8  
                                          l3050 7608                                            l3042 75CE  
                                          l3034 756E                                            l3026 7550  
                                          l3018 74E8                                            l1099 65E0  
                                          l2324 6464                                            l2500 652A  
                                          l2404 688C                                            l2420 6626  
                                          l2412 65E6                                            l2340 5F2C  
                                          l3140 78EC                                            l3132 78A6  
                                          l3124 787A                                            l3116 781A  
                                          l3108 77F4                                            l3060 7654  
                                          l3052 760E                                            l3044 75E2  
                                          l3036 7582                                            l3028 755C  
                                          l3300 6F36                                            l2326 646E  
                                          l2510 6568                                            l2502 6536  
                                          l2406 68AC                                            l2430 668E  
                                          l2422 6646                                            l2414 65F4  
                                          l2334 5F0A                                            l2342 5DDE  
                                          l3150 7946                                            l3142 790C  
                                          l3134 78AC                                            l3126 788E  
                                          l3118 7826                                            l3070 76AE  
                                          l3062 7674                                            l3054 7614  
                                          l3046 75F6                                            l3038 758E  
                                          l3302 6F48                                            l3310 6F8E  
                                          l2360 5BF2                                            l2352 5BE6  
                                          l2600 60E4                                            l2328 648C  
                                          l2520 65D4                                            l2512 657C  
                                          l2504 6544                                            l2440 6704  
                                          l2432 66BC                                            l2424 6664  
                                          l2416 6614                                            l2336 5F16  
                                          l2344 5DEA                                            l3160 7992  
                                          l3152 794C                                            l3144 7920  
                                          l3136 78C0                                            l3128 789A  
                                          l3080 76FA                                            l3072 76B4  
                                          l3064 7688                                            l3056 7628  
                                          l3048 7602                                            l3312 6FA0  
                                          l3320 6FE6                                            l3304 6F5C  
                                          l2362 5BF4                                            l2354 5BEA  
                                          l2514 6590                                            l2506 6556  
                                          l2370 6758                                            l2442 6724  
                                          l2434 66DC                                            l2426 666C  
                                          l2418 6618                                            l2338 5F28  
                                          l2346 5DEE                                            l2450 639E  
                                          l2530 6B5C                                            l2610 6916  
                                          l2602 68CE                                            l3162 79B2  
                                          l3154 7952                                            l3146 7934  
                                          l3138 78CC                                            l3090 7754  
                                          l3082 771A                                            l3074 76BA  
                                          l3066 769C                                            l3058 7634  
                                          l3170 5CF2                                            l3322 6FF8  
                                          l3330 703E                                            l3314 6FB4  
                                          l3306 6F68                                            l3402 728A  
                                          l2356 5BEE                                            l2516 6594  
                                          l2380 67AE                                            l2372 6778  
                                          l2436 66EE                                            l2428 6680  
                                          l2348 5E06                                            l2460 63E4  
                                          l2452 63AC                                            l2540 6BB6  
                                          l2532 6B6C                                            l2524 6AF4  
                                          l2620 69AC                                            l2612 693A  
                                          l2604 68F2                                            l2700 5FDC  
                                          l3164 79C6                                            l3156 7966  
                                          l3148 7940                                            l3092 775A  
                                          l3084 772E                                            l3076 76CE  
                                          l3068 76A8                                            l3172 5CF6  
                                          l3180 61EC                                            l3404 729A  
                                          l3332 7050                                            l3340 7096  
                                          l3324 700C                                            l3316 6FC0  
                                          l3260 6DEA                                            l2710 5EC2  
                                          l2702 5E8A                                            l2358 5BF0  
                                          l2518 65C2                                            l2390 6802  
                                          l2382 67BA                                            l2374 677C  
                                          l2366 6746                                            l2438 66F4  
                                          l2470 5EE4                                            l2462 6412  
                                          l2454 63B8                                            l2446 637A  
                                          l2550 6BE0                                            l2542 6BC4  
                                          l2534 6B6E                                            l2526 6B14  
                                          l2630 6A74                                            l2622 69D0  
                                          l2614 696C                                            l2606 6900  
                                          l3166 79DA                                            l3158 7972  
                                          l3094 7760                                            l3086 7742  
                                          l3078 76DA                                            l3174 5CFC  
                                          l3182 61F0                                            l3406 72AE  
                                          l3342 70A8                                            l3350 70EE  
                                          l3334 7064                                            l3326 7018  
                                          l3270 6E0E                                            l3262 6DEE  
                                          l3254 6DD6                                            l2704 5E9E  
                                          l2720 5CDC                                            l2712 5CB6  
                                          l2472 5BC6                                            l2392 6814  
                                          l2384 67D8                                            l2376 678A  
                                          l2368 674A                                            l2464 6426  
                                          l2456 63CC                                            l2448 638A  
                                          l2560 6CEC                                            l2552 6C62  
                                          l2544 6BCA                                            l2536 6B88  
                                          l2528 6B3C                                            l2640 6AB0  
                                          l2632 6A82                                            l2624 6A18  
                                          l2608 6912                                            l3096 7774  
                                          l3088 774E                                            l2800 6008  
                                          l3176 5D08                                            l3168 5CE0  
                                          l3408 72B2                                            l3352 7100  
                                          l3360 7146                                            l3344 70BC  
                                          l3336 7070                                            l3272 6E22  
                                          l3280 6E74                                            l3264 6DF2  
                                          l3256 6DDA                                            l2706 5EAA  
                                          l2714 5CC4                                            l2730 5D94  
                                          l2474 5BCC                                            l2490 5C06  
                                          l2482 5BFA                                            l2394 6842  
                                          l2386 67E0                                            l2378 67AA  
                                          l2458 63E0                                            l2570 6D60  
                                          l2562 6D0A                                            l2554 6C68  
                                          l2546 6BD2                                            l2538 6BA4  
                                          l2634 6A96                                            l2618 6988  
                                          l3098 7780                                            l2810 602C  
                                          l2802 600A                                            l3178 6178  
                                          l3362 7158                                            l3370 719E  
                                          l3354 7114                                            l3346 70C8  
                                          l3282 6E84                                            l3290 6EDE  
                                          l3274 6E2E                                            l3266 6DF6  
                                          l3258 6DDE                                            l2652 5B70  
                                          l2708 5EB6                                            l2740 5E66  
                                          l2716 5CCA                                            l2732 5D98  
                                          l2724 5D72                                            l2492 5C08  
                                          l2484 5BFE                                            l2660 5C32  
                                          l2396 6862                                            l2388 67F4  
                                          l2468 5ECA                                            l2580 6D9C  
                                          l2572 6D70                                            l2564 6D24  
                                          l2556 6C6E                                            l2548 6BDA  
                                          l2628 6A50                                            l2644 6ABC  
                                          l2820 6054                                            l2812 603C  
                                          l2804 601A                                            l2900 625C  
                                          l3380 71F6                                            l3372 71B0  
                                          l3364 716C                                            l3356 7120  
                                          l3292 6EF0                                            l3284 6E98  
                                          l3276 6E50                                            l3268 6DFC  
                                          l2654 5B7A                                            l2742 5E6C  
                                          l2718 5CD8                                            l2750 5E14  
                                          l2726 5D80                                            l2478 5C0E  
                                          l2486 5C02                                            l2590 608E  
                                          l2670 5CA2                                            l2662 5C90  
                                          l2398 6864                                            l2574 6D76  
                                          l2582 6DAC                                            l2566 6D3E  
                                          l2558 6CD2                                            l2646 6AE0  
                                          l2638 6AA2                                            l2830 6072  
                                          l2822 605A                                            l2814 6042  
                                          l2806 601C                                            l2902 626A  
                                          l2910 6294                                            l3390 7240  
                                          l3382 720A                                            l3374 71B4  
                                          l3366 7178                                            l3294 6F04  
                                          l3286 6EA4                                            l3278 6E64  
                                          l2656 5B66                                            l2744 5E6E  
                                          l2736 5E4C                                            l2920 5BB0  
                                          l2752 5E20                                            l2728 5D86  
                                          l2488 5C04                                            l2672 5CA4  
                                          l2760 5DBC                                            l2496 650A  
                                          l2576 6D88                                            l2568 6D4E  
                                          l2824 6060                                            l2816 6048  
                                          l2808 602A                                            l2832 5D10  
                                          l2840 62BA                                            l2912 62A4  
                                          l2904 6280                                            l3392 7244  
                                          l3384 721A                                            l3376 71C8  
                                          l3296 6F10                                            l3288 6EC6  
                                          l2746 5E86                                            l2738 5E64  
                                          l2754 5E30                                            l2586 607C  
                                          l2770 610E                                            l2658 5C24  
                                          l2762 5DC0                                            l2498 651E  
                                          l2578 6D94                                            l2922 5BB6  
                                          l2690 5B88                                            l2674 5B92  
                                          l2682 5BD6                                            l2826 6066  
                                          l2818 604E                                            l2834 5D20  
                                          l2850 62EA                                            l2842 62C8  
                                          l2914 62AC                                            l2906 6288  
                                          l3394 7258                                            l3386 722E  
                                          l3378 71D4                                            l2748 5C6E  
                                          l2596 6092                                            l2588 6082  
                                          l2668 5C94                                            l2780 5C38  
                                          l2772 613E                                            l2764 60F6  
                                          l2756 5DA8                                            l2924 5BBE  
                                          l2684 5BDC                                            l2828 606C  
                                          l2836 5D30                                            l2860 6318  
                                          l2852 62EE                                            l2844 62D0  
                                          l2908 628E                                            l3396 7264  
                                          l3388 7234                                            l2918 5BA8  
                                          l2598 60E2                                            l2774 616A  
                                          l2766 60FA                                            l2758 5DAC  
                                          l2694 5FA0                                            l2790 5F8C  
                                          l2782 5F4E                                            l2950 72C6  
                                          l2678 5B9E                                            l2870 634C  
                                          l2862 6326                                            l2854 62F6  
                                          l2846 62D4                                            l2838 62B6  
                                          ?_pad 0011                                            l2776 616E  
                                          l2696 5FA8                                            l2784 5F60  
                                          l2960 7316                                            l2952 72D2  
                                          l2688 5B86                                            l2872 6352  
                                          l2864 632C                                            l2856 6308  
                                          l2848 62E2                                            l2698 5FB6  
                                          l2786 5F68                                            l2970 7370  
                                          l2962 7336                                            l2954 72D6  
                                          l2794 5C52                                            l2866 6342  
                                          l2858 6310                                            l2874 6358  
                                          l2890 6224                                            l2882 6206  
                                          l2788 5F70                                            l2980 73BC  
                                          l2972 7376                                            l2964 734A  
                                          l2956 72F6                                            l2796 5C64  
                                          l2876 6368                                            l2868 634A  
                                          l2892 6232                                            l2884 620A  
                                          l2990 7416                                            l2982 73DC  
                                          l2974 737C                                            l2966 7356  
                                          l2958 730A                                            l2798 6002  
                                          l2878 6370                                            l2894 623A  
                                          l2886 6218                                            l2992 741C  
                                          l2984 73F0                                            l2976 7390  
                                          l2968 736A                                            l2896 624C  
                                          l2888 6220                                            l2994 7422  
                                          l2986 7404                                            l2978 739C  
                                          l2898 6254                                            l2996 7436  
                                          l2988 7410                                            l2998 7442  
                                          STR_1 7F9F                                            STR_2 7D38  
                                          STR_3 7D52                                            STR_4 7D04  
                                          STR_5 7D1E                                            STR_6 7FF9  
                                          STR_7 7FF9                                            STR_8 7E33  
                                          STR_9 7FC7                                            u1000 5E06  
                                          u1001 5E02                                            u1010 6758  
                                          u1011 6754                                            u1020 678A  
                                          u1100 6664                                            u1021 6786  
                                          u1101 6660                                            u1110 668E  
                                          u1031 67B4                                            u1111 668A  
                                          u1200 6544                                            u1040 67D8  
                                          u1120 66BC                                            u1201 6540  
                                          u1041 67D4                                            u1121 66B8  
                                          u1210 6564                                            u1050 6802  
                                          u1130 6704                                            u1211 6560  
                                          u1051 67FE                                            u1131 6700  
                                          u1220 65B2                                            u1060 6842  
                                          u1140 638A                                            u1300 6BC4  
                                          u1221 65AE                                            u1061 683E  
                                          u1141 6386                                            u1301 6BC0  
                                          u1230 65C2                                            u1070 688C  
                                          u1150 63AC                                            u1310 6CEC  
                                          u1231 65BE                                            u1071 6888  
                                          u1151 63A8                                            u1311 6CE8  
                                          u1080 65F4                                            u1160 6402  
                                          u1320 6D0A                                            u1240 6B24  
                                          u1400 68F2                                            u1081 65F0  
                                          u1161 63FE                                            u1321 6D06  
                                          u1241 6B1E                                            u1401 68EE  
                                          u1090 6626                                            u1170 6412  
                                          u1330 6D24                                            u1250 6B26  
                                          u1410 693A                                            u1091 6622  
                                          u1171 640E                                            u1331 6D20  
                                          u1411 6936                                            u1500 5D80  
                                          u1180 5EE4                                            u1340 6D3E  
                                          u1260 6B3C                                            u1420 69AC  
                                          u1501 5D7C                                            u1181 5EE0  
                                          u1341 6D3A                                            u1261 6B38  
                                          u1421 69A8                                            _LATA 000F89  
                                          u1510 5D94                                            u1190 651E  
                                          u1350 6D4E                                            u1270 6B6C  
                                          u1430 69D0                                            _LATB 000F8A  
                                          u1511 5D90                                            u1191 651A  
                                          u1351 6D4A                                            u1271 6B68  
                                          u1431 69CC                                            _LATC 000F8B  
                                          u1520 5C8C                                            u1360 6D60  
                                          u1280 6B88                                            u1440 6A74  
                                          u1600 5D20                                            _LATD 000F8C  
                                          u1521 5C88                                            u1361 6D5C  
                                          u1281 6B84                                            u1441 6A70  
                                          u1601 5D1C                                            _LATE 000F8D  
                                          u1530 5E4A                                            u1450 5C32  
                                          u1370 6D70                                            u1290 6BB6  
                                          u1610 62C8                                            u1531 5E46  
                                          u1451 5C2E                                            u1371 6D6C  
                                          u1291 6BB2                                            u1611 62C4  
                                          u1460 5CB4                                            u1540 5DDC  
                                          u1380 6D88                                            u1620 62E2  
                                          u1700 626A                                            u1461 5CB0  
                                          u1541 5DD8                                            u1381 6D84  
                                          u1621 62DE                                            u1701 6266  
                                          u1390 60F4                                            u1550 610A  
                                          u1470 5FF8                                            u1630 6308  
                                          u1710 6280                                            u1391 60F0  
                                          u1551 6106                                            u1471 5FF4  
                                          u1631 6304                                            u1711 627C  
                                          u1480 5CC4                                            u1560 612E  
                                          u1640 6326                                            u1720 62A4  
                                          u1800 7050                                            u1481 5CC0  
                                          u1641 6322                                            u1721 62A0  
                                          u1801 704C                                            u1490 5CD8  
                                          u1570 613E                                            u1650 6342  
                                          u1810 70A8                                            u1491 5CD4  
                                          u1571 613A                                            u1651 633E  
                                          u1811 70A4                                            u1580 6166  
                                          u1660 6368                                            u1820 7100  
                                          u1740 6E0E                                            u1661 6364  
                                          u1821 70FC                                            u1741 6E0A  
                                          u1590 5C64                                            u1670 6218  
                                          u1830 7158                                            u1750 6E84  
                                          u1567 6124                                            u1591 5C60  
                                          u1671 6214                                            u1831 7154  
                                          u1751 6E80                                            u1680 6232  
                                          u1840 71B0                                            u1760 6EF0  
                                          u1681 622E                                            u1841 71AC  
                                          u1761 6EEC                                            u1690 624C  
                                          u1770 6F48                                            u1907 5E26  
                                          u1587 615C                                            u1691 6248  
                                          u1771 6F44                                            u1780 6FA0  
                                          u1781 6F9C                                            u1790 6FF8  
                                          u1791 6FF4                                            u1877 6010  
                                          u1887 6022                                            u1897 6032  
                                          _WPUB 000F85                                   _EUSART1_Write 5C22  
                                          abs@a 0013                                            _dbuf 00AF  
                                          _ctoa 650A                                            _main 6DD6  
                                          _dtoa 6AF4                                   ?_EUSART1_Read 0001  
                                          _prec 00A2                                            _nout 009E  
                                          pad@i 0018                                            pad@p 0015  
                                          fsr0h 000FEA                                            fsr1h 000FE2  
                                          indf0 000FEF                                            fsr2h 000FDA  
                                          fsr0l 000FE9                                            indf2 000FDF  
                                          fsr1l 000FE1                                            pad@w 001A  
                                          fsr2l 000FD9                                            prodl 000FF3  
                                          start 0000                                 ?_oled_putString 000D  
                              ?_oled_setDisplay 0001                                    ___param_bank 000000  
                                         ??_abs 0015                                           ??_pad 0017  
                __size_of_OSCILLATOR_Initialize 0020                  __end_of_oled_initialDispayLine 5B90  
                               ?_oled_writeData 0001                   __end_of_OSCILLATOR_Initialize 5C8E  
                               __end_of___aodiv 68CE                                           ?_ctoa 000A  
                                         ?_main 0001                                           ?_dtoa 001C  
                               __end_of___aomod 6746                                 __end_of___awdiv 637A  
                                         STR_10 7E21                                           STR_11 7FFC  
                                         STR_20 7FF9                                           STR_12 7FF9  
                                         STR_13 7E64                                           STR_21 7E54  
                                         STR_22 7E0E                                           STR_14 7DE8  
                                         STR_30 7D82                                           STR_31 7FFC  
                                         STR_23 7FFC                                           STR_15 7FFC  
                                         STR_40 7FF9                                           STR_32 7FF9  
                                         STR_24 7FF9                                           STR_16 7FF9  
                                         STR_33 7FB3                                           STR_17 7F94  
                                         STR_25 7F88                                           STR_41 7D97  
                                         STR_50 7FBD                                           STR_26 7DFB  
                                         STR_34 7DD4                                           STR_42 7DAC  
                                         STR_18 7CE9                                           STR_43 7FFC  
                                         STR_35 7FFC                                           STR_27 7FFC  
                                         STR_19 7FFC                                           STR_44 7FF9  
                                         STR_36 7FF9                                           STR_28 7FF9  
                                         STR_60 7EF1                                 __end_of___awmod 62B6  
                                         STR_37 7FF5                                           STR_45 7FF0  
                                         STR_29 7FD0                                           STR_61 7E73  
                                         STR_62 7FFC                                           STR_54 7FD9  
                                         STR_70 7E9D                                           STR_46 7DC0  
                                         STR_38 7D6C                                           STR_71 7FFC  
                                         STR_47 7FFC                                           STR_39 7FFC  
                                         STR_63 7EFF                                           STR_48 7FF9  
                                         STR_80 7FFC                                           STR_72 7F29  
                                         STR_64 7E81                                           STR_65 7FFC  
                                         STR_57 7FA9                                           STR_81 7F53  
                                         STR_73 7EAB                                           STR_49 7E44  
                                         STR_74 7FFC                                           STR_90 7FE9  
                                         STR_58 7F7C                                           STR_66 7F0D  
                                         STR_82 7ED5                                           STR_91 7FA9  
                                         STR_83 7FFC                                           STR_59 7FFC  
                                         STR_75 7F37                                           STR_67 7E8F  
                                         STR_92 7F7C                                           STR_68 7FFC  
                                         STR_84 7F61                                           STR_76 7EB9  
                                         STR_93 7FFC                                           STR_77 7FFC  
                                         STR_69 7F1B                                           STR_85 7EE3  
                                         STR_94 7FE9                                           STR_86 7FFC  
                                         STR_78 7F45                                           STR_87 7FE1  
                                         STR_79 7EC7                                           STR_88 7F6F  
                                         STR_89 7FFC                                 ___awdiv@divisor 0003  
                           oled_putUint8@number 0014                                 ___awdiv@counter 0005  
                                  vfpfcnvrt@fmt 0042                                           _TRISA 000F92  
                                         _TRISB 000F93                                           _TRISC 000F94  
                                         _TRISD 000F95                                           _TRISE 000F96  
                               __end_of_delayms 5E4C                               oled_putChar@index 000C  
                                         _flags 00A4                                           _fputc 6440  
                                         _fputs 5F0A                                           pad@fp 0011  
                                         _width 00A0                                           ctoa@c 000C  
                                         _putch 5B60                                           ctoa@l 000E  
                                         ctoa@w 0010                                           dtoa@d 001E  
                                         dtoa@i 003E                                           dtoa@n 0036  
                                         dtoa@p 0030                                           dtoa@s 0034  
                                         dtoa@w 0032                                  ?_EUSART1_Write 0001  
                                         tablat 000FF5                                  ??_EUSART1_Read 0001  
                    oled_setDisplay@displayType 0002                                           status 000FD8  
                               __end_of_sprintf 5FA0              _EUSART1_DefaultFramingErrorHandler 000000  
                               __initialization 5D3E                                    __end_of_ctoa 65E2  
                    __end_of_EUSART1_Initialize 5ECA                                    __end_of_main 72C6  
                                  __end_of_dtoa 6DD6                                    ?_sendCommand 0002  
                                        ??_ctoa 000D                                          ??_main 007C  
                                        ??_dtoa 0026                                   __activetblptr 000002  
                                        ?_fputc 0001                                          _ACTCON 000FB5  
                                        ?_fputs 000A                                  delayms@counter 0004  
                              ___awdiv@dividend 0001                                          _ANSELA 000F5B  
                                        ?_putch 0001                                          _ANSELB 000F5C  
                                        _ANSELC 000F5D                                          _ANSELD 000F5E  
                                        _ANSELE 000F5F                            oled_putUint8@numData 0015  
                                        _RCREG1 000FAE                                          _RCSTA1 000FAB  
                                        _OSCCON 000FD3                                          _PLLRDY 007E97  
                                        _SPBRG1 000FAF                                          _TXREG1 000FAD  
                                        _TXSTA1 000FAC                                   oled_putChar@k 000B  
                              __end_of_get_Data 5DA8                                    vfprintf@cfmt 0057  
                    __end_of_Set_Column_Address 5C22                               init_mod_LoRa@READ 0072  
                     __size_of_Set_Page_Address 0010                                       ??___aodiv 0011  
                                     ??___aomod 0011                                       ??___awdiv 0005  
                                     ??___awmod 0005                          __size_of_init_mod_LoRa 0722  
                             init_mod_LoRa@read 0068                        ?_EUSART1_SetErrorHandler 0001  
                                        clear_0 5D62                                ___awdiv@quotient 0007  
                               ___awmod@divisor 0003                                       ??_delayms 0003  
                                        isa$std 000001                                 ___awmod@counter 0005  
                                        pad@buf 0013                ??_EUSART1_SetOverrunErrorHandler 0003  
               ?_EUSART1_SetOverrunErrorHandler 0001                                          ctoa@fp 000A  
                                        dtoa@fp 001C                                          _strlen 5DDE  
                                        fputc@c 0001                                          fputs@c 000E  
                                        fputs@i 000F                                          fputs@s 000A  
                                  __mediumconst 79E8                                          tblptrh 000FF7  
                                        tblptrl 000FF6                                          tblptru 000FF8  
                                        putch@c 0001                                __end_of_vfprintf 6002  
                               ??_EUSART1_Write 0001                                       ??_sprintf 005F  
                                 ?_oled_devInit 0001                               _SYSTEM_Initialize 5BA8  
                                    __accesstop 0060                         __end_of__initialization 5D68  
                            ?_SYSTEM_Initialize 0001                              oled_writeData@data 0001  
                                 ___rparam_used 000001                                   ?_oled_setFont 0001  
                                 ?_oled_putChar 0003                                  __pcstackCOMRAM 0001  
                                  __pidataBANK0 5B63                             ??_SYSTEM_Initialize 0003  
                                 __end_of_fputc 650A                                   __end_of_fputs 5F4E  
       __end_of_oled_setContrastControlRegister 5BE4        __size_of_oled_setContrastControlRegister 0010  
             ??_oled_setContrastControlRegister 0002                ?_oled_setContrastControlRegister 0001  
               _oled_setContrastControlRegister 5BD4                                   __end_of_putch 5B62  
                          __end_of_EUSART1_Read 5CE0                               __end_of_OledFont0 7CE9  
                                ??_oled_devInit 0003                                         ??_fputc 0005  
                     __end_of_SYSTEM_Initialize 5BB6                                         ??_fputs 000E  
                                 _init_mod_LoRa 72C6                                         ??_putch 0001  
                                    __pbssBANK0 009E                                ??_oled_putString 0011  
                   oled_regulorResistorSelect@r 0002                                  ??_oled_setFont 0003  
                           oled_putString@index 0011                                  ??_oled_putChar 0005  
                            __size_of_init_port 000E                          __size_of_oled_clearRow 0028  
                        oled_putChar@start_page 0004                 __end_of_EUSART1_SetErrorHandler 5B70  
                            __size_of_oled_init 002E                                ??_oled_writeData 0001  
                     Set_Column_Address@address 0002                                         ?_strlen 0001  
        __end_of_EUSART1_SetFramingErrorHandler 5B7A         __size_of_EUSART1_SetFramingErrorHandler 000A  
                _EUSART1_SetFramingErrorHandler 5B70                            __size_of_sendCommand 0036  
                                       _OSCCON2 000FD2                              __size_of_vfpfcnvrt 0226  
                                       _OSCTUNE 000F9B                          __size_of_oled_putUint8 0090  
                                       _SPBRGH1 000FB0                                       ?_get_Data 0001  
                                ?_init_mod_LoRa 0001                                         __Hparam 0000  
                                       __Lparam 0000                                _Set_Page_Address 5BC4  
                                       ___aodiv 6746                                         ___aomod 65E2  
                                       ___awdiv 62B6                                         ___awmod 6206  
                                     ?_vfprintf 0051              oled_setContrastControlRegister@mod 0002  
                                       __pcinit 5D3E                                         __ramtop 0800  
                                       _delayms 5E14                                         __ptext0 6DD6  
                                       __ptext1 6176                                         __ptext2 6206  
                                       __ptext3 62B6                                         __ptext4 5CE0  
                                       __ptext5 5C52                                         __ptext6 5D0E  
                                       __ptext7 6002                                         __ptext8 5BD4  
                                       __ptext9 5B9C                        __size_of_oled_setDisplay 0030  
                              oled_setFont@font 0001                                 __size_of_strlen 0036  
                         _OSCILLATOR_Initialize 5C6E                                   _oled_clearRow 5C8E  
                                  __size_of_abs 0040                                    __size_of_pad 00C6  
                                    _oled_clear 5C38                               __end_of_init_port 5BC4  
                              ___awmod@dividend 0001                              _EUSART1_Initialize 5E8A  
                      ??_PIN_MANAGER_Initialize 0001                                      ??_get_Data 0003  
                             __end_of_oled_init 5D0E                      __size_of_SYSTEM_Initialize 000E  
                                       _sprintf 5F4E                            end_of_initialization 5D68  
                           ?_EUSART1_Initialize 0001                                         fputc@fp 0003  
                                 __Lmediumconst 79E8                     _EUSART1_OverrunErrorHandler 00AA  
                                       fputs@fp 000C                               _oled_powerControl 5B90  
                            ?_oled_powerControl 0001                                   _oled_putUint8 6176  
                             __end_of_vfpfcnvrt 6AF4                                         postdec2 000FDD  
                                       postinc0 000FEE                                         postinc1 000FE6  
                                       postinc2 000FDE                           __size_of_EUSART1_Read 002A  
                          __end_of_oled_devInit 607A                                      ??_vfprintf 0057  
                          ??_EUSART1_Initialize 0003                                         strlen@a 0003  
                                       strlen@s 0001                             ??_oled_powerControl 0002  
                       oled_putUint8@start_page 0013                                  ?_oled_clearRow 0001  
                          __end_of_oled_setFont 5C6E                              _Set_Column_Address 5C0C  
                          __end_of_oled_putChar 60F6                                 ??_init_mod_LoRa 005F  
                                     _TRISAbits 000F92                                       _TRISBbits 000F93  
                                     _TRISCbits 000F94                                       _TRISEbits 000F96  
              __size_of_EUSART1_SetErrorHandler 000A                             EUSART1_Write@txData 0001  
                           ?_Set_Column_Address 0001                        oled_putString@start_page 0010  
                     __end_of_oled_powerControl 5B9C                    ??_oled_regulorResistorSelect 0002  
                                  _EUSART1_Read 5CB6                                  ?_oled_putUint8 0012  
                      ??_oled_initialDispayLine 0002                                sendCommand@texto 0002  
                          ??_Set_Column_Address 0002                                     vfpfcnvrt@ap 0044  
                                   vfpfcnvrt@fp 0040                                     vfpfcnvrt@ll 0048  
                        ?_OSCILLATOR_Initialize 0001                        oled_writeCommand@command 0001  
                                __end_of_strlen 5E14                                     ?_oled_clear 0001  
                           start_initialization 5D3E             __size_of_oled_regulorResistorSelect 000C  
               __size_of_PIN_MANAGER_Initialize 003E                                     __end_of_abs 5F0A  
                                   __end_of_pad 6440                               ??_oled_setDisplay 0002  
                                     _OledFont0 79E9                           __end_of_EUSART1_Write 5C38  
                                 delayms@length 0001                                     vfprintf@fmt 0053  
                                   __pdataBANK0 00CF                                 ??_oled_clearRow 000D  
                                      ??_strlen 0003                       oled_putString@station_dot 000F  
                                 __pcstackBANK0 0060                                ___aodiv@dividend 0001  
                      __end_of_Set_Page_Address 5BD4                               __size_of_get_Data 0036  
              ??_EUSART1_SetFramingErrorHandler 0003                 ?_EUSART1_SetFramingErrorHandler 0001  
                    __size_of_oled_powerControl 000C                                 ??_oled_putUint8 0014  
                          oled_putString@string 000D                               _oled_writeCommand 5BE4  
                         __size_of_oled_devInit 0078                         oled_putChar@station_dot 0003  
                        _PIN_MANAGER_Initialize 5E4C                                       _dtoa$1634 002E  
                           __size_of_oled_clear 001A                 __size_of_oled_initialDispayLine 000C  
                            ?_oled_writeCommand 0001                                   __pmediumconst 79E8  
                                      ?___aodiv 0001                                        ?___aomod 0001  
                                      ?___awdiv 0001                                ___aodiv@quotient 0013  
                                      ?___awmod 0001                           __size_of_oled_setFont 001C  
                                 ??_sendCommand 0004                           __size_of_oled_putChar 007C  
                                      ?_delayms 0001                             ??_oled_writeCommand 0001  
                             __size_of_vfprintf 0062                                        _BAUDCON1 000FB8  
            _EUSART1_DefaultOverrunErrorHandler 000000                            _EUSART1_ErrorHandler 00A8  
                       _EUSART1_SetErrorHandler 5B66                                        ?_sprintf 0059  
                                __size_of_fputc 00CA                                       _init_port 5BB6  
                                __size_of_fputs 0044                                  __size_of_putch 0002  
                                  _oled_devInit 6002              __end_of_oled_regulorResistorSelect 5BA8  
                    _oled_regulorResistorSelect 5B9C                                       _oled_init 5CE0  
                                      _LATAbits 000F89                       __end_of_oled_writeCommand 5BF8  
       EUSART1_SetErrorHandler@interruptHandler 0001                                        _LATBbits 000F8A  
                                      _LATCbits 000F8B                                        _LATEbits 000F8D  
                                  _oled_setFont 5C52                                    _oled_putChar 607A  
                                      _PIR1bits 000F9E                         __size_of_oled_putString 0080  
                                     _vfpfcnvrt 68CE                         Set_Page_Address@address 0002  
                       __size_of_oled_writeData 0014                             __end_of_sendCommand 5DDE  
                        _oled_initialDispayLine 5B84                                      vfpfcnvrt@c 0050  
                                    ?_init_port 0001                                     _INTCON2bits 000FF1  
                                    ?_oled_init 0001                                        __Hrparam 0000  
                                    vfprintf@ap 0055                                        __Lrparam 0000  
                                    vfprintf@fp 0051                         ??_OSCILLATOR_Initialize 0001  
                              __size_of___aodiv 0188                                __size_of___aomod 0164  
                              __size_of___awdiv 00C4                                __size_of___awmod 00B0  
                    oled_initialDispayLine@line 0002                                    _selectedFont 00CF  
                   __size_of_EUSART1_Initialize 0040                                 _oled_setDisplay 5D0E  
                                    ?_vfpfcnvrt 0040                                 ___aodiv@divisor 0009  
                               ___aodiv@counter 0011                                __size_of_delayms 0038  
                     ??_EUSART1_SetErrorHandler 0003                     _EUSART1_DefaultErrorHandler 000000  
                                    sprintf@fmt 005B                                    ??_oled_clear 000F  
                                      _get_Data 5D72                                        __ptext10 5B90  
                                      __ptext11 5B84                                        __ptext20 5F0A  
                                      __ptext12 5BB6                                        __ptext21 5ECA  
                                      __ptext13 72C6                                        __ptext30 5C38  
                                      __ptext22 65E2                                        __ptext14 5F4E  
                                      __ptext31 5C8E                                        __ptext23 6746  
                                      __ptext15 5FA0                                        __ptext40 5BA8  
                                      __ptext32 607A                                        __ptext24 650A  
                                      __ptext16 68CE                                        __ptext41 5E4C  
                                      __ptext33 5BF8                                        __ptext25 6440  
                                      __ptext17 6AF4                                        __ptext42 5C6E  
                                      __ptext34 5BC4                                        __ptext26 5B60  
                                      __ptext18 637A                                        __ptext43 5E8A  
                                      __ptext35 5C0C                                        __ptext27 5DA8  
                                      __ptext19 5DDE                                        __ptext44 5B7A  
                                      __ptext36 5BE4                                        __ptext28 5C22  
                                      __ptext45 5B70                                        __ptext37 5D72  
                                      __ptext29 60F6                                        __ptext46 5B66  
                                      __ptext38 5E14                                        __ptext39 5CB6  
                         __end_of_init_mod_LoRa 79E8                                __size_of_sprintf 0052  
                                 __size_of_ctoa 00D8                                   __size_of_main 04F0  
                                 __size_of_dtoa 02E2                      __size_of_oled_writeCommand 0014  
                                _Contrast_level 00D1  EUSART1_SetOverrunErrorHandler@interruptHandler 0001  
                            __end_of_oled_clear 5C52                                        isa$xinst 000000  
                                      _vfprintf 5FA0                     __size_of_Set_Column_Address 0016  
                                      main@cont 009D                                        main@read 007D  
                                   _sendCommand 5DA8                              oled_clearRow@index 000E  
                   _EUSART1_FramingErrorHandler 00AC                                ___aomod@dividend 0001  
                                    _INTCONbits 000FF2                               ?_Set_Page_Address 0001  
                                   ??_init_port 0001                                       sprintf@ap 0060  
                                   ??_oled_init 000F                              ??_Set_Page_Address 0002  
                          oled_powerControl@vol 0002                         ?_PIN_MANAGER_Initialize 0001  
        __end_of_EUSART1_SetOverrunErrorHandler 5B84         __size_of_EUSART1_SetOverrunErrorHandler 000A  
                _EUSART1_SetOverrunErrorHandler 5B7A                                      _RCSTA1bits 000FAB  
                       __end_of_oled_setDisplay 5D3E                                  _oled_putString 60F6  
                             oled_clearRow@page 000D  EUSART1_SetFramingErrorHandler@interruptHandler 0001  
                               ___aomod@divisor 0009                                     ??_vfpfcnvrt 0046  
                               ___aomod@counter 0011                          __size_of_EUSART1_Write 0016  
                            _eusart1RxLastError 00AE                           __end_of_oled_clearRow 5CB6  
                                      sprintf@f 0062                                        sprintf@s 0059  
                                _oled_writeData 5BF8                        oled_putUint8@station_dot 0012  
                                  ___aodiv@sign 0012                  __end_of_PIN_MANAGER_Initialize 5E8A  
                   ?_oled_regulorResistorSelect 0001                                    ___aomod@sign 0012  
                         __end_of_oled_putUint8 6206                          __end_of_oled_putString 6176  
