

Microchip MPLAB XC8 Assembler V2.31 build 20201012212115 
                                                                                               Thu Jul  8 14:05:42 2021

Microchip MPLAB XC8 C Compiler v2.31 (Free license) build 20201012212115 Og1 
     1                           	processor	18LF45K50
     2                           	fnconf	rparam,??,?,0
     3                           	pagewidth 120
     4                           	opt	flic
     5                           	psect	idataCOMRAM,global,class=CODE,delta=1,noexec
     6                           	psect	mediumconst,global,reloc=2,class=MEDIUMCONST,delta=1,noexec
     7                           	psect	cinit,global,reloc=2,class=CODE,delta=1
     8                           	psect	bssCOMRAM,global,class=COMRAM,space=1,delta=1,lowdata,noexec
     9                           	psect	dataCOMRAM,global,class=COMRAM,space=1,delta=1,lowdata,noexec
    10                           	psect	cstackCOMRAM,global,class=COMRAM,space=1,delta=1,lowdata,noexec
    11                           	psect	text0,global,reloc=2,class=CODE,delta=1
    12                           	psect	text1,global,reloc=2,class=CODE,delta=1
    13                           	psect	text2,global,reloc=2,class=CODE,delta=1
    14                           	psect	text3,global,reloc=2,class=CODE,delta=1
    15                           	psect	text4,global,reloc=2,class=CODE,delta=1
    16                           	psect	text5,global,reloc=2,class=CODE,delta=1
    17                           	psect	text6,global,reloc=2,class=CODE,delta=1
    18                           	psect	text7,global,reloc=2,class=CODE,delta=1
    19                           	psect	text8,global,reloc=2,class=CODE,delta=1
    20                           	psect	text9,global,reloc=2,class=CODE,delta=1
    21                           	psect	text10,global,reloc=2,class=CODE,delta=1
    22                           	psect	text11,global,reloc=2,class=CODE,delta=1
    23                           	psect	text12,global,reloc=2,class=CODE,delta=1
    24                           	psect	text13,global,reloc=2,class=CODE,delta=1
    25                           	psect	text14,global,reloc=2,class=CODE,delta=1
    26                           	psect	text15,global,reloc=2,class=CODE,delta=1
    27                           	psect	text16,global,reloc=2,class=CODE,delta=1
    28                           	psect	text17,global,reloc=2,class=CODE,delta=1
    29                           	psect	text18,global,reloc=2,class=CODE,delta=1
    30                           	psect	text19,global,reloc=2,class=CODE,delta=1
    31                           	psect	text20,global,reloc=2,class=CODE,delta=1
    32                           	psect	text21,global,reloc=2,class=CODE,delta=1
    33                           	psect	text22,global,reloc=2,class=CODE,delta=1
    34                           	psect	text23,global,reloc=2,class=CODE,delta=1
    35                           	psect	text24,global,reloc=2,class=CODE,delta=1
    36                           	psect	text25,global,reloc=2,class=CODE,delta=1
    37                           	psect	text26,global,reloc=2,class=CODE,delta=1
    38                           	psect	text27,global,reloc=2,class=CODE,delta=1
    39                           	psect	text28,global,reloc=2,class=CODE,delta=1
    40                           	psect	text29,global,reloc=2,class=CODE,delta=1
    41                           	psect	text30,global,reloc=2,class=CODE,delta=1
    42                           	psect	text31,global,reloc=2,class=CODE,delta=1
    43                           	psect	intsave_regs,global,class=BIGRAM,space=1,delta=1,noexec
    44                           	psect	rparam,global,class=COMRAM,space=1,delta=1,noexec
    45                           	psect	idloc,global,abs,ovrld,class=IDLOC,space=5,delta=1,noexec
    46                           	psect	config,global,abs,ovrld,class=CONFIG,space=4,delta=1,noexec
    47  0000                     
    48                           ; Version 2.20
    49                           ; Generated 05/05/2020 GMT
    50                           ; 
    51                           ; Copyright © 2020, Microchip Technology Inc. and its subsidiaries ("Microchip")
    52                           ; All rights reserved.
    53                           ; 
    54                           ; This software is developed by Microchip Technology Inc. and its subsidiaries ("Microch
      +                          ip").
    55                           ; 
    56                           ; Redistribution and use in source and binary forms, with or without modification, are
    57                           ; permitted provided that the following conditions are met:
    58                           ; 
    59                           ;     1. Redistributions of source code must retain the above copyright notice, this lis
      +                          t of
    60                           ;        conditions and the following disclaimer.
    61                           ; 
    62                           ;     2. Redistributions in binary form must reproduce the above copyright notice, this 
      +                          list
    63                           ;        of conditions and the following disclaimer in the documentation and/or other
    64                           ;        materials provided with the distribution.
    65                           ; 
    66                           ;     3. Microchip's name may not be used to endorse or promote products derived from th
      +                          is
    67                           ;        software without specific prior written permission.
    68                           ; 
    69                           ; THIS SOFTWARE IS PROVIDED BY MICROCHIP "AS IS" AND ANY EXPRESS OR IMPLIED WARRANTIES,
    70                           ; INCLUDING, BUT NOT LIMITED TO, THE IMPLIED WARRANTIES OF MERCHANTABILITY AND FITNESS F
      +                          OR
    71                           ; PURPOSE ARE DISCLAIMED.  IN NO EVENT SHALL MICROCHIP BE LIABLE FOR ANY DIRECT, INDIREC
      +                          T,
    72                           ; INCIDENTAL, SPECIAL, EXEMPLARY, OR CONSEQUENTIAL DAMAGES (INCLUDING BUT NOT LIMITED TO
    73                           ; PROCUREMENT OF SUBSTITUTE GOODS OR SERVICES; LOSS OF USE, DATA OR PROFITS; OR BUSINESS
    74                           ; INTERRUPTION) HOWSOEVER CAUSED AND ON ANY THEORY OF LIABILITY, WHETHER IN CONTRACT, ST
      +                          RICT
    75                           ; LIABILITY, OR TORT (INCLUDING NEGLIGENCE OR OTHERWISE) ARISING IN ANY WAY OUT OF THE U
      +                          SE OF
    76                           ; THIS SOFTWARE, EVEN IF ADVISED OF THE POSSIBILITY OF SUCH DAMAGE.
    77                           ; 
    78                           ; 
    79                           ; Code-generator required, PIC18LF45K50 Definitions
    80                           ; 
    81                           ; SFR Addresses
    82  0000                     
    83 ;; Function _EUSART1_DefaultFramingErrorHandler is unused but had its address taken
    84  0000                     
    85 ;; Function _EUSART1_DefaultOverrunErrorHandler is unused but had its address taken
    86  0000                     
    87 ;; Function _EUSART1_DefaultErrorHandler is unused but had its address taken
    88  0000                     
    89                           	psect	idataCOMRAM
    90  006C5D                     __pidataCOMRAM:
    91                           	callstack 0
    92                           
    93                           ;initializer for Opening@F5429
    94  006C5D  20                 	db	32
    95  006C5E  20                 	db	32
    96  006C5F  20                 	db	32
    97  006C60  55                 	db	85
    98  006C61  4E                 	db	78
    99  006C62  49                 	db	73
   100  006C63  42                 	db	66
   101  006C64  41                 	db	65
   102  006C65  47                 	db	71
   103  006C66  55                 	db	85
   104  006C67  45                 	db	69
   105  006C68  20                 	db	32
   106  006C69  20                 	db	32
   107  006C6A  20                 	db	32
   108  006C6B  20                 	db	32
   109  006C6C  00                 	db	0
   110                           
   111                           ;initializer for _selectedFont
   112  006C6D  5D                 	db	low _OledFont0
   113  006C6E  79                 	db	high _OledFont0
   114                           
   115                           ;initializer for _Contrast_level
   116  006C6F  13                 	db	19
   117                           
   118                           	psect	mediumconst
   119  00795C                     __pmediumconst:
   120                           	callstack 0
   121  00795C  00                 	db	0
   122  00795D                     _OledFont0:
   123                           	callstack 0
   124  00795D  00                 	db	0
   125  00795E  00                 	db	0
   126  00795F  00                 	db	0
   127  007960  00                 	db	0
   128  007961  00                 	db	0
   129  007962  00                 	db	0
   130  007963  00                 	db	0
   131  007964  00                 	db	0
   132  007965  00                 	db	0
   133  007966  00                 	db	0
   134  007967  00                 	db	0
   135  007968  5F                 	db	95
   136  007969  00                 	db	0
   137  00796A  00                 	db	0
   138  00796B  00                 	db	0
   139  00796C  00                 	db	0
   140  00796D  00                 	db	0
   141  00796E  00                 	db	0
   142  00796F  03                 	db	3
   143  007970  00                 	db	0
   144  007971  03                 	db	3
   145  007972  00                 	db	0
   146  007973  00                 	db	0
   147  007974  00                 	db	0
   148  007975  64                 	db	100
   149  007976  3C                 	db	60
   150  007977  26                 	db	38
   151  007978  64                 	db	100
   152  007979  3C                 	db	60
   153  00797A  26                 	db	38
   154  00797B  24                 	db	36
   155  00797C  00                 	db	0
   156  00797D  26                 	db	38
   157  00797E  49                 	db	73
   158  00797F  49                 	db	73
   159  007980  7F                 	db	127
   160  007981  49                 	db	73
   161  007982  49                 	db	73
   162  007983  32                 	db	50
   163  007984  00                 	db	0
   164  007985  42                 	db	66
   165  007986  25                 	db	37
   166  007987  12                 	db	18
   167  007988  08                 	db	8
   168  007989  24                 	db	36
   169  00798A  52                 	db	82
   170  00798B  21                 	db	33
   171  00798C  00                 	db	0
   172  00798D  20                 	db	32
   173  00798E  50                 	db	80
   174  00798F  4E                 	db	78
   175  007990  55                 	db	85
   176  007991  22                 	db	34
   177  007992  58                 	db	88
   178  007993  28                 	db	40
   179  007994  00                 	db	0
   180  007995  00                 	db	0
   181  007996  00                 	db	0
   182  007997  00                 	db	0
   183  007998  03                 	db	3
   184  007999  00                 	db	0
   185  00799A  00                 	db	0
   186  00799B  00                 	db	0
   187  00799C  00                 	db	0
   188  00799D  00                 	db	0
   189  00799E  00                 	db	0
   190  00799F  1C                 	db	28
   191  0079A0  22                 	db	34
   192  0079A1  41                 	db	65
   193  0079A2  00                 	db	0
   194  0079A3  00                 	db	0
   195  0079A4  00                 	db	0
   196  0079A5  00                 	db	0
   197  0079A6  00                 	db	0
   198  0079A7  00                 	db	0
   199  0079A8  41                 	db	65
   200  0079A9  22                 	db	34
   201  0079AA  1C                 	db	28
   202  0079AB  00                 	db	0
   203  0079AC  00                 	db	0
   204  0079AD  00                 	db	0
   205  0079AE  15                 	db	21
   206  0079AF  15                 	db	21
   207  0079B0  0E                 	db	14
   208  0079B1  0E                 	db	14
   209  0079B2  15                 	db	21
   210  0079B3  15                 	db	21
   211  0079B4  00                 	db	0
   212  0079B5  00                 	db	0
   213  0079B6  08                 	db	8
   214  0079B7  08                 	db	8
   215  0079B8  3E                 	db	62
   216  0079B9  08                 	db	8
   217  0079BA  08                 	db	8
   218  0079BB  00                 	db	0
   219  0079BC  00                 	db	0
   220  0079BD  00                 	db	0
   221  0079BE  00                 	db	0
   222  0079BF  00                 	db	0
   223  0079C0  50                 	db	80
   224  0079C1  30                 	db	48
   225  0079C2  00                 	db	0
   226  0079C3  00                 	db	0
   227  0079C4  00                 	db	0
   228  0079C5  00                 	db	0
   229  0079C6  08                 	db	8
   230  0079C7  08                 	db	8
   231  0079C8  08                 	db	8
   232  0079C9  08                 	db	8
   233  0079CA  08                 	db	8
   234  0079CB  00                 	db	0
   235  0079CC  00                 	db	0
   236  0079CD  00                 	db	0
   237  0079CE  00                 	db	0
   238  0079CF  00                 	db	0
   239  0079D0  40                 	db	64
   240  0079D1  00                 	db	0
   241  0079D2  00                 	db	0
   242  0079D3  00                 	db	0
   243  0079D4  00                 	db	0
   244  0079D5  40                 	db	64
   245  0079D6  20                 	db	32
   246  0079D7  10                 	db	16
   247  0079D8  08                 	db	8
   248  0079D9  04                 	db	4
   249  0079DA  02                 	db	2
   250  0079DB  01                 	db	1
   251  0079DC  00                 	db	0
   252  0079DD  00                 	db	0
   253  0079DE  3E                 	db	62
   254  0079DF  41                 	db	65
   255  0079E0  41                 	db	65
   256  0079E1  41                 	db	65
   257  0079E2  3E                 	db	62
   258  0079E3  00                 	db	0
   259  0079E4  00                 	db	0
   260  0079E5  00                 	db	0
   261  0079E6  00                 	db	0
   262  0079E7  41                 	db	65
   263  0079E8  7F                 	db	127
   264  0079E9  40                 	db	64
   265  0079EA  00                 	db	0
   266  0079EB  00                 	db	0
   267  0079EC  00                 	db	0
   268  0079ED  00                 	db	0
   269  0079EE  42                 	db	66
   270  0079EF  61                 	db	97
   271  0079F0  51                 	db	81
   272  0079F1  49                 	db	73
   273  0079F2  6E                 	db	110
   274  0079F3  00                 	db	0
   275  0079F4  00                 	db	0
   276  0079F5  00                 	db	0
   277  0079F6  22                 	db	34
   278  0079F7  41                 	db	65
   279  0079F8  49                 	db	73
   280  0079F9  49                 	db	73
   281  0079FA  36                 	db	54
   282  0079FB  00                 	db	0
   283  0079FC  00                 	db	0
   284  0079FD  00                 	db	0
   285  0079FE  18                 	db	24
   286  0079FF  14                 	db	20
   287  007A00  12                 	db	18
   288  007A01  7F                 	db	127
   289  007A02  10                 	db	16
   290  007A03  00                 	db	0
   291  007A04  00                 	db	0
   292  007A05  00                 	db	0
   293  007A06  27                 	db	39
   294  007A07  49                 	db	73
   295  007A08  49                 	db	73
   296  007A09  49                 	db	73
   297  007A0A  71                 	db	113
   298  007A0B  00                 	db	0
   299  007A0C  00                 	db	0
   300  007A0D  00                 	db	0
   301  007A0E  3C                 	db	60
   302  007A0F  4A                 	db	74
   303  007A10  49                 	db	73
   304  007A11  48                 	db	72
   305  007A12  70                 	db	112
   306  007A13  00                 	db	0
   307  007A14  00                 	db	0
   308  007A15  00                 	db	0
   309  007A16  43                 	db	67
   310  007A17  21                 	db	33
   311  007A18  11                 	db	17
   312  007A19  0D                 	db	13
   313  007A1A  03                 	db	3
   314  007A1B  00                 	db	0
   315  007A1C  00                 	db	0
   316  007A1D  00                 	db	0
   317  007A1E  36                 	db	54
   318  007A1F  49                 	db	73
   319  007A20  49                 	db	73
   320  007A21  49                 	db	73
   321  007A22  36                 	db	54
   322  007A23  00                 	db	0
   323  007A24  00                 	db	0
   324  007A25  00                 	db	0
   325  007A26  06                 	db	6
   326  007A27  09                 	db	9
   327  007A28  49                 	db	73
   328  007A29  29                 	db	41
   329  007A2A  1E                 	db	30
   330  007A2B  00                 	db	0
   331  007A2C  00                 	db	0
   332  007A2D  00                 	db	0
   333  007A2E  00                 	db	0
   334  007A2F  00                 	db	0
   335  007A30  12                 	db	18
   336  007A31  00                 	db	0
   337  007A32  00                 	db	0
   338  007A33  00                 	db	0
   339  007A34  00                 	db	0
   340  007A35  00                 	db	0
   341  007A36  00                 	db	0
   342  007A37  00                 	db	0
   343  007A38  52                 	db	82
   344  007A39  30                 	db	48
   345  007A3A  00                 	db	0
   346  007A3B  00                 	db	0
   347  007A3C  00                 	db	0
   348  007A3D  00                 	db	0
   349  007A3E  00                 	db	0
   350  007A3F  08                 	db	8
   351  007A40  14                 	db	20
   352  007A41  14                 	db	20
   353  007A42  22                 	db	34
   354  007A43  00                 	db	0
   355  007A44  00                 	db	0
   356  007A45  00                 	db	0
   357  007A46  14                 	db	20
   358  007A47  14                 	db	20
   359  007A48  14                 	db	20
   360  007A49  14                 	db	20
   361  007A4A  14                 	db	20
   362  007A4B  14                 	db	20
   363  007A4C  00                 	db	0
   364  007A4D  00                 	db	0
   365  007A4E  00                 	db	0
   366  007A4F  22                 	db	34
   367  007A50  14                 	db	20
   368  007A51  14                 	db	20
   369  007A52  08                 	db	8
   370  007A53  00                 	db	0
   371  007A54  00                 	db	0
   372  007A55  00                 	db	0
   373  007A56  02                 	db	2
   374  007A57  01                 	db	1
   375  007A58  59                 	db	89
   376  007A59  05                 	db	5
   377  007A5A  02                 	db	2
   378  007A5B  00                 	db	0
   379  007A5C  00                 	db	0
   380  007A5D  3E                 	db	62
   381  007A5E  41                 	db	65
   382  007A5F  5D                 	db	93
   383  007A60  55                 	db	85
   384  007A61  4D                 	db	77
   385  007A62  51                 	db	81
   386  007A63  2E                 	db	46
   387  007A64  00                 	db	0
   388  007A65  40                 	db	64
   389  007A66  7C                 	db	124
   390  007A67  4A                 	db	74
   391  007A68  09                 	db	9
   392  007A69  4A                 	db	74
   393  007A6A  7C                 	db	124
   394  007A6B  40                 	db	64
   395  007A6C  00                 	db	0
   396  007A6D  41                 	db	65
   397  007A6E  7F                 	db	127
   398  007A6F  49                 	db	73
   399  007A70  49                 	db	73
   400  007A71  49                 	db	73
   401  007A72  49                 	db	73
   402  007A73  36                 	db	54
   403  007A74  00                 	db	0
   404  007A75  1C                 	db	28
   405  007A76  22                 	db	34
   406  007A77  41                 	db	65
   407  007A78  41                 	db	65
   408  007A79  41                 	db	65
   409  007A7A  41                 	db	65
   410  007A7B  22                 	db	34
   411  007A7C  00                 	db	0
   412  007A7D  41                 	db	65
   413  007A7E  7F                 	db	127
   414  007A7F  41                 	db	65
   415  007A80  41                 	db	65
   416  007A81  41                 	db	65
   417  007A82  22                 	db	34
   418  007A83  1C                 	db	28
   419  007A84  00                 	db	0
   420  007A85  41                 	db	65
   421  007A86  7F                 	db	127
   422  007A87  49                 	db	73
   423  007A88  49                 	db	73
   424  007A89  5D                 	db	93
   425  007A8A  41                 	db	65
   426  007A8B  63                 	db	99
   427  007A8C  00                 	db	0
   428  007A8D  41                 	db	65
   429  007A8E  7F                 	db	127
   430  007A8F  49                 	db	73
   431  007A90  09                 	db	9
   432  007A91  1D                 	db	29
   433  007A92  01                 	db	1
   434  007A93  03                 	db	3
   435  007A94  00                 	db	0
   436  007A95  1C                 	db	28
   437  007A96  22                 	db	34
   438  007A97  41                 	db	65
   439  007A98  49                 	db	73
   440  007A99  49                 	db	73
   441  007A9A  3A                 	db	58
   442  007A9B  08                 	db	8
   443  007A9C  00                 	db	0
   444  007A9D  41                 	db	65
   445  007A9E  7F                 	db	127
   446  007A9F  08                 	db	8
   447  007AA0  08                 	db	8
   448  007AA1  08                 	db	8
   449  007AA2  7F                 	db	127
   450  007AA3  41                 	db	65
   451  007AA4  00                 	db	0
   452  007AA5  00                 	db	0
   453  007AA6  41                 	db	65
   454  007AA7  41                 	db	65
   455  007AA8  7F                 	db	127
   456  007AA9  41                 	db	65
   457  007AAA  41                 	db	65
   458  007AAB  00                 	db	0
   459  007AAC  00                 	db	0
   460  007AAD  30                 	db	48
   461  007AAE  40                 	db	64
   462  007AAF  41                 	db	65
   463  007AB0  41                 	db	65
   464  007AB1  3F                 	db	63
   465  007AB2  01                 	db	1
   466  007AB3  01                 	db	1
   467  007AB4  00                 	db	0
   468  007AB5  41                 	db	65
   469  007AB6  7F                 	db	127
   470  007AB7  08                 	db	8
   471  007AB8  0C                 	db	12
   472  007AB9  12                 	db	18
   473  007ABA  61                 	db	97
   474  007ABB  41                 	db	65
   475  007ABC  00                 	db	0
   476  007ABD  41                 	db	65
   477  007ABE  7F                 	db	127
   478  007ABF  41                 	db	65
   479  007AC0  40                 	db	64
   480  007AC1  40                 	db	64
   481  007AC2  40                 	db	64
   482  007AC3  60                 	db	96
   483  007AC4  00                 	db	0
   484  007AC5  41                 	db	65
   485  007AC6  7F                 	db	127
   486  007AC7  42                 	db	66
   487  007AC8  0C                 	db	12
   488  007AC9  42                 	db	66
   489  007ACA  7F                 	db	127
   490  007ACB  41                 	db	65
   491  007ACC  00                 	db	0
   492  007ACD  41                 	db	65
   493  007ACE  7F                 	db	127
   494  007ACF  42                 	db	66
   495  007AD0  0C                 	db	12
   496  007AD1  11                 	db	17
   497  007AD2  7F                 	db	127
   498  007AD3  01                 	db	1
   499  007AD4  00                 	db	0
   500  007AD5  1C                 	db	28
   501  007AD6  22                 	db	34
   502  007AD7  41                 	db	65
   503  007AD8  41                 	db	65
   504  007AD9  41                 	db	65
   505  007ADA  22                 	db	34
   506  007ADB  1C                 	db	28
   507  007ADC  00                 	db	0
   508  007ADD  41                 	db	65
   509  007ADE  7F                 	db	127
   510  007ADF  49                 	db	73
   511  007AE0  09                 	db	9
   512  007AE1  09                 	db	9
   513  007AE2  09                 	db	9
   514  007AE3  06                 	db	6
   515  007AE4  00                 	db	0
   516  007AE5  0C                 	db	12
   517  007AE6  12                 	db	18
   518  007AE7  21                 	db	33
   519  007AE8  21                 	db	33
   520  007AE9  61                 	db	97
   521  007AEA  52                 	db	82
   522  007AEB  4C                 	db	76
   523  007AEC  00                 	db	0
   524  007AED  41                 	db	65
   525  007AEE  7F                 	db	127
   526  007AEF  09                 	db	9
   527  007AF0  09                 	db	9
   528  007AF1  19                 	db	25
   529  007AF2  69                 	db	105
   530  007AF3  46                 	db	70
   531  007AF4  00                 	db	0
   532  007AF5  66                 	db	102
   533  007AF6  49                 	db	73
   534  007AF7  49                 	db	73
   535  007AF8  49                 	db	73
   536  007AF9  49                 	db	73
   537  007AFA  49                 	db	73
   538  007AFB  33                 	db	51
   539  007AFC  00                 	db	0
   540  007AFD  03                 	db	3
   541  007AFE  01                 	db	1
   542  007AFF  41                 	db	65
   543  007B00  7F                 	db	127
   544  007B01  41                 	db	65
   545  007B02  01                 	db	1
   546  007B03  03                 	db	3
   547  007B04  00                 	db	0
   548  007B05  01                 	db	1
   549  007B06  3F                 	db	63
   550  007B07  41                 	db	65
   551  007B08  40                 	db	64
   552  007B09  41                 	db	65
   553  007B0A  3F                 	db	63
   554  007B0B  01                 	db	1
   555  007B0C  00                 	db	0
   556  007B0D  01                 	db	1
   557  007B0E  0F                 	db	15
   558  007B0F  31                 	db	49
   559  007B10  40                 	db	64
   560  007B11  31                 	db	49
   561  007B12  0F                 	db	15
   562  007B13  01                 	db	1
   563  007B14  00                 	db	0
   564  007B15  01                 	db	1
   565  007B16  1F                 	db	31
   566  007B17  61                 	db	97
   567  007B18  14                 	db	20
   568  007B19  61                 	db	97
   569  007B1A  1F                 	db	31
   570  007B1B  01                 	db	1
   571  007B1C  00                 	db	0
   572  007B1D  41                 	db	65
   573  007B1E  41                 	db	65
   574  007B1F  36                 	db	54
   575  007B20  08                 	db	8
   576  007B21  36                 	db	54
   577  007B22  41                 	db	65
   578  007B23  41                 	db	65
   579  007B24  00                 	db	0
   580  007B25  01                 	db	1
   581  007B26  03                 	db	3
   582  007B27  44                 	db	68
   583  007B28  78                 	db	120
   584  007B29  44                 	db	68
   585  007B2A  03                 	db	3
   586  007B2B  01                 	db	1
   587  007B2C  00                 	db	0
   588  007B2D  43                 	db	67
   589  007B2E  61                 	db	97
   590  007B2F  51                 	db	81
   591  007B30  49                 	db	73
   592  007B31  45                 	db	69
   593  007B32  43                 	db	67
   594  007B33  61                 	db	97
   595  007B34  00                 	db	0
   596  007B35  00                 	db	0
   597  007B36  00                 	db	0
   598  007B37  7F                 	db	127
   599  007B38  41                 	db	65
   600  007B39  41                 	db	65
   601  007B3A  00                 	db	0
   602  007B3B  00                 	db	0
   603  007B3C  00                 	db	0
   604  007B3D  01                 	db	1
   605  007B3E  02                 	db	2
   606  007B3F  04                 	db	4
   607  007B40  08                 	db	8
   608  007B41  10                 	db	16
   609  007B42  20                 	db	32
   610  007B43  40                 	db	64
   611  007B44  00                 	db	0
   612  007B45  00                 	db	0
   613  007B46  00                 	db	0
   614  007B47  41                 	db	65
   615  007B48  41                 	db	65
   616  007B49  7F                 	db	127
   617  007B4A  00                 	db	0
   618  007B4B  00                 	db	0
   619  007B4C  00                 	db	0
   620  007B4D  00                 	db	0
   621  007B4E  04                 	db	4
   622  007B4F  02                 	db	2
   623  007B50  01                 	db	1
   624  007B51  01                 	db	1
   625  007B52  02                 	db	2
   626  007B53  04                 	db	4
   627  007B54  00                 	db	0
   628  007B55  00                 	db	0
   629  007B56  40                 	db	64
   630  007B57  40                 	db	64
   631  007B58  40                 	db	64
   632  007B59  40                 	db	64
   633  007B5A  40                 	db	64
   634  007B5B  40                 	db	64
   635  007B5C  00                 	db	0
   636  007B5D  00                 	db	0
   637  007B5E  01                 	db	1
   638  007B5F  02                 	db	2
   639  007B60  00                 	db	0
   640  007B61  00                 	db	0
   641  007B62  00                 	db	0
   642  007B63  00                 	db	0
   643  007B64  00                 	db	0
   644  007B65  00                 	db	0
   645  007B66  34                 	db	52
   646  007B67  4A                 	db	74
   647  007B68  4A                 	db	74
   648  007B69  4A                 	db	74
   649  007B6A  3C                 	db	60
   650  007B6B  40                 	db	64
   651  007B6C  00                 	db	0
   652  007B6D  00                 	db	0
   653  007B6E  41                 	db	65
   654  007B6F  3F                 	db	63
   655  007B70  48                 	db	72
   656  007B71  48                 	db	72
   657  007B72  48                 	db	72
   658  007B73  30                 	db	48
   659  007B74  00                 	db	0
   660  007B75  00                 	db	0
   661  007B76  3C                 	db	60
   662  007B77  42                 	db	66
   663  007B78  42                 	db	66
   664  007B79  42                 	db	66
   665  007B7A  24                 	db	36
   666  007B7B  00                 	db	0
   667  007B7C  00                 	db	0
   668  007B7D  00                 	db	0
   669  007B7E  30                 	db	48
   670  007B7F  48                 	db	72
   671  007B80  48                 	db	72
   672  007B81  49                 	db	73
   673  007B82  3F                 	db	63
   674  007B83  40                 	db	64
   675  007B84  00                 	db	0
   676  007B85  00                 	db	0
   677  007B86  3C                 	db	60
   678  007B87  4A                 	db	74
   679  007B88  4A                 	db	74
   680  007B89  4A                 	db	74
   681  007B8A  2C                 	db	44
   682  007B8B  00                 	db	0
   683  007B8C  00                 	db	0
   684  007B8D  00                 	db	0
   685  007B8E  00                 	db	0
   686  007B8F  48                 	db	72
   687  007B90  7E                 	db	126
   688  007B91  49                 	db	73
   689  007B92  09                 	db	9
   690  007B93  00                 	db	0
   691  007B94  00                 	db	0
   692  007B95  00                 	db	0
   693  007B96  26                 	db	38
   694  007B97  49                 	db	73
   695  007B98  49                 	db	73
   696  007B99  49                 	db	73
   697  007B9A  3F                 	db	63
   698  007B9B  01                 	db	1
   699  007B9C  00                 	db	0
   700  007B9D  41                 	db	65
   701  007B9E  7F                 	db	127
   702  007B9F  48                 	db	72
   703  007BA0  04                 	db	4
   704  007BA1  44                 	db	68
   705  007BA2  78                 	db	120
   706  007BA3  40                 	db	64
   707  007BA4  00                 	db	0
   708  007BA5  00                 	db	0
   709  007BA6  00                 	db	0
   710  007BA7  44                 	db	68
   711  007BA8  7D                 	db	125
   712  007BA9  40                 	db	64
   713  007BAA  00                 	db	0
   714  007BAB  00                 	db	0
   715  007BAC  00                 	db	0
   716  007BAD  00                 	db	0
   717  007BAE  00                 	db	0
   718  007BAF  40                 	db	64
   719  007BB0  44                 	db	68
   720  007BB1  3D                 	db	61
   721  007BB2  00                 	db	0
   722  007BB3  00                 	db	0
   723  007BB4  00                 	db	0
   724  007BB5  41                 	db	65
   725  007BB6  7F                 	db	127
   726  007BB7  10                 	db	16
   727  007BB8  18                 	db	24
   728  007BB9  24                 	db	36
   729  007BBA  42                 	db	66
   730  007BBB  42                 	db	66
   731  007BBC  00                 	db	0
   732  007BBD  00                 	db	0
   733  007BBE  40                 	db	64
   734  007BBF  41                 	db	65
   735  007BC0  7F                 	db	127
   736  007BC1  40                 	db	64
   737  007BC2  40                 	db	64
   738  007BC3  00                 	db	0
   739  007BC4  00                 	db	0
   740  007BC5  42                 	db	66
   741  007BC6  7E                 	db	126
   742  007BC7  02                 	db	2
   743  007BC8  7C                 	db	124
   744  007BC9  02                 	db	2
   745  007BCA  7E                 	db	126
   746  007BCB  40                 	db	64
   747  007BCC  00                 	db	0
   748  007BCD  42                 	db	66
   749  007BCE  7E                 	db	126
   750  007BCF  44                 	db	68
   751  007BD0  02                 	db	2
   752  007BD1  42                 	db	66
   753  007BD2  7C                 	db	124
   754  007BD3  40                 	db	64
   755  007BD4  00                 	db	0
   756  007BD5  00                 	db	0
   757  007BD6  3C                 	db	60
   758  007BD7  42                 	db	66
   759  007BD8  42                 	db	66
   760  007BD9  42                 	db	66
   761  007BDA  3C                 	db	60
   762  007BDB  00                 	db	0
   763  007BDC  00                 	db	0
   764  007BDD  00                 	db	0
   765  007BDE  41                 	db	65
   766  007BDF  7F                 	db	127
   767  007BE0  49                 	db	73
   768  007BE1  09                 	db	9
   769  007BE2  09                 	db	9
   770  007BE3  06                 	db	6
   771  007BE4  00                 	db	0
   772  007BE5  00                 	db	0
   773  007BE6  06                 	db	6
   774  007BE7  09                 	db	9
   775  007BE8  09                 	db	9
   776  007BE9  49                 	db	73
   777  007BEA  7F                 	db	127
   778  007BEB  41                 	db	65
   779  007BEC  00                 	db	0
   780  007BED  00                 	db	0
   781  007BEE  42                 	db	66
   782  007BEF  7E                 	db	126
   783  007BF0  44                 	db	68
   784  007BF1  02                 	db	2
   785  007BF2  02                 	db	2
   786  007BF3  04                 	db	4
   787  007BF4  00                 	db	0
   788  007BF5  00                 	db	0
   789  007BF6  64                 	db	100
   790  007BF7  4A                 	db	74
   791  007BF8  4A                 	db	74
   792  007BF9  4A                 	db	74
   793  007BFA  36                 	db	54
   794  007BFB  00                 	db	0
   795  007BFC  00                 	db	0
   796  007BFD  00                 	db	0
   797  007BFE  04                 	db	4
   798  007BFF  3F                 	db	63
   799  007C00  44                 	db	68
   800  007C01  44                 	db	68
   801  007C02  20                 	db	32
   802  007C03  00                 	db	0
   803  007C04  00                 	db	0
   804  007C05  00                 	db	0
   805  007C06  02                 	db	2
   806  007C07  3E                 	db	62
   807  007C08  40                 	db	64
   808  007C09  40                 	db	64
   809  007C0A  22                 	db	34
   810  007C0B  7E                 	db	126
   811  007C0C  40                 	db	64
   812  007C0D  02                 	db	2
   813  007C0E  0E                 	db	14
   814  007C0F  32                 	db	50
   815  007C10  40                 	db	64
   816  007C11  32                 	db	50
   817  007C12  0E                 	db	14
   818  007C13  02                 	db	2
   819  007C14  00                 	db	0
   820  007C15  02                 	db	2
   821  007C16  1E                 	db	30
   822  007C17  62                 	db	98
   823  007C18  18                 	db	24
   824  007C19  62                 	db	98
   825  007C1A  1E                 	db	30
   826  007C1B  02                 	db	2
   827  007C1C  00                 	db	0
   828  007C1D  42                 	db	66
   829  007C1E  62                 	db	98
   830  007C1F  14                 	db	20
   831  007C20  08                 	db	8
   832  007C21  14                 	db	20
   833  007C22  62                 	db	98
   834  007C23  42                 	db	66
   835  007C24  00                 	db	0
   836  007C25  01                 	db	1
   837  007C26  43                 	db	67
   838  007C27  45                 	db	69
   839  007C28  38                 	db	56
   840  007C29  05                 	db	5
   841  007C2A  03                 	db	3
   842  007C2B  01                 	db	1
   843  007C2C  00                 	db	0
   844  007C2D  00                 	db	0
   845  007C2E  46                 	db	70
   846  007C2F  62                 	db	98
   847  007C30  52                 	db	82
   848  007C31  4A                 	db	74
   849  007C32  46                 	db	70
   850  007C33  62                 	db	98
   851  007C34  00                 	db	0
   852  007C35  00                 	db	0
   853  007C36  00                 	db	0
   854  007C37  08                 	db	8
   855  007C38  36                 	db	54
   856  007C39  41                 	db	65
   857  007C3A  00                 	db	0
   858  007C3B  00                 	db	0
   859  007C3C  00                 	db	0
   860  007C3D  00                 	db	0
   861  007C3E  00                 	db	0
   862  007C3F  00                 	db	0
   863  007C40  7F                 	db	127
   864  007C41  00                 	db	0
   865  007C42  00                 	db	0
   866  007C43  00                 	db	0
   867  007C44  00                 	db	0
   868  007C45  00                 	db	0
   869  007C46  00                 	db	0
   870  007C47  00                 	db	0
   871  007C48  41                 	db	65
   872  007C49  36                 	db	54
   873  007C4A  08                 	db	8
   874  007C4B  00                 	db	0
   875  007C4C  00                 	db	0
   876  007C4D  00                 	db	0
   877  007C4E  18                 	db	24
   878  007C4F  08                 	db	8
   879  007C50  08                 	db	8
   880  007C51  10                 	db	16
   881  007C52  10                 	db	16
   882  007C53  18                 	db	24
   883  007C54  00                 	db	0
   884  007C55  AA                 	db	170
   885  007C56  55                 	db	85
   886  007C57  AA                 	db	170
   887  007C58  55                 	db	85
   888  007C59  AA                 	db	170
   889  007C5A  55                 	db	85
   890  007C5B  AA                 	db	170
   891  007C5C  55                 	db	85
   892  007C5D                     __end_of_OledFont0:
   893                           	callstack 0
   894  0000                     _ANSELA	set	3931
   895  0000                     _ANSELE	set	3935
   896  0000                     _ANSELB	set	3932
   897  0000                     _ANSELC	set	3933
   898  0000                     _ANSELD	set	3934
   899  0000                     _LATCbits	set	3979
   900  0000                     _LATBbits	set	3978
   901  0000                     _TRISCbits	set	3988
   902  0000                     _TRISBbits	set	3987
   903  0000                     _LATEbits	set	3981
   904  0000                     _TRISEbits	set	3990
   905  0000                     _LATAbits	set	3977
   906  0000                     _TRISAbits	set	3986
   907  0000                     _ACTCON	set	4021
   908  0000                     _OSCTUNE	set	3995
   909  0000                     _OSCCON2	set	4050
   910  0000                     _OSCCON	set	4051
   911  0000                     _INTCONbits	set	4082
   912  0000                     _INTCON2bits	set	4081
   913  0000                     _WPUB	set	3973
   914  0000                     _TRISD	set	3989
   915  0000                     _TRISC	set	3988
   916  0000                     _TRISB	set	3987
   917  0000                     _TRISA	set	3986
   918  0000                     _TRISE	set	3990
   919  0000                     _LATC	set	3979
   920  0000                     _LATB	set	3978
   921  0000                     _LATA	set	3977
   922  0000                     _LATD	set	3980
   923  0000                     _LATE	set	3981
   924  0000                     _TXREG1	set	4013
   925  0000                     _RCREG1	set	4014
   926  0000                     _RCSTA1bits	set	4011
   927  0000                     _TXSTA1bits	set	4012
   928  0000                     _PIR1bits	set	3998
   929  0000                     _SPBRGH1	set	4016
   930  0000                     _SPBRG1	set	4015
   931  0000                     _TXSTA1	set	4012
   932  0000                     _RCSTA1	set	4011
   933  0000                     _BAUDCON1	set	4024
   934  0000                     _PLLRDY	set	32407
   935  007C5D                     STR_19:
   936  007C5D  72                 	db	114	;'r'
   937  007C5E  61                 	db	97	;'a'
   938  007C5F  64                 	db	100	;'d'
   939  007C60  69                 	db	105	;'i'
   940  007C61  6F                 	db	111	;'o'
   941  007C62  20                 	db	32
   942  007C63  73                 	db	115	;'s'
   943  007C64  65                 	db	101	;'e'
   944  007C65  74                 	db	116	;'t'
   945  007C66  20                 	db	32
   946  007C67  66                 	db	102	;'f'
   947  007C68  72                 	db	114	;'r'
   948  007C69  65                 	db	101	;'e'
   949  007C6A  71                 	db	113	;'q'
   950  007C6B  20                 	db	32
   951  007C6C  39                 	db	57	;'9'
   952  007C6D  32                 	db	50	;'2'
   953  007C6E  33                 	db	51	;'3'
   954  007C6F  33                 	db	51	;'3'
   955  007C70  30                 	db	48	;'0'
   956  007C71  30                 	db	48	;'0'
   957  007C72  30                 	db	48	;'0'
   958  007C73  30                 	db	48	;'0'
   959  007C74  30                 	db	48	;'0'
   960  007C75  0D                 	db	13
   961  007C76  0A                 	db	10
   962  007C77  00                 	db	0
   963  007C78  73                 	db	115	;'s'
   964  007C79  79                 	db	121	;'y'
   965  007C7A  73                 	db	115	;'s'
   966  007C7B  20                 	db	32
   967  007C7C  73                 	db	115	;'s'
   968  007C7D  65                 	db	101	;'e'
   969  007C7E  74                 	db	116	;'t'
   970  007C7F  20                 	db	32
   971  007C80  70                 	db	112	;'p'
   972  007C81  69                 	db	105	;'i'
   973  007C82  6E                 	db	110	;'n'
   974  007C83  64                 	db	100	;'d'
   975  007C84  69                 	db	105	;'i'
   976  007C85  67                 	db	103	;'g'
   977  007C86  20                 	db	32
   978  007C87  47                 	db	71	;'G'
   979  007C88  50                 	db	80	;'P'
   980  007C89  49                 	db	73	;'I'
   981  007C8A  4F                 	db	79	;'O'
   982  007C8B  31                 	db	49	;'1'
   983  007C8C  30                 	db	48	;'0'
   984  007C8D  20                 	db	32
   985  007C8E  30                 	db	48	;'0'
   986  007C8F  0D                 	db	13
   987  007C90  0A                 	db	10
   988  007C91  00                 	db	0
   989  007C92  73                 	db	115	;'s'
   990  007C93  79                 	db	121	;'y'
   991  007C94  73                 	db	115	;'s'
   992  007C95  20                 	db	32
   993  007C96  73                 	db	115	;'s'
   994  007C97  65                 	db	101	;'e'
   995  007C98  74                 	db	116	;'t'
   996  007C99  20                 	db	32
   997  007C9A  70                 	db	112	;'p'
   998  007C9B  69                 	db	105	;'i'
   999  007C9C  6E                 	db	110	;'n'
  1000  007C9D  64                 	db	100	;'d'
  1001  007C9E  69                 	db	105	;'i'
  1002  007C9F  67                 	db	103	;'g'
  1003  007CA0  20                 	db	32
  1004  007CA1  47                 	db	71	;'G'
  1005  007CA2  50                 	db	80	;'P'
  1006  007CA3  49                 	db	73	;'I'
  1007  007CA4  4F                 	db	79	;'O'
  1008  007CA5  31                 	db	49	;'1'
  1009  007CA6  31                 	db	49	;'1'
  1010  007CA7  20                 	db	32
  1011  007CA8  30                 	db	48	;'0'
  1012  007CA9  0D                 	db	13
  1013  007CAA  0A                 	db	10
  1014  007CAB  00                 	db	0
  1015  007CAC  73                 	db	115	;'s'
  1016  007CAD  79                 	db	121	;'y'
  1017  007CAE  73                 	db	115	;'s'
  1018  007CAF  20                 	db	32
  1019  007CB0  73                 	db	115	;'s'
  1020  007CB1  65                 	db	101	;'e'
  1021  007CB2  74                 	db	116	;'t'
  1022  007CB3  20                 	db	32
  1023  007CB4  70                 	db	112	;'p'
  1024  007CB5  69                 	db	105	;'i'
  1025  007CB6  6E                 	db	110	;'n'
  1026  007CB7  64                 	db	100	;'d'
  1027  007CB8  69                 	db	105	;'i'
  1028  007CB9  67                 	db	103	;'g'
  1029  007CBA  20                 	db	32
  1030  007CBB  47                 	db	71	;'G'
  1031  007CBC  50                 	db	80	;'P'
  1032  007CBD  49                 	db	73	;'I'
  1033  007CBE  4F                 	db	79	;'O'
  1034  007CBF  31                 	db	49	;'1'
  1035  007CC0  30                 	db	48	;'0'
  1036  007CC1  20                 	db	32
  1037  007CC2  31                 	db	49	;'1'
  1038  007CC3  0D                 	db	13
  1039  007CC4  0A                 	db	10
  1040  007CC5  00                 	db	0
  1041  007CC6  73                 	db	115	;'s'
  1042  007CC7  79                 	db	121	;'y'
  1043  007CC8  73                 	db	115	;'s'
  1044  007CC9  20                 	db	32
  1045  007CCA  73                 	db	115	;'s'
  1046  007CCB  65                 	db	101	;'e'
  1047  007CCC  74                 	db	116	;'t'
  1048  007CCD  20                 	db	32
  1049  007CCE  70                 	db	112	;'p'
  1050  007CCF  69                 	db	105	;'i'
  1051  007CD0  6E                 	db	110	;'n'
  1052  007CD1  64                 	db	100	;'d'
  1053  007CD2  69                 	db	105	;'i'
  1054  007CD3  67                 	db	103	;'g'
  1055  007CD4  20                 	db	32
  1056  007CD5  47                 	db	71	;'G'
  1057  007CD6  50                 	db	80	;'P'
  1058  007CD7  49                 	db	73	;'I'
  1059  007CD8  4F                 	db	79	;'O'
  1060  007CD9  31                 	db	49	;'1'
  1061  007CDA  31                 	db	49	;'1'
  1062  007CDB  20                 	db	32
  1063  007CDC  31                 	db	49	;'1'
  1064  007CDD  0D                 	db	13
  1065  007CDE  0A                 	db	10
  1066  007CDF  00                 	db	0
  1067  007CE0                     STR_41:
  1068  007CE0  72                 	db	114	;'r'
  1069  007CE1  61                 	db	97	;'a'
  1070  007CE2  64                 	db	100	;'d'
  1071  007CE3  69                 	db	105	;'i'
  1072  007CE4  6F                 	db	111	;'o'
  1073  007CE5  20                 	db	32
  1074  007CE6  74                 	db	116	;'t'
  1075  007CE7  78                 	db	120	;'x'
  1076  007CE8  20                 	db	32
  1077  007CE9  34                 	db	52	;'4'
  1078  007CEA  38                 	db	56	;'8'
  1079  007CEB  36                 	db	54	;'6'
  1080  007CEC  35                 	db	53	;'5'
  1081  007CED  36                 	db	54	;'6'
  1082  007CEE  63                 	db	99	;'c'
  1083  007CEF  36                 	db	54	;'6'
  1084  007CF0  43                 	db	67	;'C'
  1085  007CF1  36                 	db	54	;'6'
  1086  007CF2  46                 	db	70	;'F'
  1087  007CF3  0D                 	db	13
  1088  007CF4  0A                 	db	10
  1089  007CF5  00                 	db	0
  1090  007CF6                     STR_31:
  1091  007CF6  72                 	db	114	;'r'
  1092  007CF7  61                 	db	97	;'a'
  1093  007CF8  64                 	db	100	;'d'
  1094  007CF9  69                 	db	105	;'i'
  1095  007CFA  6F                 	db	111	;'o'
  1096  007CFB  20                 	db	32
  1097  007CFC  73                 	db	115	;'s'
  1098  007CFD  65                 	db	101	;'e'
  1099  007CFE  74                 	db	116	;'t'
  1100  007CFF  20                 	db	32
  1101  007D00  77                 	db	119	;'w'
  1102  007D01  64                 	db	100	;'d'
  1103  007D02  74                 	db	116	;'t'
  1104  007D03  20                 	db	32
  1105  007D04  31                 	db	49	;'1'
  1106  007D05  30                 	db	48	;'0'
  1107  007D06  30                 	db	48	;'0'
  1108  007D07  30                 	db	48	;'0'
  1109  007D08  0D                 	db	13
  1110  007D09  0A                 	db	10
  1111  007D0A  00                 	db	0
  1112  007D0B                     STR_25:
  1113  007D0B  72                 	db	114	;'r'
  1114  007D0C  61                 	db	97	;'a'
  1115  007D0D  64                 	db	100	;'d'
  1116  007D0E  69                 	db	105	;'i'
  1117  007D0F  6F                 	db	111	;'o'
  1118  007D10  20                 	db	32
  1119  007D11  73                 	db	115	;'s'
  1120  007D12  65                 	db	101	;'e'
  1121  007D13  74                 	db	116	;'t'
  1122  007D14  20                 	db	32
  1123  007D15  6D                 	db	109	;'m'
  1124  007D16  6F                 	db	111	;'o'
  1125  007D17  64                 	db	100	;'d'
  1126  007D18  20                 	db	32
  1127  007D19  6C                 	db	108	;'l'
  1128  007D1A  6F                 	db	111	;'o'
  1129  007D1B  72                 	db	114	;'r'
  1130  007D1C  61                 	db	97	;'a'
  1131  007D1D  0D                 	db	13
  1132  007D1E  0A                 	db	10
  1133  007D1F  00                 	db	0
  1134  007D20                     STR_34:
  1135  007D20  72                 	db	114	;'r'
  1136  007D21  61                 	db	97	;'a'
  1137  007D22  64                 	db	100	;'d'
  1138  007D23  69                 	db	105	;'i'
  1139  007D24  6F                 	db	111	;'o'
  1140  007D25  20                 	db	32
  1141  007D26  73                 	db	115	;'s'
  1142  007D27  65                 	db	101	;'e'
  1143  007D28  74                 	db	116	;'t'
  1144  007D29  20                 	db	32
  1145  007D2A  73                 	db	115	;'s'
  1146  007D2B  66                 	db	102	;'f'
  1147  007D2C  20                 	db	32
  1148  007D2D  53                 	db	83	;'S'
  1149  007D2E  46                 	db	70	;'F'
  1150  007D2F  31                 	db	49	;'1'
  1151  007D30  32                 	db	50	;'2'
  1152  007D31  0D                 	db	13
  1153  007D32  0A                 	db	10
  1154  007D33  00                 	db	0
  1155  007D34                     STR_37:
  1156  007D34  72                 	db	114	;'r'
  1157  007D35  61                 	db	97	;'a'
  1158  007D36  64                 	db	100	;'d'
  1159  007D37  69                 	db	105	;'i'
  1160  007D38  6F                 	db	111	;'o'
  1161  007D39  20                 	db	32
  1162  007D3A  73                 	db	115	;'s'
  1163  007D3B  65                 	db	101	;'e'
  1164  007D3C  74                 	db	116	;'t'
  1165  007D3D  20                 	db	32
  1166  007D3E  73                 	db	115	;'s'
  1167  007D3F  79                 	db	121	;'y'
  1168  007D40  6E                 	db	110	;'n'
  1169  007D41  63                 	db	99	;'c'
  1170  007D42  20                 	db	32
  1171  007D43  33                 	db	51	;'3'
  1172  007D44  34                 	db	52	;'4'
  1173  007D45  0D                 	db	13
  1174  007D46  0A                 	db	10
  1175  007D47  00                 	db	0
  1176  007D48                     STR_28:
  1177  007D48  72                 	db	114	;'r'
  1178  007D49  61                 	db	97	;'a'
  1179  007D4A  64                 	db	100	;'d'
  1180  007D4B  69                 	db	105	;'i'
  1181  007D4C  6F                 	db	111	;'o'
  1182  007D4D  20                 	db	32
  1183  007D4E  73                 	db	115	;'s'
  1184  007D4F  65                 	db	101	;'e'
  1185  007D50  74                 	db	116	;'t'
  1186  007D51  20                 	db	32
  1187  007D52  69                 	db	105	;'i'
  1188  007D53  71                 	db	113	;'q'
  1189  007D54  69                 	db	105	;'i'
  1190  007D55  20                 	db	32
  1191  007D56  6F                 	db	111	;'o'
  1192  007D57  66                 	db	102	;'f'
  1193  007D58  66                 	db	102	;'f'
  1194  007D59  0D                 	db	13
  1195  007D5A  0A                 	db	10
  1196  007D5B  00                 	db	0
  1197  007D5C                     STR_16:
  1198  007D5C  72                 	db	114	;'r'
  1199  007D5D  61                 	db	97	;'a'
  1200  007D5E  64                 	db	100	;'d'
  1201  007D5F  69                 	db	105	;'i'
  1202  007D60  6F                 	db	111	;'o'
  1203  007D61  20                 	db	32
  1204  007D62  73                 	db	115	;'s'
  1205  007D63  65                 	db	101	;'e'
  1206  007D64  74                 	db	116	;'t'
  1207  007D65  20                 	db	32
  1208  007D66  62                 	db	98	;'b'
  1209  007D67  77                 	db	119	;'w'
  1210  007D68  20                 	db	32
  1211  007D69  32                 	db	50	;'2'
  1212  007D6A  35                 	db	53	;'5'
  1213  007D6B  30                 	db	48	;'0'
  1214  007D6C  0D                 	db	13
  1215  007D6D  0A                 	db	10
  1216  007D6E  00                 	db	0
  1217  007D6F                     STR_22:
  1218  007D6F  72                 	db	114	;'r'
  1219  007D70  61                 	db	97	;'a'
  1220  007D71  64                 	db	100	;'d'
  1221  007D72  69                 	db	105	;'i'
  1222  007D73  6F                 	db	111	;'o'
  1223  007D74  20                 	db	32
  1224  007D75  73                 	db	115	;'s'
  1225  007D76  65                 	db	101	;'e'
  1226  007D77  74                 	db	116	;'t'
  1227  007D78  20                 	db	32
  1228  007D79  63                 	db	99	;'c'
  1229  007D7A  72                 	db	114	;'r'
  1230  007D7B  63                 	db	99	;'c'
  1231  007D7C  20                 	db	32
  1232  007D7D  6F                 	db	111	;'o'
  1233  007D7E  6E                 	db	110	;'n'
  1234  007D7F  0D                 	db	13
  1235  007D80  0A                 	db	10
  1236  007D81  00                 	db	0
  1237  007D82                     STR_13:
  1238  007D82  72                 	db	114	;'r'
  1239  007D83  61                 	db	97	;'a'
  1240  007D84  64                 	db	100	;'d'
  1241  007D85  69                 	db	105	;'i'
  1242  007D86  6F                 	db	111	;'o'
  1243  007D87  20                 	db	32
  1244  007D88  73                 	db	115	;'s'
  1245  007D89  65                 	db	101	;'e'
  1246  007D8A  74                 	db	116	;'t'
  1247  007D8B  20                 	db	32
  1248  007D8C  70                 	db	112	;'p'
  1249  007D8D  77                 	db	119	;'w'
  1250  007D8E  72                 	db	114	;'r'
  1251  007D8F  20                 	db	32
  1252  007D90  33                 	db	51	;'3'
  1253  007D91  0D                 	db	13
  1254  007D92  0A                 	db	10
  1255  007D93  00                 	db	0
  1256  007D94                     STR_6:
  1257  007D94  20                 	db	32
  1258  007D95  4C                 	db	76	;'L'
  1259  007D96  6F                 	db	111	;'o'
  1260  007D97  52                 	db	82	;'R'
  1261  007D98  41                 	db	65	;'A'
  1262  007D99  20                 	db	32
  1263  007D9A  4D                 	db	77	;'M'
  1264  007D9B  4F                 	db	79	;'O'
  1265  007D9C  54                 	db	84	;'T'
  1266  007D9D  45                 	db	69	;'E'
  1267  007D9E  20                 	db	32
  1268  007D9F  53                 	db	83	;'S'
  1269  007DA0  49                 	db	73	;'I'
  1270  007DA1  32                 	db	50	;'2'
  1271  007DA2  43                 	db	67	;'C'
  1272  007DA3  20                 	db	32
  1273  007DA4  00                 	db	0
  1274  007DA5                     STR_33:
  1275  007DA5  20                 	db	32
  1276  007DA6  73                 	db	115	;'s'
  1277  007DA7  70                 	db	112	;'p'
  1278  007DA8  72                 	db	114	;'r'
  1279  007DA9  65                 	db	101	;'e'
  1280  007DAA  61                 	db	97	;'a'
  1281  007DAB  64                 	db	100	;'d'
  1282  007DAC  69                 	db	105	;'i'
  1283  007DAD  6E                 	db	110	;'n'
  1284  007DAE  67                 	db	103	;'g'
  1285  007DAF  46                 	db	70	;'F'
  1286  007DB0  61                 	db	97	;'a'
  1287  007DB1  63                 	db	99	;'c'
  1288  007DB2  74                 	db	116	;'t'
  1289  007DB3  31                 	db	49	;'1'
  1290  007DB4  32                 	db	50	;'2'
  1291  007DB5  00                 	db	0
  1292  007DB6                     STR_21:
  1293  007DB6  20                 	db	32
  1294  007DB7  45                 	db	69	;'E'
  1295  007DB8  6E                 	db	110	;'n'
  1296  007DB9  61                 	db	97	;'a'
  1297  007DBA  62                 	db	98	;'b'
  1298  007DBB  6C                 	db	108	;'l'
  1299  007DBC  65                 	db	101	;'e'
  1300  007DBD  73                 	db	115	;'s'
  1301  007DBE  20                 	db	32
  1302  007DBF  74                 	db	116	;'t'
  1303  007DC0  68                 	db	104	;'h'
  1304  007DC1  65                 	db	101	;'e'
  1305  007DC2  20                 	db	32
  1306  007DC3  43                 	db	67	;'C'
  1307  007DC4  52                 	db	82	;'R'
  1308  007DC5  43                 	db	67	;'C'
  1309  007DC6  00                 	db	0
  1310  007DC7                     STR_11:
  1311  007DC7  43                 	db	67	;'C'
  1312  007DC8  6F                 	db	111	;'o'
  1313  007DC9  6E                 	db	110	;'n'
  1314  007DCA  66                 	db	102	;'f'
  1315  007DCB  69                 	db	105	;'i'
  1316  007DCC  67                 	db	103	;'g'
  1317  007DCD  20                 	db	32
  1318  007DCE  6D                 	db	109	;'m'
  1319  007DCF  6F                 	db	111	;'o'
  1320  007DD0  64                 	db	100	;'d'
  1321  007DD1  75                 	db	117	;'u'
  1322  007DD2  6C                 	db	108	;'l'
  1323  007DD3  65                 	db	101	;'e'
  1324  007DD4  20                 	db	32
  1325  007DD5  52                 	db	82	;'R'
  1326  007DD6  4E                 	db	78	;'N'
  1327  007DD7  00                 	db	0
  1328  007DD8                     STR_18:
  1329  007DD8  20                 	db	32
  1330  007DD9  46                 	db	70	;'F'
  1331  007DDA  52                 	db	82	;'R'
  1332  007DDB  45                 	db	69	;'E'
  1333  007DDC  51                 	db	81	;'Q'
  1334  007DDD  3A                 	db	58	;':'
  1335  007DDE  20                 	db	32
  1336  007DDF  39                 	db	57	;'9'
  1337  007DE0  2E                 	db	46
  1338  007DE1  32                 	db	50	;'2'
  1339  007DE2  33                 	db	51	;'3'
  1340  007DE3  33                 	db	51	;'3'
  1341  007DE4  20                 	db	32
  1342  007DE5  4D                 	db	77	;'M'
  1343  007DE6  48                 	db	72	;'H'
  1344  007DE7  5A                 	db	90	;'Z'
  1345  007DE8  00                 	db	0
  1346  007DE9                     STR_24:
  1347  007DE9  20                 	db	32
  1348  007DEA  4C                 	db	76	;'L'
  1349  007DEB  6F                 	db	111	;'o'
  1350  007DEC  52                 	db	82	;'R'
  1351  007DED  41                 	db	65	;'A'
  1352  007DEE  20                 	db	32
  1353  007DEF  6D                 	db	109	;'m'
  1354  007DF0  6F                 	db	111	;'o'
  1355  007DF1  64                 	db	100	;'d'
  1356  007DF2  75                 	db	117	;'u'
  1357  007DF3  6C                 	db	108	;'l'
  1358  007DF4  61                 	db	97	;'a'
  1359  007DF5  74                 	db	116	;'t'
  1360  007DF6  69                 	db	105	;'i'
  1361  007DF7  6F                 	db	111	;'o'
  1362  007DF8  6E                 	db	110	;'n'
  1363  007DF9  00                 	db	0
  1364  007DFA                     STR_12:
  1365  007DFA  20                 	db	32
  1366  007DFB  50                 	db	80	;'P'
  1367  007DFC  4F                 	db	79	;'O'
  1368  007DFD  57                 	db	87	;'W'
  1369  007DFE  45                 	db	69	;'E'
  1370  007DFF  52                 	db	82	;'R'
  1371  007E00  3A                 	db	58	;':'
  1372  007E01  20                 	db	32
  1373  007E02  33                 	db	51	;'3'
  1374  007E03  20                 	db	32
  1375  007E04  6F                 	db	111	;'o'
  1376  007E05  66                 	db	102	;'f'
  1377  007E06  20                 	db	32
  1378  007E07  31                 	db	49	;'1'
  1379  007E08  34                 	db	52	;'4'
  1380  007E09  00                 	db	0
  1381  007E0A                     STR_42:
  1382  007E0A  74                 	db	116	;'t'
  1383  007E0B  72                 	db	114	;'r'
  1384  007E0C  61                 	db	97	;'a'
  1385  007E0D  6E                 	db	110	;'n'
  1386  007E0E  73                 	db	115	;'s'
  1387  007E0F  6D                 	db	109	;'m'
  1388  007E10  69                 	db	105	;'i'
  1389  007E11  73                 	db	115	;'s'
  1390  007E12  69                 	db	105	;'i'
  1391  007E13  6F                 	db	111	;'o'
  1392  007E14  6E                 	db	110	;'n'
  1393  007E15  3D                 	db	61	;'='
  1394  007E16  32                 	db	50	;'2'
  1395  007E17  30                 	db	48	;'0'
  1396  007E18  00                 	db	0
  1397  007E19                     STR_44:
  1398  007E19  74                 	db	116	;'t'
  1399  007E1A  72                 	db	114	;'r'
  1400  007E1B  61                 	db	97	;'a'
  1401  007E1C  6E                 	db	110	;'n'
  1402  007E1D  73                 	db	115	;'s'
  1403  007E1E  6D                 	db	109	;'m'
  1404  007E1F  69                 	db	105	;'i'
  1405  007E20  73                 	db	115	;'s'
  1406  007E21  69                 	db	105	;'i'
  1407  007E22  6F                 	db	111	;'o'
  1408  007E23  6E                 	db	110	;'n'
  1409  007E24  3D                 	db	61	;'='
  1410  007E25  33                 	db	51	;'3'
  1411  007E26  30                 	db	48	;'0'
  1412  007E27  00                 	db	0
  1413  007E28                     STR_46:
  1414  007E28  74                 	db	116	;'t'
  1415  007E29  72                 	db	114	;'r'
  1416  007E2A  61                 	db	97	;'a'
  1417  007E2B  6E                 	db	110	;'n'
  1418  007E2C  73                 	db	115	;'s'
  1419  007E2D  6D                 	db	109	;'m'
  1420  007E2E  69                 	db	105	;'i'
  1421  007E2F  73                 	db	115	;'s'
  1422  007E30  69                 	db	105	;'i'
  1423  007E31  6F                 	db	111	;'o'
  1424  007E32  6E                 	db	110	;'n'
  1425  007E33  3D                 	db	61	;'='
  1426  007E34  34                 	db	52	;'4'
  1427  007E35  30                 	db	48	;'0'
  1428  007E36  00                 	db	0
  1429  007E37                     STR_15:
  1430  007E37  20                 	db	32
  1431  007E38  57                 	db	87	;'W'
  1432  007E39  49                 	db	73	;'I'
  1433  007E3A  44                 	db	68	;'D'
  1434  007E3B  45                 	db	69	;'E'
  1435  007E3C  42                 	db	66	;'B'
  1436  007E3D  41                 	db	65	;'A'
  1437  007E3E  4E                 	db	78	;'N'
  1438  007E3F  44                 	db	68	;'D'
  1439  007E40  3A                 	db	58	;':'
  1440  007E41  20                 	db	32
  1441  007E42  32                 	db	50	;'2'
  1442  007E43  35                 	db	53	;'5'
  1443  007E44  30                 	db	48	;'0'
  1444  007E45  00                 	db	0
  1445  007E46                     STR_48:
  1446  007E46  74                 	db	116	;'t'
  1447  007E47  72                 	db	114	;'r'
  1448  007E48  61                 	db	97	;'a'
  1449  007E49  6E                 	db	110	;'n'
  1450  007E4A  73                 	db	115	;'s'
  1451  007E4B  6D                 	db	109	;'m'
  1452  007E4C  69                 	db	105	;'i'
  1453  007E4D  73                 	db	115	;'s'
  1454  007E4E  69                 	db	105	;'i'
  1455  007E4F  6F                 	db	111	;'o'
  1456  007E50  6E                 	db	110	;'n'
  1457  007E51  3D                 	db	61	;'='
  1458  007E52  35                 	db	53	;'5'
  1459  007E53  30                 	db	48	;'0'
  1460  007E54  00                 	db	0
  1461  007E55                     STR_50:
  1462  007E55  74                 	db	116	;'t'
  1463  007E56  72                 	db	114	;'r'
  1464  007E57  61                 	db	97	;'a'
  1465  007E58  6E                 	db	110	;'n'
  1466  007E59  73                 	db	115	;'s'
  1467  007E5A  6D                 	db	109	;'m'
  1468  007E5B  69                 	db	105	;'i'
  1469  007E5C  73                 	db	115	;'s'
  1470  007E5D  69                 	db	105	;'i'
  1471  007E5E  6F                 	db	111	;'o'
  1472  007E5F  6E                 	db	110	;'n'
  1473  007E60  3D                 	db	61	;'='
  1474  007E61  36                 	db	54	;'6'
  1475  007E62  30                 	db	48	;'0'
  1476  007E63  00                 	db	0
  1477  007E64                     STR_52:
  1478  007E64  74                 	db	116	;'t'
  1479  007E65  72                 	db	114	;'r'
  1480  007E66  61                 	db	97	;'a'
  1481  007E67  6E                 	db	110	;'n'
  1482  007E68  73                 	db	115	;'s'
  1483  007E69  6D                 	db	109	;'m'
  1484  007E6A  69                 	db	105	;'i'
  1485  007E6B  73                 	db	115	;'s'
  1486  007E6C  69                 	db	105	;'i'
  1487  007E6D  6F                 	db	111	;'o'
  1488  007E6E  6E                 	db	110	;'n'
  1489  007E6F  3D                 	db	61	;'='
  1490  007E70  37                 	db	55	;'7'
  1491  007E71  30                 	db	48	;'0'
  1492  007E72  00                 	db	0
  1493  007E73                     STR_54:
  1494  007E73  74                 	db	116	;'t'
  1495  007E74  72                 	db	114	;'r'
  1496  007E75  61                 	db	97	;'a'
  1497  007E76  6E                 	db	110	;'n'
  1498  007E77  73                 	db	115	;'s'
  1499  007E78  6D                 	db	109	;'m'
  1500  007E79  69                 	db	105	;'i'
  1501  007E7A  73                 	db	115	;'s'
  1502  007E7B  69                 	db	105	;'i'
  1503  007E7C  6F                 	db	111	;'o'
  1504  007E7D  6E                 	db	110	;'n'
  1505  007E7E  3D                 	db	61	;'='
  1506  007E7F  38                 	db	56	;'8'
  1507  007E80  30                 	db	48	;'0'
  1508  007E81  00                 	db	0
  1509  007E82                     STR_56:
  1510  007E82  74                 	db	116	;'t'
  1511  007E83  72                 	db	114	;'r'
  1512  007E84  61                 	db	97	;'a'
  1513  007E85  6E                 	db	110	;'n'
  1514  007E86  73                 	db	115	;'s'
  1515  007E87  6D                 	db	109	;'m'
  1516  007E88  69                 	db	105	;'i'
  1517  007E89  73                 	db	115	;'s'
  1518  007E8A  69                 	db	105	;'i'
  1519  007E8B  6F                 	db	111	;'o'
  1520  007E8C  6E                 	db	110	;'n'
  1521  007E8D  3D                 	db	61	;'='
  1522  007E8E  39                 	db	57	;'9'
  1523  007E8F  30                 	db	48	;'0'
  1524  007E90  00                 	db	0
  1525  007E91                     STR_30:
  1526  007E91  20                 	db	32
  1527  007E92  57                 	db	87	;'W'
  1528  007E93  44                 	db	68	;'D'
  1529  007E94  54                 	db	84	;'T'
  1530  007E95  20                 	db	32
  1531  007E96  65                 	db	101	;'e'
  1532  007E97  61                 	db	97	;'a'
  1533  007E98  63                 	db	99	;'c'
  1534  007E99  68                 	db	104	;'h'
  1535  007E9A  20                 	db	32
  1536  007E9B  31                 	db	49	;'1'
  1537  007E9C  73                 	db	115	;'s'
  1538  007E9D  65                 	db	101	;'e'
  1539  007E9E  63                 	db	99	;'c'
  1540  007E9F  00                 	db	0
  1541  007EA0                     STR_27:
  1542  007EA0  20                 	db	32
  1543  007EA1  49                 	db	73	;'I'
  1544  007EA2  6E                 	db	110	;'n'
  1545  007EA3  76                 	db	118	;'v'
  1546  007EA4  65                 	db	101	;'e'
  1547  007EA5  72                 	db	114	;'r'
  1548  007EA6  74                 	db	116	;'t'
  1549  007EA7  20                 	db	32
  1550  007EA8  49                 	db	73	;'I'
  1551  007EA9  51                 	db	81	;'Q'
  1552  007EAA  20                 	db	32
  1553  007EAB  6F                 	db	111	;'o'
  1554  007EAC  66                 	db	102	;'f'
  1555  007EAD  66                 	db	102	;'f'
  1556  007EAE  00                 	db	0
  1557  007EAF                     STR_26:
  1558  007EAF  4C                 	db	76	;'L'
  1559  007EB0  6F                 	db	111	;'o'
  1560  007EB1  52                 	db	82	;'R'
  1561  007EB2  41                 	db	65	;'A'
  1562  007EB3  20                 	db	32
  1563  007EB4  49                 	db	73	;'I'
  1564  007EB5  6E                 	db	110	;'n'
  1565  007EB6  76                 	db	118	;'v'
  1566  007EB7  65                 	db	101	;'e'
  1567  007EB8  72                 	db	114	;'r'
  1568  007EB9  73                 	db	115	;'s'
  1569  007EBA  69                 	db	105	;'i'
  1570  007EBB  6F                 	db	111	;'o'
  1571  007EBC  6E                 	db	110	;'n'
  1572  007EBD  00                 	db	0
  1573  007EBE                     STR_43:
  1574  007EBE  72                 	db	114	;'r'
  1575  007EBF  61                 	db	97	;'a'
  1576  007EC0  64                 	db	100	;'d'
  1577  007EC1  69                 	db	105	;'i'
  1578  007EC2  6F                 	db	111	;'o'
  1579  007EC3  20                 	db	32
  1580  007EC4  74                 	db	116	;'t'
  1581  007EC5  78                 	db	120	;'x'
  1582  007EC6  20                 	db	32
  1583  007EC7  32                 	db	50	;'2'
  1584  007EC8  30                 	db	48	;'0'
  1585  007EC9  0D                 	db	13
  1586  007ECA  0A                 	db	10
  1587  007ECB  00                 	db	0
  1588  007ECC                     STR_45:
  1589  007ECC  72                 	db	114	;'r'
  1590  007ECD  61                 	db	97	;'a'
  1591  007ECE  64                 	db	100	;'d'
  1592  007ECF  69                 	db	105	;'i'
  1593  007ED0  6F                 	db	111	;'o'
  1594  007ED1  20                 	db	32
  1595  007ED2  74                 	db	116	;'t'
  1596  007ED3  78                 	db	120	;'x'
  1597  007ED4  20                 	db	32
  1598  007ED5  33                 	db	51	;'3'
  1599  007ED6  30                 	db	48	;'0'
  1600  007ED7  0D                 	db	13
  1601  007ED8  0A                 	db	10
  1602  007ED9  00                 	db	0
  1603  007EDA                     STR_47:
  1604  007EDA  72                 	db	114	;'r'
  1605  007EDB  61                 	db	97	;'a'
  1606  007EDC  64                 	db	100	;'d'
  1607  007EDD  69                 	db	105	;'i'
  1608  007EDE  6F                 	db	111	;'o'
  1609  007EDF  20                 	db	32
  1610  007EE0  74                 	db	116	;'t'
  1611  007EE1  78                 	db	120	;'x'
  1612  007EE2  20                 	db	32
  1613  007EE3  34                 	db	52	;'4'
  1614  007EE4  30                 	db	48	;'0'
  1615  007EE5  0D                 	db	13
  1616  007EE6  0A                 	db	10
  1617  007EE7  00                 	db	0
  1618  007EE8                     STR_49:
  1619  007EE8  72                 	db	114	;'r'
  1620  007EE9  61                 	db	97	;'a'
  1621  007EEA  64                 	db	100	;'d'
  1622  007EEB  69                 	db	105	;'i'
  1623  007EEC  6F                 	db	111	;'o'
  1624  007EED  20                 	db	32
  1625  007EEE  74                 	db	116	;'t'
  1626  007EEF  78                 	db	120	;'x'
  1627  007EF0  20                 	db	32
  1628  007EF1  35                 	db	53	;'5'
  1629  007EF2  30                 	db	48	;'0'
  1630  007EF3  0D                 	db	13
  1631  007EF4  0A                 	db	10
  1632  007EF5  00                 	db	0
  1633  007EF6                     STR_51:
  1634  007EF6  72                 	db	114	;'r'
  1635  007EF7  61                 	db	97	;'a'
  1636  007EF8  64                 	db	100	;'d'
  1637  007EF9  69                 	db	105	;'i'
  1638  007EFA  6F                 	db	111	;'o'
  1639  007EFB  20                 	db	32
  1640  007EFC  74                 	db	116	;'t'
  1641  007EFD  78                 	db	120	;'x'
  1642  007EFE  20                 	db	32
  1643  007EFF  36                 	db	54	;'6'
  1644  007F00  30                 	db	48	;'0'
  1645  007F01  0D                 	db	13
  1646  007F02  0A                 	db	10
  1647  007F03  00                 	db	0
  1648  007F04                     STR_53:
  1649  007F04  72                 	db	114	;'r'
  1650  007F05  61                 	db	97	;'a'
  1651  007F06  64                 	db	100	;'d'
  1652  007F07  69                 	db	105	;'i'
  1653  007F08  6F                 	db	111	;'o'
  1654  007F09  20                 	db	32
  1655  007F0A  74                 	db	116	;'t'
  1656  007F0B  78                 	db	120	;'x'
  1657  007F0C  20                 	db	32
  1658  007F0D  37                 	db	55	;'7'
  1659  007F0E  30                 	db	48	;'0'
  1660  007F0F  0D                 	db	13
  1661  007F10  0A                 	db	10
  1662  007F11  00                 	db	0
  1663  007F12                     STR_55:
  1664  007F12  72                 	db	114	;'r'
  1665  007F13  61                 	db	97	;'a'
  1666  007F14  64                 	db	100	;'d'
  1667  007F15  69                 	db	105	;'i'
  1668  007F16  6F                 	db	111	;'o'
  1669  007F17  20                 	db	32
  1670  007F18  74                 	db	116	;'t'
  1671  007F19  78                 	db	120	;'x'
  1672  007F1A  20                 	db	32
  1673  007F1B  38                 	db	56	;'8'
  1674  007F1C  30                 	db	48	;'0'
  1675  007F1D  0D                 	db	13
  1676  007F1E  0A                 	db	10
  1677  007F1F  00                 	db	0
  1678  007F20                     STR_57:
  1679  007F20  72                 	db	114	;'r'
  1680  007F21  61                 	db	97	;'a'
  1681  007F22  64                 	db	100	;'d'
  1682  007F23  69                 	db	105	;'i'
  1683  007F24  6F                 	db	111	;'o'
  1684  007F25  20                 	db	32
  1685  007F26  74                 	db	116	;'t'
  1686  007F27  78                 	db	120	;'x'
  1687  007F28  20                 	db	32
  1688  007F29  39                 	db	57	;'9'
  1689  007F2A  30                 	db	48	;'0'
  1690  007F2B  0D                 	db	13
  1691  007F2C  0A                 	db	10
  1692  007F2D  00                 	db	0
  1693  007F2E                     STR_10:
  1694  007F2E  73                 	db	115	;'s'
  1695  007F2F  79                 	db	121	;'y'
  1696  007F30  73                 	db	115	;'s'
  1697  007F31  20                 	db	32
  1698  007F32  67                 	db	103	;'g'
  1699  007F33  65                 	db	101	;'e'
  1700  007F34  74                 	db	116	;'t'
  1701  007F35  20                 	db	32
  1702  007F36  76                 	db	118	;'v'
  1703  007F37  65                 	db	101	;'e'
  1704  007F38  72                 	db	114	;'r'
  1705  007F39  0D                 	db	13
  1706  007F3A  0A                 	db	10
  1707  007F3B  00                 	db	0
  1708  007F3C                     STR_36:
  1709  007F3C  20                 	db	32
  1710  007F3D  53                 	db	83	;'S'
  1711  007F3E  79                 	db	121	;'y'
  1712  007F3F  6E                 	db	110	;'n'
  1713  007F40  63                 	db	99	;'c'
  1714  007F41  20                 	db	32
  1715  007F42  77                 	db	119	;'w'
  1716  007F43  6F                 	db	111	;'o'
  1717  007F44  72                 	db	114	;'r'
  1718  007F45  64                 	db	100	;'d'
  1719  007F46  20                 	db	32
  1720  007F47  33                 	db	51	;'3'
  1721  007F48  34                 	db	52	;'4'
  1722  007F49  00                 	db	0
  1723  007F4A                     STR_40:
  1724  007F4A  74                 	db	116	;'t'
  1725  007F4B  72                 	db	114	;'r'
  1726  007F4C  61                 	db	97	;'a'
  1727  007F4D  6E                 	db	110	;'n'
  1728  007F4E  73                 	db	115	;'s'
  1729  007F4F  6D                 	db	109	;'m'
  1730  007F50  69                 	db	105	;'i'
  1731  007F51  73                 	db	115	;'s'
  1732  007F52  69                 	db	105	;'i'
  1733  007F53  6F                 	db	111	;'o'
  1734  007F54  6E                 	db	110	;'n'
  1735  007F55  3D                 	db	61	;'='
  1736  007F56  48                 	db	72	;'H'
  1737  007F57  00                 	db	0
  1738  007F58                     STR_59:
  1739  007F58  6D                 	db	109	;'m'
  1740  007F59  61                 	db	97	;'a'
  1741  007F5A  63                 	db	99	;'c'
  1742  007F5B  20                 	db	32
  1743  007F5C  72                 	db	114	;'r'
  1744  007F5D  65                 	db	101	;'e'
  1745  007F5E  73                 	db	115	;'s'
  1746  007F5F  75                 	db	117	;'u'
  1747  007F60  6D                 	db	109	;'m'
  1748  007F61  65                 	db	101	;'e'
  1749  007F62  0D                 	db	13
  1750  007F63  0A                 	db	10
  1751  007F64  00                 	db	0
  1752  007F65                     STR_8:
  1753  007F65  53                 	db	83	;'S'
  1754  007F66  59                 	db	89	;'Y'
  1755  007F67  53                 	db	83	;'S'
  1756  007F68  20                 	db	32
  1757  007F69  56                 	db	86	;'V'
  1758  007F6A  65                 	db	101	;'e'
  1759  007F6B  72                 	db	114	;'r'
  1760  007F6C  73                 	db	115	;'s'
  1761  007F6D  69                 	db	105	;'i'
  1762  007F6E  6F                 	db	111	;'o'
  1763  007F6F  6E                 	db	110	;'n'
  1764  007F70  3A                 	db	58	;':'
  1765  007F71  00                 	db	0
  1766  007F72                     STR_17:
  1767  007F72  46                 	db	70	;'F'
  1768  007F73  72                 	db	114	;'r'
  1769  007F74  65                 	db	101	;'e'
  1770  007F75  71                 	db	113	;'q'
  1771  007F76  75                 	db	117	;'u'
  1772  007F77  65                 	db	101	;'e'
  1773  007F78  6E                 	db	110	;'n'
  1774  007F79  63                 	db	99	;'c'
  1775  007F7A  79                 	db	121	;'y'
  1776  007F7B  20                 	db	32
  1777  007F7C  46                 	db	70	;'F'
  1778  007F7D  51                 	db	81	;'Q'
  1779  007F7E  00                 	db	0
  1780  007F7F                     STR_39:
  1781  007F7F  6D                 	db	109	;'m'
  1782  007F80  61                 	db	97	;'a'
  1783  007F81  63                 	db	99	;'c'
  1784  007F82  20                 	db	32
  1785  007F83  70                 	db	112	;'p'
  1786  007F84  61                 	db	97	;'a'
  1787  007F85  75                 	db	117	;'u'
  1788  007F86  73                 	db	115	;'s'
  1789  007F87  65                 	db	101	;'e'
  1790  007F88  0D                 	db	13
  1791  007F89  0A                 	db	10
  1792  007F8A  00                 	db	0
  1793  007F8B                     STR_32:
  1794  007F8B  53                 	db	83	;'S'
  1795  007F8C  50                 	db	80	;'P'
  1796  007F8D  52                 	db	82	;'R'
  1797  007F8E  2E                 	db	46
  1798  007F8F  20                 	db	32
  1799  007F90  46                 	db	70	;'F'
  1800  007F91  61                 	db	97	;'a'
  1801  007F92  63                 	db	99	;'c'
  1802  007F93  74                 	db	116	;'t'
  1803  007F94  6F                 	db	111	;'o'
  1804  007F95  72                 	db	114	;'r'
  1805  007F96  00                 	db	0
  1806  007F97                     STR_7:
  1807  007F97  3E                 	db	62	;'>'
  1808  007F98  3E                 	db	62	;'>'
  1809  007F99  57                 	db	87	;'W'
  1810  007F9A  65                 	db	101	;'e'
  1811  007F9B  6C                 	db	108	;'l'
  1812  007F9C  63                 	db	99	;'c'
  1813  007F9D  6F                 	db	111	;'o'
  1814  007F9E  6D                 	db	109	;'m'
  1815  007F9F  65                 	db	101	;'e'
  1816  007FA0  21                 	db	33
  1817  007FA1  00                 	db	0
  1818  007FA2                     STR_20:
  1819  007FA2  43                 	db	67	;'C'
  1820  007FA3  4F                 	db	79	;'O'
  1821  007FA4  44                 	db	68	;'D'
  1822  007FA5  45                 	db	69	;'E'
  1823  007FA6  20                 	db	32
  1824  007FA7  45                 	db	69	;'E'
  1825  007FA8  52                 	db	82	;'R'
  1826  007FA9  52                 	db	82	;'R'
  1827  007FAA  4F                 	db	79	;'O'
  1828  007FAB  52                 	db	82	;'R'
  1829  007FAC  00                 	db	0
  1830  007FAD                     STR_58:
  1831  007FAD  4D                 	db	77	;'M'
  1832  007FAE  61                 	db	97	;'a'
  1833  007FAF  63                 	db	99	;'c'
  1834  007FB0  20                 	db	32
  1835  007FB1  72                 	db	114	;'r'
  1836  007FB2  65                 	db	101	;'e'
  1837  007FB3  73                 	db	115	;'s'
  1838  007FB4  75                 	db	117	;'u'
  1839  007FB5  6D                 	db	109	;'m'
  1840  007FB6  65                 	db	101	;'e'
  1841  007FB7  00                 	db	0
  1842  007FB8  4C                 	db	76	;'L'
  1843  007FB9  45                 	db	69	;'E'
  1844  007FBA  44                 	db	68	;'D'
  1845  007FBB  20                 	db	32
  1846  007FBC  54                 	db	84	;'T'
  1847  007FBD  65                 	db	101	;'e'
  1848  007FBE  73                 	db	115	;'s'
  1849  007FBF  74                 	db	116	;'t'
  1850  007FC0  3A                 	db	58	;':'
  1851  007FC1  00                 	db	0
  1852  007FC2                     STR_23:
  1853  007FC2  4C                 	db	76	;'L'
  1854  007FC3  6F                 	db	111	;'o'
  1855  007FC4  52                 	db	82	;'R'
  1856  007FC5  41                 	db	65	;'A'
  1857  007FC6  20                 	db	32
  1858  007FC7  4D                 	db	77	;'M'
  1859  007FC8  4F                 	db	79	;'O'
  1860  007FC9  44                 	db	68	;'D'
  1861  007FCA  45                 	db	69	;'E'
  1862  007FCB  00                 	db	0
  1863  007FCC                     STR_38:
  1864  007FCC  4D                 	db	77	;'M'
  1865  007FCD  41                 	db	65	;'A'
  1866  007FCE  43                 	db	67	;'C'
  1867  007FCF  20                 	db	32
  1868  007FD0  50                 	db	80	;'P'
  1869  007FD1  41                 	db	65	;'A'
  1870  007FD2  55                 	db	85	;'U'
  1871  007FD3  53                 	db	83	;'S'
  1872  007FD4  45                 	db	69	;'E'
  1873  007FD5  00                 	db	0
  1874  007FD6                     STR_35:
  1875  007FD6  4C                 	db	76	;'L'
  1876  007FD7  6F                 	db	111	;'o'
  1877  007FD8  52                 	db	82	;'R'
  1878  007FD9  41                 	db	65	;'A'
  1879  007FDA  20                 	db	32
  1880  007FDB  53                 	db	83	;'S'
  1881  007FDC  79                 	db	121	;'y'
  1882  007FDD  6E                 	db	110	;'n'
  1883  007FDE  63                 	db	99	;'c'
  1884  007FDF  00                 	db	0
  1885  007FE0                     STR_60:
  1886  007FE0  4D                 	db	77	;'M'
  1887  007FE1  41                 	db	65	;'A'
  1888  007FE2  43                 	db	67	;'C'
  1889  007FE3  20                 	db	32
  1890  007FE4  50                 	db	80	;'P'
  1891  007FE5  61                 	db	97	;'a'
  1892  007FE6  75                 	db	117	;'u'
  1893  007FE7  73                 	db	115	;'s'
  1894  007FE8  65                 	db	101	;'e'
  1895  007FE9  00                 	db	0
  1896  007FEA                     STR_29:
  1897  007FEA  4C                 	db	76	;'L'
  1898  007FEB  6F                 	db	111	;'o'
  1899  007FEC  52                 	db	82	;'R'
  1900  007FED  41                 	db	65	;'A'
  1901  007FEE  20                 	db	32
  1902  007FEF  57                 	db	87	;'W'
  1903  007FF0  44                 	db	68	;'D'
  1904  007FF1  54                 	db	84	;'T'
  1905  007FF2  00                 	db	0
  1906  007FF3                     STR_14:
  1907  007FF3  42                 	db	66	;'B'
  1908  007FF4  61                 	db	97	;'a'
  1909  007FF5  6E                 	db	110	;'n'
  1910  007FF6  64                 	db	100	;'d'
  1911  007FF7  20                 	db	32
  1912  007FF8  42                 	db	66	;'B'
  1913  007FF9  57                 	db	87	;'W'
  1914  007FFA  00                 	db	0
  1915  007FFB                     STR_9:
  1916  007FFB  3E                 	db	62	;'>'
  1917  007FFC  3E                 	db	62	;'>'
  1918  007FFD  00                 	db	0
  1919  007FFE  00                 	db	0	; dummy byte at the end
  1920  0000                     
  1921                           ; #config settings
  1922                           
  1923                           	psect	cinit
  1924  006E0A                     __pcinit:
  1925                           	callstack 0
  1926  006E0A                     start_initialization:
  1927                           	callstack 0
  1928  006E0A                     __initialization:
  1929                           	callstack 0
  1930                           
  1931                           ; Initialize objects allocated to COMRAM (19 bytes)
  1932                           ; load TBLPTR registers with __pidataCOMRAM
  1933  006E0A  0E5D               	movlw	low __pidataCOMRAM
  1934  006E0C  6EF6               	movwf	tblptrl,c
  1935  006E0E  0E6C               	movlw	high __pidataCOMRAM
  1936  006E10  6EF7               	movwf	tblptrh,c
  1937  006E12  0E00               	movlw	low (__pidataCOMRAM shr (0+16))
  1938  006E14  6EF8               	movwf	tblptru,c
  1939  006E16  EE00  F047         	lfsr	0,__pdataCOMRAM
  1940  006E1A  EE10 F013          	lfsr	1,19
  1941  006E1E                     copy_data0:
  1942  006E1E  0009               	tblrd		*+
  1943  006E20  CFF5 FFEE          	movff	tablat,postinc0
  1944  006E24  50E5               	movf	postdec1,w,c
  1945  006E26  50E1               	movf	fsr1l,w,c
  1946  006E28  E1FA               	bnz	copy_data0
  1947                           
  1948                           ; Clear objects allocated to COMRAM (25 bytes)
  1949  006E2A  EE00  F02E         	lfsr	0,__pbssCOMRAM
  1950  006E2E  0E19               	movlw	25
  1951  006E30                     clear_0:
  1952  006E30  6AEE               	clrf	postinc0,c
  1953  006E32  06E8               	decf	wreg,f,c
  1954  006E34  E1FD               	bnz	clear_0
  1955  006E36                     end_of_initialization:
  1956                           	callstack 0
  1957  006E36                     __end_of__initialization:
  1958                           	callstack 0
  1959  006E36  0E00               	movlw	low (__Lmediumconst shr (0+16))
  1960  006E38  6EF8               	movwf	tblptru,c
  1961  006E3A  0100               	movlb	0
  1962  006E3C  EF19  F039         	goto	_main	;jump to C main() function
  1963                           
  1964                           	psect	bssCOMRAM
  1965  00002E                     __pbssCOMRAM:
  1966                           	callstack 0
  1967  00002E                     _log:
  1968                           	callstack 0
  1969  00002E                     	ds	2
  1970  000030                     _EUSART1_ErrorHandler:
  1971                           	callstack 0
  1972  000030                     	ds	2
  1973  000032                     _EUSART1_OverrunErrorHandler:
  1974                           	callstack 0
  1975  000032                     	ds	2
  1976  000034                     _EUSART1_FramingErrorHandler:
  1977                           	callstack 0
  1978  000034                     	ds	2
  1979  000036                     _eusart1RxLastError:
  1980                           	callstack 0
  1981  000036                     	ds	1
  1982  000037                     _cmd_message:
  1983                           	callstack 0
  1984  000037                     	ds	16
  1985                           
  1986                           	psect	dataCOMRAM
  1987  000047                     __pdataCOMRAM:
  1988                           	callstack 0
  1989  000047                     Opening@F5429:
  1990                           	callstack 0
  1991  000047                     	ds	16
  1992  000057                     _selectedFont:
  1993                           	callstack 0
  1994  000057                     	ds	2
  1995  000059                     _Contrast_level:
  1996                           	callstack 0
  1997  000059                     	ds	1
  1998                           
  1999                           	psect	cstackCOMRAM
  2000  000001                     __pcstackCOMRAM:
  2001                           	callstack 0
  2002  000001                     ?_get_Data:
  2003                           	callstack 0
  2004  000001                     EUSART1_Write@txData:
  2005                           	callstack 0
  2006  000001                     oled_writeCommand@command:
  2007                           	callstack 0
  2008  000001                     oled_writeData@data:
  2009                           	callstack 0
  2010  000001                     EUSART1_SetFramingErrorHandler@interruptHandler:
  2011                           	callstack 0
  2012  000001                     EUSART1_SetOverrunErrorHandler@interruptHandler:
  2013                           	callstack 0
  2014  000001                     EUSART1_SetErrorHandler@interruptHandler:
  2015                           	callstack 0
  2016  000001                     delayms@length:
  2017                           	callstack 0
  2018  000001                     oled_setFont@font:
  2019                           	callstack 0
  2020                           
  2021                           ; 2 bytes @ 0x0
  2022  000001                     	ds	1
  2023  000002                     Set_Page_Address@address:
  2024                           	callstack 0
  2025  000002                     Set_Column_Address@address:
  2026                           	callstack 0
  2027  000002                     oled_setDisplay@displayType:
  2028                           	callstack 0
  2029  000002                     oled_setContrastControlRegister@mod:
  2030                           	callstack 0
  2031  000002                     oled_initialDispayLine@line:
  2032                           	callstack 0
  2033  000002                     oled_powerControl@vol:
  2034                           	callstack 0
  2035  000002                     oled_regulorResistorSelect@r:
  2036                           	callstack 0
  2037  000002                     sendCommand@texto:
  2038                           	callstack 0
  2039                           
  2040                           ; 2 bytes @ 0x1
  2041  000002                     	ds	1
  2042  000003                     ??_get_Data:
  2043  000003                     ??_oled_devInit:
  2044  000003                     ??_delayms:
  2045  000003                     oled_putChar@station_dot:
  2046                           	callstack 0
  2047                           
  2048                           ; 1 bytes @ 0x2
  2049  000003                     	ds	1
  2050  000004                     oled_putChar@start_page:
  2051                           	callstack 0
  2052  000004                     delayms@counter:
  2053                           	callstack 0
  2054                           
  2055                           ; 2 bytes @ 0x3
  2056  000004                     	ds	1
  2057  000005                     ??_oled_putChar:
  2058  000005                     
  2059                           ; 1 bytes @ 0x4
  2060  000005                     	ds	1
  2061  000006                     read_LoRA_cmd@Flag:
  2062                           	callstack 0
  2063                           
  2064                           ; 2 bytes @ 0x5
  2065  000006                     	ds	2
  2066  000008                     read_LoRA_cmd@i:
  2067                           	callstack 0
  2068                           
  2069                           ; 2 bytes @ 0x7
  2070  000008                     	ds	3
  2071  00000B                     oled_putChar@k:
  2072                           	callstack 0
  2073                           
  2074                           ; 1 bytes @ 0xA
  2075  00000B                     	ds	1
  2076  00000C                     oled_putChar@index:
  2077                           	callstack 0
  2078                           
  2079                           ; 1 bytes @ 0xB
  2080  00000C                     	ds	1
  2081  00000D                     oled_clearRow@page:
  2082                           	callstack 0
  2083  00000D                     oled_putString@string:
  2084                           	callstack 0
  2085                           
  2086                           ; 2 bytes @ 0xC
  2087  00000D                     	ds	1
  2088  00000E                     oled_clearRow@index:
  2089                           	callstack 0
  2090                           
  2091                           ; 1 bytes @ 0xD
  2092  00000E                     	ds	1
  2093  00000F                     oled_putString@station_dot:
  2094                           	callstack 0
  2095                           
  2096                           ; 1 bytes @ 0xE
  2097  00000F                     	ds	1
  2098  000010                     oled_putString@start_page:
  2099                           	callstack 0
  2100                           
  2101                           ; 1 bytes @ 0xF
  2102  000010                     	ds	1
  2103  000011                     oled_putString@index:
  2104                           	callstack 0
  2105                           
  2106                           ; 1 bytes @ 0x10
  2107  000011                     	ds	1
  2108  000012                     ??_Opening:
  2109                           
  2110                           ; 1 bytes @ 0x11
  2111  000012                     	ds	7
  2112  000019                     Opening@aux:
  2113                           	callstack 0
  2114                           
  2115                           ; 16 bytes @ 0x18
  2116  000019                     	ds	16
  2117  000029                     Opening@size:
  2118                           	callstack 0
  2119                           
  2120                           ; 1 bytes @ 0x28
  2121  000029                     	ds	1
  2122  00002A                     Opening@i:
  2123                           	callstack 0
  2124                           
  2125                           ; 1 bytes @ 0x29
  2126  00002A                     	ds	1
  2127  00002B                     ??_init_mod_LoRa:
  2128                           
  2129                           ; 1 bytes @ 0x2A
  2130  00002B                     	ds	2
  2131  00002D                     main@cont:
  2132                           	callstack 0
  2133                           
  2134                           ; 1 bytes @ 0x2C
  2135  00002D                     	ds	1
  2136                           
  2137 ;;
  2138 ;;Main: autosize = 0, tempsize = 0, incstack = 0, save=0
  2139 ;;
  2140 ;; *************** function _main *****************
  2141 ;; Defined at:
  2142 ;;		line 250 in file "main.c"
  2143 ;; Parameters:    Size  Location     Type
  2144 ;;		None
  2145 ;; Auto vars:     Size  Location     Type
  2146 ;;  read           32    0        unsigned char [32]
  2147 ;;  cont            1   44[COMRAM] unsigned char 
  2148 ;; Return value:  Size  Location     Type
  2149 ;;                  1    wreg      void 
  2150 ;; Registers used:
  2151 ;;		wreg, fsr0l, fsr0h, fsr1l, fsr1h, fsr2l, fsr2h, status,2, status,0, tblptrl, tblptrh, tblptru, prodl, prodh, cstack
  2152 ;; Tracked objects:
  2153 ;;		On entry : 0/0
  2154 ;;		On exit  : 0/0
  2155 ;;		Unchanged: 0/0
  2156 ;; Data sizes:     COMRAM   BANK0   BANK1   BANK2   BANK3   BANK4   BANK5   BANK6   BANK7
  2157 ;;      Params:         0       0       0       0       0       0       0       0       0
  2158 ;;      Locals:         1       0       0       0       0       0       0       0       0
  2159 ;;      Temps:          0       0       0       0       0       0       0       0       0
  2160 ;;      Totals:         1       0       0       0       0       0       0       0       0
  2161 ;;Total ram usage:        1 bytes
  2162 ;; Hardware stack levels required when called:    7
  2163 ;; This function calls:
  2164 ;;		_SYSTEM_Initialize
  2165 ;;		_delayms
  2166 ;;		_init_mod_LoRa
  2167 ;;		_init_port
  2168 ;;		_oled_clear
  2169 ;;		_oled_init
  2170 ;;		_oled_putString
  2171 ;;		_read_LoRA_cmd
  2172 ;;		_sendCommand
  2173 ;; This function is called by:
  2174 ;;		Startup code after reset
  2175 ;; This function uses a non-reentrant model
  2176 ;;
  2177                           
  2178                           	psect	text0
  2179  007232                     __ptext0:
  2180                           	callstack 0
  2181  007232                     _main:
  2182                           	callstack 24
  2183  007232                     
  2184                           ;main.c: 252:     SYSTEM_Initialize();
  2185  007232  EC10  F036         	call	_SYSTEM_Initialize	;wreg free
  2186  007236                     
  2187                           ;main.c: 253:     init_port();
  2188  007236  EC17  F036         	call	_init_port	;wreg free
  2189  00723A                     
  2190                           ;main.c: 254:     delayms(500);
  2191  00723A  0E01               	movlw	1
  2192  00723C  6E02               	movwf	(delayms@length+1)^0,c
  2193  00723E  0EF4               	movlw	244
  2194  007240  6E01               	movwf	delayms@length^0,c
  2195  007242  EC20  F037         	call	_delayms	;wreg free
  2196  007246                     
  2197                           ;main.c: 256:     oled_init();
  2198  007246  ECA1  F036         	call	_oled_init	;wreg free
  2199  00724A                     
  2200                           ;main.c: 257:     init_mod_LoRa();
  2201  00724A  ECAD  F03A         	call	_init_mod_LoRa	;wreg free
  2202  00724E                     
  2203                           ;main.c: 258:     oled_clear();
  2204  00724E  EC62  F036         	call	_oled_clear	;wreg free
  2205  007252                     
  2206                           ;main.c: 259:     char read[32];;main.c: 260:     uint8_t cont = 0;
  2207  007252  0E00               	movlw	0
  2208  007254  6E2D               	movwf	main@cont^0,c
  2209  007256                     l2152:
  2210                           
  2211                           ;main.c: 262:     {;main.c: 263:         if(cont <1)
  2212  007256  502D               	movf	main@cont^0,w,c
  2213  007258  A4D8               	btfss	status,2,c
  2214  00725A  EF31  F039         	goto	u601
  2215  00725E  EF33  F039         	goto	u600
  2216  007262                     u601:
  2217  007262  EF51  F039         	goto	l2162
  2218  007266                     u600:
  2219  007266                     
  2220                           ;main.c: 264:         {;main.c: 265:             oled_putString("MAC PAUSE",0,0);
  2221  007266  0ECC               	movlw	low STR_38
  2222  007268  6E0D               	movwf	oled_putString@string^0,c
  2223  00726A  0E7F               	movlw	high STR_38
  2224  00726C  6E0E               	movwf	(oled_putString@string+1)^0,c
  2225  00726E  0E00               	movlw	0
  2226  007270  6E0F               	movwf	oled_putString@station_dot^0,c
  2227  007272  0E00               	movlw	0
  2228  007274  6E10               	movwf	oled_putString@start_page^0,c
  2229  007276  ECF4  F037         	call	_oled_putString	;wreg free
  2230  00727A                     
  2231                           ;main.c: 266:             sendCommand("mac pause\r\n");
  2232  00727A  0E7F               	movlw	low STR_39
  2233  00727C  6E02               	movwf	sendCommand@texto^0,c
  2234  00727E  0E7F               	movlw	high STR_39
  2235  007280  6E03               	movwf	(sendCommand@texto+1)^0,c
  2236  007282  ECEA  F036         	call	_sendCommand	;wreg free
  2237  007286                     l2158:
  2238                           
  2239                           ;main.c: 267:             read_LoRA_cmd();
  2240  007286  ECA0  F038         	call	_read_LoRA_cmd	;wreg free
  2241  00728A                     
  2242                           ;main.c: 268:             oled_putString(&cmd_message,0,1);
  2243  00728A  0E37               	movlw	low _cmd_message
  2244  00728C  6E0D               	movwf	oled_putString@string^0,c
  2245  00728E  0E00               	movlw	high _cmd_message
  2246  007290  6E0E               	movwf	(oled_putString@string+1)^0,c
  2247  007292  0E00               	movlw	0
  2248  007294  6E0F               	movwf	oled_putString@station_dot^0,c
  2249  007296  0E01               	movlw	1
  2250  007298  6E10               	movwf	oled_putString@start_page^0,c
  2251  00729A  ECF4  F037         	call	_oled_putString	;wreg free
  2252                           
  2253                           ;main.c: 269:          }
  2254  00729E  EFA2  F03A         	goto	l2298
  2255  0072A2                     l2162:
  2256  0072A2  042D               	decf	main@cont^0,w,c
  2257  0072A4  A4D8               	btfss	status,2,c
  2258  0072A6  EF57  F039         	goto	u611
  2259  0072AA  EF59  F039         	goto	u610
  2260  0072AE                     u611:
  2261  0072AE  EF6D  F039         	goto	l2174
  2262  0072B2                     u610:
  2263  0072B2                     
  2264                           ;main.c: 271:         {;main.c: 272:             oled_clear();
  2265  0072B2  EC62  F036         	call	_oled_clear	;wreg free
  2266  0072B6                     
  2267                           ;main.c: 273:             oled_putString("transmision=H",0,0);
  2268  0072B6  0E4A               	movlw	low STR_40
  2269  0072B8  6E0D               	movwf	oled_putString@string^0,c
  2270  0072BA  0E7F               	movlw	high STR_40
  2271  0072BC  6E0E               	movwf	(oled_putString@string+1)^0,c
  2272  0072BE  0E00               	movlw	0
  2273  0072C0  6E0F               	movwf	oled_putString@station_dot^0,c
  2274  0072C2  0E00               	movlw	0
  2275  0072C4  6E10               	movwf	oled_putString@start_page^0,c
  2276  0072C6  ECF4  F037         	call	_oled_putString	;wreg free
  2277  0072CA                     
  2278                           ;main.c: 274:             sendCommand("radio tx 48656c6C6F\r\n");
  2279  0072CA  0EE0               	movlw	low STR_41
  2280  0072CC  6E02               	movwf	sendCommand@texto^0,c
  2281  0072CE  0E7C               	movlw	high STR_41
  2282  0072D0  6E03               	movwf	(sendCommand@texto+1)^0,c
  2283  0072D2  ECEA  F036         	call	_sendCommand	;wreg free
  2284  0072D6  EF43  F039         	goto	l2158
  2285  0072DA                     l2174:
  2286  0072DA  0E02               	movlw	2
  2287  0072DC  182D               	xorwf	main@cont^0,w,c
  2288  0072DE  A4D8               	btfss	status,2,c
  2289  0072E0  EF74  F039         	goto	u621
  2290  0072E4  EF76  F039         	goto	u620
  2291  0072E8                     u621:
  2292  0072E8  EF8A  F039         	goto	l2186
  2293  0072EC                     u620:
  2294  0072EC                     
  2295                           ;main.c: 279:         {;main.c: 280:             oled_clear();
  2296  0072EC  EC62  F036         	call	_oled_clear	;wreg free
  2297  0072F0                     
  2298                           ;main.c: 281:             oled_putString("transmision=20",0,0);
  2299  0072F0  0E0A               	movlw	low STR_42
  2300  0072F2  6E0D               	movwf	oled_putString@string^0,c
  2301  0072F4  0E7E               	movlw	high STR_42
  2302  0072F6  6E0E               	movwf	(oled_putString@string+1)^0,c
  2303  0072F8  0E00               	movlw	0
  2304  0072FA  6E0F               	movwf	oled_putString@station_dot^0,c
  2305  0072FC  0E00               	movlw	0
  2306  0072FE  6E10               	movwf	oled_putString@start_page^0,c
  2307  007300  ECF4  F037         	call	_oled_putString	;wreg free
  2308  007304                     
  2309                           ;main.c: 282:             sendCommand("radio tx 20\r\n");
  2310  007304  0EBE               	movlw	low STR_43
  2311  007306  6E02               	movwf	sendCommand@texto^0,c
  2312  007308  0E7E               	movlw	high STR_43
  2313  00730A  6E03               	movwf	(sendCommand@texto+1)^0,c
  2314  00730C  ECEA  F036         	call	_sendCommand	;wreg free
  2315  007310  EF43  F039         	goto	l2158
  2316  007314                     l2186:
  2317  007314  0E03               	movlw	3
  2318  007316  182D               	xorwf	main@cont^0,w,c
  2319  007318  A4D8               	btfss	status,2,c
  2320  00731A  EF91  F039         	goto	u631
  2321  00731E  EF93  F039         	goto	u630
  2322  007322                     u631:
  2323  007322  EFA7  F039         	goto	l2198
  2324  007326                     u630:
  2325  007326                     
  2326                           ;main.c: 287:         {;main.c: 288:             oled_clear();
  2327  007326  EC62  F036         	call	_oled_clear	;wreg free
  2328  00732A                     
  2329                           ;main.c: 289:             oled_putString("transmision=30",0,0);
  2330  00732A  0E19               	movlw	low STR_44
  2331  00732C  6E0D               	movwf	oled_putString@string^0,c
  2332  00732E  0E7E               	movlw	high STR_44
  2333  007330  6E0E               	movwf	(oled_putString@string+1)^0,c
  2334  007332  0E00               	movlw	0
  2335  007334  6E0F               	movwf	oled_putString@station_dot^0,c
  2336  007336  0E00               	movlw	0
  2337  007338  6E10               	movwf	oled_putString@start_page^0,c
  2338  00733A  ECF4  F037         	call	_oled_putString	;wreg free
  2339  00733E                     
  2340                           ;main.c: 290:             sendCommand("radio tx 30\r\n");
  2341  00733E  0ECC               	movlw	low STR_45
  2342  007340  6E02               	movwf	sendCommand@texto^0,c
  2343  007342  0E7E               	movlw	high STR_45
  2344  007344  6E03               	movwf	(sendCommand@texto+1)^0,c
  2345  007346  ECEA  F036         	call	_sendCommand	;wreg free
  2346  00734A  EF43  F039         	goto	l2158
  2347  00734E                     l2198:
  2348  00734E  0E04               	movlw	4
  2349  007350  182D               	xorwf	main@cont^0,w,c
  2350  007352  A4D8               	btfss	status,2,c
  2351  007354  EFAE  F039         	goto	u641
  2352  007358  EFB0  F039         	goto	u640
  2353  00735C                     u641:
  2354  00735C  EFC4  F039         	goto	l2210
  2355  007360                     u640:
  2356  007360                     
  2357                           ;main.c: 295:         {;main.c: 296:             oled_clear();
  2358  007360  EC62  F036         	call	_oled_clear	;wreg free
  2359  007364                     
  2360                           ;main.c: 297:             oled_putString("transmision=40",0,0);
  2361  007364  0E28               	movlw	low STR_46
  2362  007366  6E0D               	movwf	oled_putString@string^0,c
  2363  007368  0E7E               	movlw	high STR_46
  2364  00736A  6E0E               	movwf	(oled_putString@string+1)^0,c
  2365  00736C  0E00               	movlw	0
  2366  00736E  6E0F               	movwf	oled_putString@station_dot^0,c
  2367  007370  0E00               	movlw	0
  2368  007372  6E10               	movwf	oled_putString@start_page^0,c
  2369  007374  ECF4  F037         	call	_oled_putString	;wreg free
  2370  007378                     
  2371                           ;main.c: 298:             sendCommand("radio tx 40\r\n");
  2372  007378  0EDA               	movlw	low STR_47
  2373  00737A  6E02               	movwf	sendCommand@texto^0,c
  2374  00737C  0E7E               	movlw	high STR_47
  2375  00737E  6E03               	movwf	(sendCommand@texto+1)^0,c
  2376  007380  ECEA  F036         	call	_sendCommand	;wreg free
  2377  007384  EF43  F039         	goto	l2158
  2378  007388                     l2210:
  2379  007388  0E05               	movlw	5
  2380  00738A  182D               	xorwf	main@cont^0,w,c
  2381  00738C  A4D8               	btfss	status,2,c
  2382  00738E  EFCB  F039         	goto	u651
  2383  007392  EFCD  F039         	goto	u650
  2384  007396                     u651:
  2385  007396  EFE1  F039         	goto	l2222
  2386  00739A                     u650:
  2387  00739A                     
  2388                           ;main.c: 303:         {;main.c: 304:             oled_clear();
  2389  00739A  EC62  F036         	call	_oled_clear	;wreg free
  2390  00739E                     
  2391                           ;main.c: 305:             oled_putString("transmision=50",0,0);
  2392  00739E  0E46               	movlw	low STR_48
  2393  0073A0  6E0D               	movwf	oled_putString@string^0,c
  2394  0073A2  0E7E               	movlw	high STR_48
  2395  0073A4  6E0E               	movwf	(oled_putString@string+1)^0,c
  2396  0073A6  0E00               	movlw	0
  2397  0073A8  6E0F               	movwf	oled_putString@station_dot^0,c
  2398  0073AA  0E00               	movlw	0
  2399  0073AC  6E10               	movwf	oled_putString@start_page^0,c
  2400  0073AE  ECF4  F037         	call	_oled_putString	;wreg free
  2401  0073B2                     
  2402                           ;main.c: 306:             sendCommand("radio tx 50\r\n");
  2403  0073B2  0EE8               	movlw	low STR_49
  2404  0073B4  6E02               	movwf	sendCommand@texto^0,c
  2405  0073B6  0E7E               	movlw	high STR_49
  2406  0073B8  6E03               	movwf	(sendCommand@texto+1)^0,c
  2407  0073BA  ECEA  F036         	call	_sendCommand	;wreg free
  2408  0073BE  EF43  F039         	goto	l2158
  2409  0073C2                     l2222:
  2410  0073C2  0E06               	movlw	6
  2411  0073C4  182D               	xorwf	main@cont^0,w,c
  2412  0073C6  A4D8               	btfss	status,2,c
  2413  0073C8  EFE8  F039         	goto	u661
  2414  0073CC  EFEA  F039         	goto	u660
  2415  0073D0                     u661:
  2416  0073D0  EFFE  F039         	goto	l2234
  2417  0073D4                     u660:
  2418  0073D4                     
  2419                           ;main.c: 311:         {;main.c: 312:             oled_clear();
  2420  0073D4  EC62  F036         	call	_oled_clear	;wreg free
  2421  0073D8                     
  2422                           ;main.c: 313:             oled_putString("transmision=60",0,0);
  2423  0073D8  0E55               	movlw	low STR_50
  2424  0073DA  6E0D               	movwf	oled_putString@string^0,c
  2425  0073DC  0E7E               	movlw	high STR_50
  2426  0073DE  6E0E               	movwf	(oled_putString@string+1)^0,c
  2427  0073E0  0E00               	movlw	0
  2428  0073E2  6E0F               	movwf	oled_putString@station_dot^0,c
  2429  0073E4  0E00               	movlw	0
  2430  0073E6  6E10               	movwf	oled_putString@start_page^0,c
  2431  0073E8  ECF4  F037         	call	_oled_putString	;wreg free
  2432  0073EC                     
  2433                           ;main.c: 314:             sendCommand("radio tx 60\r\n");
  2434  0073EC  0EF6               	movlw	low STR_51
  2435  0073EE  6E02               	movwf	sendCommand@texto^0,c
  2436  0073F0  0E7E               	movlw	high STR_51
  2437  0073F2  6E03               	movwf	(sendCommand@texto+1)^0,c
  2438  0073F4  ECEA  F036         	call	_sendCommand	;wreg free
  2439  0073F8  EF43  F039         	goto	l2158
  2440  0073FC                     l2234:
  2441  0073FC  0E07               	movlw	7
  2442  0073FE  182D               	xorwf	main@cont^0,w,c
  2443  007400  A4D8               	btfss	status,2,c
  2444  007402  EF05  F03A         	goto	u671
  2445  007406  EF07  F03A         	goto	u670
  2446  00740A                     u671:
  2447  00740A  EF1B  F03A         	goto	l2246
  2448  00740E                     u670:
  2449  00740E                     
  2450                           ;main.c: 319:         {;main.c: 320:             oled_clear();
  2451  00740E  EC62  F036         	call	_oled_clear	;wreg free
  2452  007412                     
  2453                           ;main.c: 321:             oled_putString("transmision=70",0,0);
  2454  007412  0E64               	movlw	low STR_52
  2455  007414  6E0D               	movwf	oled_putString@string^0,c
  2456  007416  0E7E               	movlw	high STR_52
  2457  007418  6E0E               	movwf	(oled_putString@string+1)^0,c
  2458  00741A  0E00               	movlw	0
  2459  00741C  6E0F               	movwf	oled_putString@station_dot^0,c
  2460  00741E  0E00               	movlw	0
  2461  007420  6E10               	movwf	oled_putString@start_page^0,c
  2462  007422  ECF4  F037         	call	_oled_putString	;wreg free
  2463  007426                     
  2464                           ;main.c: 322:             sendCommand("radio tx 70\r\n");
  2465  007426  0E04               	movlw	low STR_53
  2466  007428  6E02               	movwf	sendCommand@texto^0,c
  2467  00742A  0E7F               	movlw	high STR_53
  2468  00742C  6E03               	movwf	(sendCommand@texto+1)^0,c
  2469  00742E  ECEA  F036         	call	_sendCommand	;wreg free
  2470  007432  EF43  F039         	goto	l2158
  2471  007436                     l2246:
  2472  007436  0E08               	movlw	8
  2473  007438  182D               	xorwf	main@cont^0,w,c
  2474  00743A  A4D8               	btfss	status,2,c
  2475  00743C  EF22  F03A         	goto	u681
  2476  007440  EF24  F03A         	goto	u680
  2477  007444                     u681:
  2478  007444  EF38  F03A         	goto	l2258
  2479  007448                     u680:
  2480  007448                     
  2481                           ;main.c: 327:         {;main.c: 328:             oled_clear();
  2482  007448  EC62  F036         	call	_oled_clear	;wreg free
  2483  00744C                     
  2484                           ;main.c: 329:             oled_putString("transmision=80",0,0);
  2485  00744C  0E73               	movlw	low STR_54
  2486  00744E  6E0D               	movwf	oled_putString@string^0,c
  2487  007450  0E7E               	movlw	high STR_54
  2488  007452  6E0E               	movwf	(oled_putString@string+1)^0,c
  2489  007454  0E00               	movlw	0
  2490  007456  6E0F               	movwf	oled_putString@station_dot^0,c
  2491  007458  0E00               	movlw	0
  2492  00745A  6E10               	movwf	oled_putString@start_page^0,c
  2493  00745C  ECF4  F037         	call	_oled_putString	;wreg free
  2494  007460                     
  2495                           ;main.c: 330:             sendCommand("radio tx 80\r\n");
  2496  007460  0E12               	movlw	low STR_55
  2497  007462  6E02               	movwf	sendCommand@texto^0,c
  2498  007464  0E7F               	movlw	high STR_55
  2499  007466  6E03               	movwf	(sendCommand@texto+1)^0,c
  2500  007468  ECEA  F036         	call	_sendCommand	;wreg free
  2501  00746C  EF43  F039         	goto	l2158
  2502  007470                     l2258:
  2503  007470  0E09               	movlw	9
  2504  007472  182D               	xorwf	main@cont^0,w,c
  2505  007474  A4D8               	btfss	status,2,c
  2506  007476  EF3F  F03A         	goto	u691
  2507  00747A  EF41  F03A         	goto	u690
  2508  00747E                     u691:
  2509  00747E  EF55  F03A         	goto	l2270
  2510  007482                     u690:
  2511  007482                     
  2512                           ;main.c: 335:         {;main.c: 336:             oled_clear();
  2513  007482  EC62  F036         	call	_oled_clear	;wreg free
  2514  007486                     
  2515                           ;main.c: 337:             oled_putString("transmision=90",0,0);
  2516  007486  0E82               	movlw	low STR_56
  2517  007488  6E0D               	movwf	oled_putString@string^0,c
  2518  00748A  0E7E               	movlw	high STR_56
  2519  00748C  6E0E               	movwf	(oled_putString@string+1)^0,c
  2520  00748E  0E00               	movlw	0
  2521  007490  6E0F               	movwf	oled_putString@station_dot^0,c
  2522  007492  0E00               	movlw	0
  2523  007494  6E10               	movwf	oled_putString@start_page^0,c
  2524  007496  ECF4  F037         	call	_oled_putString	;wreg free
  2525  00749A                     
  2526                           ;main.c: 338:             sendCommand("radio tx 90\r\n");
  2527  00749A  0E20               	movlw	low STR_57
  2528  00749C  6E02               	movwf	sendCommand@texto^0,c
  2529  00749E  0E7F               	movlw	high STR_57
  2530  0074A0  6E03               	movwf	(sendCommand@texto+1)^0,c
  2531  0074A2  ECEA  F036         	call	_sendCommand	;wreg free
  2532  0074A6  EF43  F039         	goto	l2158
  2533  0074AA                     l2270:
  2534  0074AA  0E0A               	movlw	10
  2535  0074AC  182D               	xorwf	main@cont^0,w,c
  2536  0074AE  A4D8               	btfss	status,2,c
  2537  0074B0  EF5C  F03A         	goto	u701
  2538  0074B4  EF5E  F03A         	goto	u700
  2539  0074B8                     u701:
  2540  0074B8  EF96  F03A         	goto	l2294
  2541  0074BC                     u700:
  2542  0074BC                     
  2543                           ;main.c: 343:         {;main.c: 344:             oled_clear();
  2544  0074BC  EC62  F036         	call	_oled_clear	;wreg free
  2545  0074C0                     
  2546                           ;main.c: 345:             oled_putString("Mac resume",0,0);
  2547  0074C0  0EAD               	movlw	low STR_58
  2548  0074C2  6E0D               	movwf	oled_putString@string^0,c
  2549  0074C4  0E7F               	movlw	high STR_58
  2550  0074C6  6E0E               	movwf	(oled_putString@string+1)^0,c
  2551  0074C8  0E00               	movlw	0
  2552  0074CA  6E0F               	movwf	oled_putString@station_dot^0,c
  2553  0074CC  0E00               	movlw	0
  2554  0074CE  6E10               	movwf	oled_putString@start_page^0,c
  2555  0074D0  ECF4  F037         	call	_oled_putString	;wreg free
  2556  0074D4                     
  2557                           ;main.c: 346:             sendCommand("mac resume\r\n");
  2558  0074D4  0E58               	movlw	low STR_59
  2559  0074D6  6E02               	movwf	sendCommand@texto^0,c
  2560  0074D8  0E7F               	movlw	high STR_59
  2561  0074DA  6E03               	movwf	(sendCommand@texto+1)^0,c
  2562  0074DC  ECEA  F036         	call	_sendCommand	;wreg free
  2563  0074E0                     
  2564                           ;main.c: 347:             read_LoRA_cmd();
  2565  0074E0  ECA0  F038         	call	_read_LoRA_cmd	;wreg free
  2566  0074E4                     
  2567                           ;main.c: 348:             oled_putString(&cmd_message,0,1);
  2568  0074E4  0E37               	movlw	low _cmd_message
  2569  0074E6  6E0D               	movwf	oled_putString@string^0,c
  2570  0074E8  0E00               	movlw	high _cmd_message
  2571  0074EA  6E0E               	movwf	(oled_putString@string+1)^0,c
  2572  0074EC  0E00               	movlw	0
  2573  0074EE  6E0F               	movwf	oled_putString@station_dot^0,c
  2574  0074F0  0E01               	movlw	1
  2575  0074F2  6E10               	movwf	oled_putString@start_page^0,c
  2576  0074F4  ECF4  F037         	call	_oled_putString	;wreg free
  2577  0074F8                     
  2578                           ;main.c: 349:             delayms(2000);
  2579  0074F8  0E07               	movlw	7
  2580  0074FA  6E02               	movwf	(delayms@length+1)^0,c
  2581  0074FC  0ED0               	movlw	208
  2582  0074FE  6E01               	movwf	delayms@length^0,c
  2583  007500  EC20  F037         	call	_delayms	;wreg free
  2584  007504                     
  2585                           ;main.c: 350:             oled_clear();
  2586  007504  EC62  F036         	call	_oled_clear	;wreg free
  2587  007508                     
  2588                           ;main.c: 351:             oled_putString("MAC Pause",0,0);
  2589  007508  0EE0               	movlw	low STR_60
  2590  00750A  6E0D               	movwf	oled_putString@string^0,c
  2591  00750C  0E7F               	movlw	high STR_60
  2592  00750E  6E0E               	movwf	(oled_putString@string+1)^0,c
  2593  007510  0E00               	movlw	0
  2594  007512  6E0F               	movwf	oled_putString@station_dot^0,c
  2595  007514  0E00               	movlw	0
  2596  007516  6E10               	movwf	oled_putString@start_page^0,c
  2597  007518  ECF4  F037         	call	_oled_putString	;wreg free
  2598  00751C                     
  2599                           ;main.c: 352:             sendCommand("mac pause\r\n");
  2600  00751C  0E7F               	movlw	low STR_39
  2601  00751E  6E02               	movwf	sendCommand@texto^0,c
  2602  007520  0E7F               	movlw	high STR_39
  2603  007522  6E03               	movwf	(sendCommand@texto+1)^0,c
  2604  007524  ECEA  F036         	call	_sendCommand	;wreg free
  2605  007528  EF43  F039         	goto	l2158
  2606  00752C                     l2294:
  2607  00752C  0E0A               	movlw	10
  2608  00752E  642D               	cpfsgt	main@cont^0,c
  2609  007530  EF9C  F03A         	goto	u711
  2610  007534  EF9E  F03A         	goto	u710
  2611  007538                     u711:
  2612  007538  EFA2  F03A         	goto	l259
  2613  00753C                     u710:
  2614  00753C                     
  2615                           ;main.c: 357:             cont=0;
  2616  00753C  0E00               	movlw	0
  2617  00753E  6E2D               	movwf	main@cont^0,c
  2618  007540  EFA2  F03A         	goto	l2298
  2619  007544                     l259:
  2620  007544                     l2298:
  2621                           
  2622                           ;main.c: 359:         cont++;
  2623  007544  2A2D               	incf	main@cont^0,f,c
  2624  007546                     
  2625                           ;main.c: 360:         delayms(1000);
  2626  007546  0E03               	movlw	3
  2627  007548  6E02               	movwf	(delayms@length+1)^0,c
  2628  00754A  0EE8               	movlw	232
  2629  00754C  6E01               	movwf	delayms@length^0,c
  2630  00754E  EC20  F037         	call	_delayms	;wreg free
  2631  007552  EF2B  F039         	goto	l2152
  2632  007556  EF00  F000         	goto	start
  2633  00755A                     __end_of_main:
  2634                           	callstack 0
  2635                           
  2636 ;; *************** function _oled_init *****************
  2637 ;; Defined at:
  2638 ;;		line 366 in file "SSD1306oLED.c"
  2639 ;; Parameters:    Size  Location     Type
  2640 ;;		None
  2641 ;; Auto vars:     Size  Location     Type
  2642 ;;		None
  2643 ;; Return value:  Size  Location     Type
  2644 ;;                  1    wreg      void 
  2645 ;; Registers used:
  2646 ;;		wreg, status,2, status,0, tblptrl, tblptrh, tblptru, prodl, prodh, cstack
  2647 ;; Tracked objects:
  2648 ;;		On entry : 0/0
  2649 ;;		On exit  : 0/0
  2650 ;;		Unchanged: 0/0
  2651 ;; Data sizes:     COMRAM   BANK0   BANK1   BANK2   BANK3   BANK4   BANK5   BANK6   BANK7
  2652 ;;      Params:         0       0       0       0       0       0       0       0       0
  2653 ;;      Locals:         0       0       0       0       0       0       0       0       0
  2654 ;;      Temps:          0       0       0       0       0       0       0       0       0
  2655 ;;      Totals:         0       0       0       0       0       0       0       0       0
  2656 ;;Total ram usage:        0 bytes
  2657 ;; Hardware stack levels used:    1
  2658 ;; Hardware stack levels required when called:    5
  2659 ;; This function calls:
  2660 ;;		_oled_clear
  2661 ;;		_oled_devInit
  2662 ;;		_oled_setDisplay
  2663 ;;		_oled_setFont
  2664 ;; This function is called by:
  2665 ;;		_main
  2666 ;; This function uses a non-reentrant model
  2667 ;;
  2668                           
  2669                           	psect	text1
  2670  006D42                     __ptext1:
  2671                           	callstack 0
  2672  006D42                     _oled_init:
  2673                           	callstack 25
  2674  006D42                     
  2675                           ;SSD1306oLED.c: 369:     TRISEbits.TRISE2 = 0;
  2676  006D42  9496               	bcf	150,2,c	;volatile
  2677                           
  2678                           ;SSD1306oLED.c: 370:     LATEbits.LATE2 = 1;
  2679  006D44  848D               	bsf	141,2,c	;volatile
  2680                           
  2681                           ;SSD1306oLED.c: 371:     TRISBbits.TRISB2 = 0;
  2682  006D46  9493               	bcf	147,2,c	;volatile
  2683                           
  2684                           ;SSD1306oLED.c: 372:     TRISBbits.TRISB3 = 0;
  2685  006D48  9693               	bcf	147,3,c	;volatile
  2686                           
  2687                           ;SSD1306oLED.c: 373:     TRISBbits.TRISB4 = 0;
  2688  006D4A  9893               	bcf	147,4,c	;volatile
  2689                           
  2690                           ;SSD1306oLED.c: 374:     TRISCbits.TRISC0 = 0;
  2691  006D4C  9094               	bcf	148,0,c	;volatile
  2692                           
  2693                           ;SSD1306oLED.c: 375:     TRISCbits.TRISC1 = 0;
  2694  006D4E  9294               	bcf	148,1,c	;volatile
  2695                           
  2696                           ;SSD1306oLED.c: 377:     LATBbits.LATB3 = 1;
  2697  006D50  868A               	bsf	138,3,c	;volatile
  2698                           
  2699                           ;SSD1306oLED.c: 379:     LATBbits.LATB4 = 0;
  2700  006D52  988A               	bcf	138,4,c	;volatile
  2701  006D54                     
  2702                           ;SSD1306oLED.c: 381:     oled_devInit();
  2703  006D54  EC7A  F037         	call	_oled_devInit	;wreg free
  2704  006D58                     
  2705                           ;SSD1306oLED.c: 383:     oled_setDisplay(Inverse);
  2706  006D58  0E01               	movlw	1
  2707  006D5A  ECB8  F036         	call	_oled_setDisplay
  2708  006D5E                     
  2709                           ;SSD1306oLED.c: 384:     oled_setFont(OledFont0);
  2710  006D5E  0E5D               	movlw	low _OledFont0
  2711  006D60  6E01               	movwf	oled_setFont@font^0,c
  2712  006D62  0E79               	movlw	high _OledFont0
  2713  006D64  6E02               	movwf	(oled_setFont@font+1)^0,c
  2714  006D66  EC6F  F036         	call	_oled_setFont	;wreg free
  2715  006D6A                     
  2716                           ;SSD1306oLED.c: 385:     oled_clear();
  2717  006D6A  EC62  F036         	call	_oled_clear	;wreg free
  2718  006D6E  0012               	return		;funcret
  2719  006D70                     __end_of_oled_init:
  2720                           	callstack 0
  2721                           
  2722 ;; *************** function _oled_setFont *****************
  2723 ;; Defined at:
  2724 ;;		line 256 in file "SSD1306oLED.c"
  2725 ;; Parameters:    Size  Location     Type
  2726 ;;  font            2    0[COMRAM] PTR const unsigned char 
  2727 ;;		 -> OledFont0(768), 
  2728 ;; Auto vars:     Size  Location     Type
  2729 ;;		None
  2730 ;; Return value:  Size  Location     Type
  2731 ;;                  1    wreg      void 
  2732 ;; Registers used:
  2733 ;;		wreg, status,2, status,0
  2734 ;; Tracked objects:
  2735 ;;		On entry : 0/0
  2736 ;;		On exit  : 0/0
  2737 ;;		Unchanged: 0/0
  2738 ;; Data sizes:     COMRAM   BANK0   BANK1   BANK2   BANK3   BANK4   BANK5   BANK6   BANK7
  2739 ;;      Params:         2       0       0       0       0       0       0       0       0
  2740 ;;      Locals:         0       0       0       0       0       0       0       0       0
  2741 ;;      Temps:          0       0       0       0       0       0       0       0       0
  2742 ;;      Totals:         2       0       0       0       0       0       0       0       0
  2743 ;;Total ram usage:        2 bytes
  2744 ;; Hardware stack levels used:    1
  2745 ;; This function calls:
  2746 ;;		Nothing
  2747 ;; This function is called by:
  2748 ;;		_oled_init
  2749 ;; This function uses a non-reentrant model
  2750 ;;
  2751                           
  2752                           	psect	text2
  2753  006CDE                     __ptext2:
  2754                           	callstack 0
  2755  006CDE                     _oled_setFont:
  2756                           	callstack 29
  2757  006CDE                     
  2758                           ;SSD1306oLED.c: 256: void oled_setFont(const uint8_t *font);SSD1306oLED.c: 257: {;SSD130
      +                          6oLED.c: 258:     if(font!=0)
  2759  006CDE  5001               	movf	oled_setFont@font^0,w,c
  2760  006CE0  1002               	iorwf	(oled_setFont@font+1)^0,w,c
  2761  006CE2  B4D8               	btfsc	status,2,c
  2762  006CE4  EF76  F036         	goto	u571
  2763  006CE8  EF78  F036         	goto	u570
  2764  006CEC                     u571:
  2765  006CEC  EF7C  F036         	goto	l323
  2766  006CF0                     u570:
  2767  006CF0                     
  2768                           ;SSD1306oLED.c: 259:     {;SSD1306oLED.c: 260:         selectedFont=font;
  2769  006CF0  C001  F057         	movff	oled_setFont@font,_selectedFont
  2770  006CF4  C002  F058         	movff	oled_setFont@font+1,_selectedFont+1
  2771  006CF8                     l323:
  2772  006CF8  0012               	return		;funcret
  2773  006CFA                     __end_of_oled_setFont:
  2774                           	callstack 0
  2775                           
  2776 ;; *************** function _oled_setDisplay *****************
  2777 ;; Defined at:
  2778 ;;		line 411 in file "SSD1306oLED.c"
  2779 ;; Parameters:    Size  Location     Type
  2780 ;;  displayType     1    wreg     enum E4838
  2781 ;; Auto vars:     Size  Location     Type
  2782 ;;  displayType     1    1[COMRAM] enum E4838
  2783 ;; Return value:  Size  Location     Type
  2784 ;;                  1    wreg      void 
  2785 ;; Registers used:
  2786 ;;		wreg, status,2, cstack
  2787 ;; Tracked objects:
  2788 ;;		On entry : 0/0
  2789 ;;		On exit  : 0/0
  2790 ;;		Unchanged: 0/0
  2791 ;; Data sizes:     COMRAM   BANK0   BANK1   BANK2   BANK3   BANK4   BANK5   BANK6   BANK7
  2792 ;;      Params:         0       0       0       0       0       0       0       0       0
  2793 ;;      Locals:         1       0       0       0       0       0       0       0       0
  2794 ;;      Temps:          0       0       0       0       0       0       0       0       0
  2795 ;;      Totals:         1       0       0       0       0       0       0       0       0
  2796 ;;Total ram usage:        1 bytes
  2797 ;; Hardware stack levels used:    1
  2798 ;; Hardware stack levels required when called:    1
  2799 ;; This function calls:
  2800 ;;		_oled_writeCommand
  2801 ;; This function is called by:
  2802 ;;		_oled_init
  2803 ;; This function uses a non-reentrant model
  2804 ;;
  2805                           
  2806                           	psect	text3
  2807  006D70                     __ptext3:
  2808                           	callstack 0
  2809  006D70                     _oled_setDisplay:
  2810                           	callstack 28
  2811                           
  2812                           ;incstack = 0
  2813                           ;oled_setDisplay@displayType stored from wreg
  2814  006D70  6E02               	movwf	oled_setDisplay@displayType^0,c
  2815  006D72                     
  2816                           ;SSD1306oLED.c: 411: void oled_setDisplay (oLED_DisplayMode_t displayType);SSD1306oLED.c
      +                          : 412: {;SSD1306oLED.c: 413:     if (displayType == Normal)
  2817  006D72  5002               	movf	oled_setDisplay@displayType^0,w,c
  2818  006D74  A4D8               	btfss	status,2,c
  2819  006D76  EFBF  F036         	goto	u201
  2820  006D7A  EFC1  F036         	goto	u200
  2821  006D7E                     u201:
  2822  006D7E  EFC9  F036         	goto	l1324
  2823  006D82                     u200:
  2824  006D82                     
  2825                           ;SSD1306oLED.c: 414:     {;SSD1306oLED.c: 415:         oled_writeCommand(0xa0);
  2826  006D82  0EA0               	movlw	160
  2827  006D84  EC38  F036         	call	_oled_writeCommand
  2828                           
  2829                           ;SSD1306oLED.c: 416:         oled_writeCommand(0xc8);
  2830  006D88  0EC8               	movlw	200
  2831  006D8A  EC38  F036         	call	_oled_writeCommand
  2832                           
  2833                           ;SSD1306oLED.c: 417:     }
  2834  006D8E  EFCF  F036         	goto	l365
  2835  006D92                     l1324:
  2836                           
  2837                           ;SSD1306oLED.c: 419:     {;SSD1306oLED.c: 420:         oled_writeCommand(0xa1);
  2838  006D92  0EA1               	movlw	161
  2839  006D94  EC38  F036         	call	_oled_writeCommand
  2840                           
  2841                           ;SSD1306oLED.c: 421:         oled_writeCommand(0xc0);
  2842  006D98  0EC0               	movlw	192
  2843  006D9A  EC38  F036         	call	_oled_writeCommand
  2844  006D9E                     l365:
  2845  006D9E  0012               	return		;funcret
  2846  006DA0                     __end_of_oled_setDisplay:
  2847                           	callstack 0
  2848                           
  2849 ;; *************** function _oled_devInit *****************
  2850 ;; Defined at:
  2851 ;;		line 388 in file "SSD1306oLED.c"
  2852 ;; Parameters:    Size  Location     Type
  2853 ;;		None
  2854 ;; Auto vars:     Size  Location     Type
  2855 ;;		None
  2856 ;; Return value:  Size  Location     Type
  2857 ;;                  1    wreg      void 
  2858 ;; Registers used:
  2859 ;;		wreg, status,2, status,0, cstack
  2860 ;; Tracked objects:
  2861 ;;		On entry : 0/0
  2862 ;;		On exit  : 0/0
  2863 ;;		Unchanged: 0/0
  2864 ;; Data sizes:     COMRAM   BANK0   BANK1   BANK2   BANK3   BANK4   BANK5   BANK6   BANK7
  2865 ;;      Params:         0       0       0       0       0       0       0       0       0
  2866 ;;      Locals:         0       0       0       0       0       0       0       0       0
  2867 ;;      Temps:          1       0       0       0       0       0       0       0       0
  2868 ;;      Totals:         1       0       0       0       0       0       0       0       0
  2869 ;;Total ram usage:        1 bytes
  2870 ;; Hardware stack levels used:    1
  2871 ;; Hardware stack levels required when called:    2
  2872 ;; This function calls:
  2873 ;;		_oled_initialDispayLine
  2874 ;;		_oled_powerControl
  2875 ;;		_oled_regulorResistorSelect
  2876 ;;		_oled_setContrastControlRegister
  2877 ;;		_oled_writeCommand
  2878 ;; This function is called by:
  2879 ;;		_oled_init
  2880 ;; This function uses a non-reentrant model
  2881 ;;
  2882                           
  2883                           	psect	text4
  2884  006EF4                     __ptext4:
  2885                           	callstack 0
  2886  006EF4                     _oled_devInit:
  2887                           	callstack 27
  2888  006EF4                     
  2889                           ;SSD1306oLED.c: 390:     oled_writeCommand(0xe2);
  2890  006EF4  0EE2               	movlw	226
  2891  006EF6  EC38  F036         	call	_oled_writeCommand
  2892  006EFA                     
  2893                           ;SSD1306oLED.c: 391:     LATBbits.LATB2=1;
  2894  006EFA  848A               	bsf	138,2,c	;volatile
  2895  006EFC                     
  2896                           ;SSD1306oLED.c: 392:     _delay((unsigned long)((200)*(48000000/4000000.0)));
  2897  006EFC  0E04               	movlw	4
  2898  006EFE  6E03               	movwf	??_oled_devInit^0,c
  2899  006F00  0E1C               	movlw	28
  2900  006F02                     u747:
  2901  006F02  2EE8               	decfsz	wreg,f,c
  2902  006F04  D7FE               	bra	u747
  2903  006F06  2E03               	decfsz	??_oled_devInit^0,f,c
  2904  006F08  D7FC               	bra	u747
  2905  006F0A  D000               	nop2	
  2906  006F0C                     
  2907                           ;SSD1306oLED.c: 393:     LATBbits.LATB2=0;
  2908  006F0C  948A               	bcf	138,2,c	;volatile
  2909  006F0E                     
  2910                           ;SSD1306oLED.c: 394:     _delay((unsigned long)((2000)*(48000000/4000000.0)));
  2911  006F0E  0E20               	movlw	32
  2912  006F10  6E03               	movwf	??_oled_devInit^0,c
  2913  006F12  0E2A               	movlw	42
  2914  006F14                     u757:
  2915  006F14  2EE8               	decfsz	wreg,f,c
  2916  006F16  D7FE               	bra	u757
  2917  006F18  2E03               	decfsz	??_oled_devInit^0,f,c
  2918  006F1A  D7FC               	bra	u757
  2919  006F1C                     
  2920                           ;SSD1306oLED.c: 395:     LATBbits.LATB2=1;
  2921  006F1C  848A               	bsf	138,2,c	;volatile
  2922  006F1E                     
  2923                           ;SSD1306oLED.c: 396:     _delay((unsigned long)((1000)*(48000000/4000000.0)));
  2924  006F1E  0E10               	movlw	16
  2925  006F20  6E03               	movwf	??_oled_devInit^0,c
  2926  006F22  0E94               	movlw	148
  2927  006F24                     u767:
  2928  006F24  2EE8               	decfsz	wreg,f,c
  2929  006F26  D7FE               	bra	u767
  2930  006F28  2E03               	decfsz	??_oled_devInit^0,f,c
  2931  006F2A  D7FC               	bra	u767
  2932  006F2C  D000               	nop2	
  2933  006F2E                     
  2934                           ;SSD1306oLED.c: 398:     oled_writeCommand(0xa1);
  2935  006F2E  0EA1               	movlw	161
  2936  006F30  EC38  F036         	call	_oled_writeCommand
  2937  006F34                     
  2938                           ;SSD1306oLED.c: 399:     oled_writeCommand(0xc0);
  2939  006F34  0EC0               	movlw	192
  2940  006F36  EC38  F036         	call	_oled_writeCommand
  2941  006F3A                     
  2942                           ;SSD1306oLED.c: 400:     oled_writeCommand(0xa3);
  2943  006F3A  0EA3               	movlw	163
  2944  006F3C  EC38  F036         	call	_oled_writeCommand
  2945  006F40                     
  2946                           ;SSD1306oLED.c: 401:     oled_powerControl(0x07);
  2947  006F40  0E07               	movlw	7
  2948  006F42  EC04  F036         	call	_oled_powerControl
  2949  006F46                     
  2950                           ;SSD1306oLED.c: 402:     oled_regulorResistorSelect(0x05);
  2951  006F46  0E05               	movlw	5
  2952  006F48  EC0A  F036         	call	_oled_regulorResistorSelect
  2953  006F4C                     
  2954                           ;SSD1306oLED.c: 403:     oled_setContrastControlRegister(Contrast_level);
  2955  006F4C  0E13               	movlw	19
  2956  006F4E  EC26  F036         	call	_oled_setContrastControlRegister
  2957  006F52                     
  2958                           ;SSD1306oLED.c: 404:     oled_initialDispayLine(0x00);
  2959  006F52  0E00               	movlw	0
  2960  006F54  ECFE  F035         	call	_oled_initialDispayLine
  2961  006F58                     
  2962                           ;SSD1306oLED.c: 405:     oled_writeCommand(0xF8);
  2963  006F58  0EF8               	movlw	248
  2964  006F5A  EC38  F036         	call	_oled_writeCommand
  2965  006F5E                     
  2966                           ;SSD1306oLED.c: 406:     oled_writeCommand(0x00);
  2967  006F5E  0E00               	movlw	0
  2968  006F60  EC38  F036         	call	_oled_writeCommand
  2969  006F64                     
  2970                           ;SSD1306oLED.c: 407:     oled_writeCommand(0xaf);
  2971  006F64  0EAF               	movlw	175
  2972  006F66  EC38  F036         	call	_oled_writeCommand
  2973  006F6A  0012               	return		;funcret
  2974  006F6C                     __end_of_oled_devInit:
  2975                           	callstack 0
  2976                           
  2977 ;; *************** function _oled_setContrastControlRegister *****************
  2978 ;; Defined at:
  2979 ;;		line 454 in file "SSD1306oLED.c"
  2980 ;; Parameters:    Size  Location     Type
  2981 ;;  mod             1    wreg     unsigned char 
  2982 ;; Auto vars:     Size  Location     Type
  2983 ;;  mod             1    1[COMRAM] unsigned char 
  2984 ;; Return value:  Size  Location     Type
  2985 ;;                  1    wreg      void 
  2986 ;; Registers used:
  2987 ;;		wreg, status,2, cstack
  2988 ;; Tracked objects:
  2989 ;;		On entry : 0/0
  2990 ;;		On exit  : 0/0
  2991 ;;		Unchanged: 0/0
  2992 ;; Data sizes:     COMRAM   BANK0   BANK1   BANK2   BANK3   BANK4   BANK5   BANK6   BANK7
  2993 ;;      Params:         0       0       0       0       0       0       0       0       0
  2994 ;;      Locals:         1       0       0       0       0       0       0       0       0
  2995 ;;      Temps:          0       0       0       0       0       0       0       0       0
  2996 ;;      Totals:         1       0       0       0       0       0       0       0       0
  2997 ;;Total ram usage:        1 bytes
  2998 ;; Hardware stack levels used:    1
  2999 ;; Hardware stack levels required when called:    1
  3000 ;; This function calls:
  3001 ;;		_oled_writeCommand
  3002 ;; This function is called by:
  3003 ;;		_oled_devInit
  3004 ;; This function uses a non-reentrant model
  3005 ;;
  3006                           
  3007                           	psect	text5
  3008  006C4C                     __ptext5:
  3009                           	callstack 0
  3010  006C4C                     _oled_setContrastControlRegister:
  3011                           	callstack 27
  3012                           
  3013                           ;incstack = 0
  3014                           ;oled_setContrastControlRegister@mod stored from wreg
  3015  006C4C  6E02               	movwf	oled_setContrastControlRegister@mod^0,c
  3016  006C4E                     
  3017                           ;SSD1306oLED.c: 454: void oled_setContrastControlRegister(uint8_t mod);SSD1306oLED.c: 45
      +                          5: {;SSD1306oLED.c: 456:     oled_writeCommand(0x81);
  3018  006C4E  0E81               	movlw	129
  3019  006C50  EC38  F036         	call	_oled_writeCommand
  3020  006C54                     
  3021                           ;SSD1306oLED.c: 457:     oled_writeCommand(mod);
  3022  006C54  5002               	movf	oled_setContrastControlRegister@mod^0,w,c
  3023  006C56  EC38  F036         	call	_oled_writeCommand
  3024  006C5A  0012               	return		;funcret
  3025  006C5C                     __end_of_oled_setContrastControlRegister:
  3026                           	callstack 0
  3027                           
  3028 ;; *************** function _oled_regulorResistorSelect *****************
  3029 ;; Defined at:
  3030 ;;		line 482 in file "SSD1306oLED.c"
  3031 ;; Parameters:    Size  Location     Type
  3032 ;;  r               1    wreg     unsigned char 
  3033 ;; Auto vars:     Size  Location     Type
  3034 ;;  r               1    1[COMRAM] unsigned char 
  3035 ;; Return value:  Size  Location     Type
  3036 ;;                  1    wreg      void 
  3037 ;; Registers used:
  3038 ;;		wreg, status,2, status,0, cstack
  3039 ;; Tracked objects:
  3040 ;;		On entry : 0/0
  3041 ;;		On exit  : 0/0
  3042 ;;		Unchanged: 0/0
  3043 ;; Data sizes:     COMRAM   BANK0   BANK1   BANK2   BANK3   BANK4   BANK5   BANK6   BANK7
  3044 ;;      Params:         0       0       0       0       0       0       0       0       0
  3045 ;;      Locals:         1       0       0       0       0       0       0       0       0
  3046 ;;      Temps:          0       0       0       0       0       0       0       0       0
  3047 ;;      Totals:         1       0       0       0       0       0       0       0       0
  3048 ;;Total ram usage:        1 bytes
  3049 ;; Hardware stack levels used:    1
  3050 ;; Hardware stack levels required when called:    1
  3051 ;; This function calls:
  3052 ;;		_oled_writeCommand
  3053 ;; This function is called by:
  3054 ;;		_oled_devInit
  3055 ;; This function uses a non-reentrant model
  3056 ;;
  3057                           
  3058                           	psect	text6
  3059  006C14                     __ptext6:
  3060                           	callstack 0
  3061  006C14                     _oled_regulorResistorSelect:
  3062                           	callstack 27
  3063                           
  3064                           ;incstack = 0
  3065                           ;oled_regulorResistorSelect@r stored from wreg
  3066  006C14  6E02               	movwf	oled_regulorResistorSelect@r^0,c
  3067  006C16                     
  3068                           ;SSD1306oLED.c: 482: void oled_regulorResistorSelect(uint8_t r);SSD1306oLED.c: 483: {;SS
      +                          D1306oLED.c: 484:     oled_writeCommand((0x20|r));
  3069  006C16  5002               	movf	oled_regulorResistorSelect@r^0,w,c
  3070  006C18  0920               	iorlw	32
  3071  006C1A  EC38  F036         	call	_oled_writeCommand
  3072  006C1E  0012               	return		;funcret
  3073  006C20                     __end_of_oled_regulorResistorSelect:
  3074                           	callstack 0
  3075                           
  3076 ;; *************** function _oled_powerControl *****************
  3077 ;; Defined at:
  3078 ;;		line 469 in file "SSD1306oLED.c"
  3079 ;; Parameters:    Size  Location     Type
  3080 ;;  vol             1    wreg     unsigned char 
  3081 ;; Auto vars:     Size  Location     Type
  3082 ;;  vol             1    1[COMRAM] unsigned char 
  3083 ;; Return value:  Size  Location     Type
  3084 ;;                  1    wreg      void 
  3085 ;; Registers used:
  3086 ;;		wreg, status,2, status,0, cstack
  3087 ;; Tracked objects:
  3088 ;;		On entry : 0/0
  3089 ;;		On exit  : 0/0
  3090 ;;		Unchanged: 0/0
  3091 ;; Data sizes:     COMRAM   BANK0   BANK1   BANK2   BANK3   BANK4   BANK5   BANK6   BANK7
  3092 ;;      Params:         0       0       0       0       0       0       0       0       0
  3093 ;;      Locals:         1       0       0       0       0       0       0       0       0
  3094 ;;      Temps:          0       0       0       0       0       0       0       0       0
  3095 ;;      Totals:         1       0       0       0       0       0       0       0       0
  3096 ;;Total ram usage:        1 bytes
  3097 ;; Hardware stack levels used:    1
  3098 ;; Hardware stack levels required when called:    1
  3099 ;; This function calls:
  3100 ;;		_oled_writeCommand
  3101 ;; This function is called by:
  3102 ;;		_oled_devInit
  3103 ;; This function uses a non-reentrant model
  3104 ;;
  3105                           
  3106                           	psect	text7
  3107  006C08                     __ptext7:
  3108                           	callstack 0
  3109  006C08                     _oled_powerControl:
  3110                           	callstack 27
  3111                           
  3112                           ;incstack = 0
  3113                           ;oled_powerControl@vol stored from wreg
  3114  006C08  6E02               	movwf	oled_powerControl@vol^0,c
  3115  006C0A                     
  3116                           ;SSD1306oLED.c: 469: void oled_powerControl(uint8_t vol);SSD1306oLED.c: 470: {;SSD1306oL
      +                          ED.c: 471:     oled_writeCommand((0x28|vol));
  3117  006C0A  5002               	movf	oled_powerControl@vol^0,w,c
  3118  006C0C  0928               	iorlw	40
  3119  006C0E  EC38  F036         	call	_oled_writeCommand
  3120  006C12  0012               	return		;funcret
  3121  006C14                     __end_of_oled_powerControl:
  3122                           	callstack 0
  3123                           
  3124 ;; *************** function _oled_initialDispayLine *****************
  3125 ;; Defined at:
  3126 ;;		line 462 in file "SSD1306oLED.c"
  3127 ;; Parameters:    Size  Location     Type
  3128 ;;  line            1    wreg     unsigned char 
  3129 ;; Auto vars:     Size  Location     Type
  3130 ;;  line            1    1[COMRAM] unsigned char 
  3131 ;; Return value:  Size  Location     Type
  3132 ;;                  1    wreg      void 
  3133 ;; Registers used:
  3134 ;;		wreg, status,2, status,0, cstack
  3135 ;; Tracked objects:
  3136 ;;		On entry : 0/0
  3137 ;;		On exit  : 0/0
  3138 ;;		Unchanged: 0/0
  3139 ;; Data sizes:     COMRAM   BANK0   BANK1   BANK2   BANK3   BANK4   BANK5   BANK6   BANK7
  3140 ;;      Params:         0       0       0       0       0       0       0       0       0
  3141 ;;      Locals:         1       0       0       0       0       0       0       0       0
  3142 ;;      Temps:          0       0       0       0       0       0       0       0       0
  3143 ;;      Totals:         1       0       0       0       0       0       0       0       0
  3144 ;;Total ram usage:        1 bytes
  3145 ;; Hardware stack levels used:    1
  3146 ;; Hardware stack levels required when called:    1
  3147 ;; This function calls:
  3148 ;;		_oled_writeCommand
  3149 ;; This function is called by:
  3150 ;;		_oled_devInit
  3151 ;; This function uses a non-reentrant model
  3152 ;;
  3153                           
  3154                           	psect	text8
  3155  006BFC                     __ptext8:
  3156                           	callstack 0
  3157  006BFC                     _oled_initialDispayLine:
  3158                           	callstack 27
  3159                           
  3160                           ;incstack = 0
  3161                           ;oled_initialDispayLine@line stored from wreg
  3162  006BFC  6E02               	movwf	oled_initialDispayLine@line^0,c
  3163  006BFE                     
  3164                           ;SSD1306oLED.c: 462: void oled_initialDispayLine(uint8_t line);SSD1306oLED.c: 463: {;SSD
      +                          1306oLED.c: 464:     line|=0x40;
  3165  006BFE  8C02               	bsf	oled_initialDispayLine@line^0,6,c
  3166  006C00                     
  3167                           ;SSD1306oLED.c: 465:     oled_writeCommand(line);
  3168  006C00  5002               	movf	oled_initialDispayLine@line^0,w,c
  3169  006C02  EC38  F036         	call	_oled_writeCommand
  3170  006C06  0012               	return		;funcret
  3171  006C08                     __end_of_oled_initialDispayLine:
  3172                           	callstack 0
  3173                           
  3174 ;; *************** function _init_port *****************
  3175 ;; Defined at:
  3176 ;;		line 12 in file "main.c"
  3177 ;; Parameters:    Size  Location     Type
  3178 ;;		None
  3179 ;; Auto vars:     Size  Location     Type
  3180 ;;		None
  3181 ;; Return value:  Size  Location     Type
  3182 ;;                  1    wreg      void 
  3183 ;; Registers used:
  3184 ;;		wreg, status,2
  3185 ;; Tracked objects:
  3186 ;;		On entry : 0/0
  3187 ;;		On exit  : 0/0
  3188 ;;		Unchanged: 0/0
  3189 ;; Data sizes:     COMRAM   BANK0   BANK1   BANK2   BANK3   BANK4   BANK5   BANK6   BANK7
  3190 ;;      Params:         0       0       0       0       0       0       0       0       0
  3191 ;;      Locals:         0       0       0       0       0       0       0       0       0
  3192 ;;      Temps:          0       0       0       0       0       0       0       0       0
  3193 ;;      Totals:         0       0       0       0       0       0       0       0       0
  3194 ;;Total ram usage:        0 bytes
  3195 ;; Hardware stack levels used:    1
  3196 ;; This function calls:
  3197 ;;		Nothing
  3198 ;; This function is called by:
  3199 ;;		_main
  3200 ;; This function uses a non-reentrant model
  3201 ;;
  3202                           
  3203                           	psect	text9
  3204  006C2E                     __ptext9:
  3205                           	callstack 0
  3206  006C2E                     _init_port:
  3207                           	callstack 30
  3208  006C2E                     
  3209                           ;main.c: 14:     TRISAbits.TRISA7 = 0;
  3210  006C2E  9E92               	bcf	146,7,c	;volatile
  3211                           
  3212                           ;main.c: 15:     LATAbits.LATA7 = 0;
  3213  006C30  9E89               	bcf	137,7,c	;volatile
  3214                           
  3215                           ;main.c: 17:     TRISAbits.TRISA6 = 0;
  3216  006C32  9C92               	bcf	146,6,c	;volatile
  3217                           
  3218                           ;main.c: 18:     LATAbits.LATA6 = 0;
  3219  006C34  9C89               	bcf	137,6,c	;volatile
  3220  006C36                     
  3221                           ;main.c: 20:     TRISD = 0b00000000;
  3222  006C36  0E00               	movlw	0
  3223  006C38  6E95               	movwf	149,c	;volatile
  3224  006C3A  0012               	return		;funcret
  3225  006C3C                     __end_of_init_port:
  3226                           	callstack 0
  3227                           
  3228 ;; *************** function _init_mod_LoRa *****************
  3229 ;; Defined at:
  3230 ;;		line 140 in file "main.c"
  3231 ;; Parameters:    Size  Location     Type
  3232 ;;		None
  3233 ;; Auto vars:     Size  Location     Type
  3234 ;;		None
  3235 ;; Return value:  Size  Location     Type
  3236 ;;                  1    wreg      void 
  3237 ;; Registers used:
  3238 ;;		wreg, fsr0l, fsr0h, fsr1l, fsr1h, fsr2l, fsr2h, status,2, status,0, tblptrl, tblptrh, tblptru, prodl, prodh, cstack
  3239 ;; Tracked objects:
  3240 ;;		On entry : 0/0
  3241 ;;		On exit  : 0/0
  3242 ;;		Unchanged: 0/0
  3243 ;; Data sizes:     COMRAM   BANK0   BANK1   BANK2   BANK3   BANK4   BANK5   BANK6   BANK7
  3244 ;;      Params:         0       0       0       0       0       0       0       0       0
  3245 ;;      Locals:         0       0       0       0       0       0       0       0       0
  3246 ;;      Temps:          2       0       0       0       0       0       0       0       0
  3247 ;;      Totals:         2       0       0       0       0       0       0       0       0
  3248 ;;Total ram usage:        2 bytes
  3249 ;; Hardware stack levels used:    1
  3250 ;; Hardware stack levels required when called:    6
  3251 ;; This function calls:
  3252 ;;		_Opening
  3253 ;;		_oled_clear
  3254 ;;		_oled_putString
  3255 ;;		_read_LoRA_cmd
  3256 ;;		_sendCommand
  3257 ;; This function is called by:
  3258 ;;		_main
  3259 ;; This function uses a non-reentrant model
  3260 ;;
  3261                           
  3262                           	psect	text10
  3263  00755A                     __ptext10:
  3264                           	callstack 0
  3265  00755A                     _init_mod_LoRa:
  3266                           	callstack 24
  3267  00755A                     
  3268                           ;main.c: 142:     Opening();
  3269  00755A  EC34  F038         	call	_Opening	;wreg free
  3270  00755E                     
  3271                           ;main.c: 143:     oled_clear();
  3272  00755E  EC62  F036         	call	_oled_clear	;wreg free
  3273  007562                     
  3274                           ;main.c: 145:     oled_putString("SYS Version:",0,1);
  3275  007562  0E65               	movlw	low STR_8
  3276  007564  6E0D               	movwf	oled_putString@string^0,c
  3277  007566  0E7F               	movlw	high STR_8
  3278  007568  6E0E               	movwf	(oled_putString@string+1)^0,c
  3279  00756A  0E00               	movlw	0
  3280  00756C  6E0F               	movwf	oled_putString@station_dot^0,c
  3281  00756E  0E01               	movlw	1
  3282  007570  6E10               	movwf	oled_putString@start_page^0,c
  3283  007572  ECF4  F037         	call	_oled_putString	;wreg free
  3284  007576                     
  3285                           ;main.c: 146:     oled_putString(">>",0,2);
  3286  007576  0EFB               	movlw	low STR_9
  3287  007578  6E0D               	movwf	oled_putString@string^0,c
  3288  00757A  0E7F               	movlw	high STR_9
  3289  00757C  6E0E               	movwf	(oled_putString@string+1)^0,c
  3290  00757E  0E00               	movlw	0
  3291  007580  6E0F               	movwf	oled_putString@station_dot^0,c
  3292  007582  0E02               	movlw	2
  3293  007584  6E10               	movwf	oled_putString@start_page^0,c
  3294  007586  ECF4  F037         	call	_oled_putString	;wreg free
  3295  00758A                     
  3296                           ;main.c: 147:     sendCommand("sys get ver\r\n");
  3297  00758A  0E2E               	movlw	low STR_10
  3298  00758C  6E02               	movwf	sendCommand@texto^0,c
  3299  00758E  0E7F               	movlw	high STR_10
  3300  007590  6E03               	movwf	(sendCommand@texto+1)^0,c
  3301  007592  ECEA  F036         	call	_sendCommand	;wreg free
  3302  007596                     
  3303                           ;main.c: 148:     read_LoRA_cmd();
  3304  007596  ECA0  F038         	call	_read_LoRA_cmd	;wreg free
  3305  00759A                     
  3306                           ;main.c: 149:     oled_putString(cmd_message,0,3);
  3307  00759A  0E37               	movlw	low _cmd_message
  3308  00759C  6E0D               	movwf	oled_putString@string^0,c
  3309  00759E  0E00               	movlw	high _cmd_message
  3310  0075A0  6E0E               	movwf	(oled_putString@string+1)^0,c
  3311  0075A2  0E00               	movlw	0
  3312  0075A4  6E0F               	movwf	oled_putString@station_dot^0,c
  3313  0075A6  0E03               	movlw	3
  3314  0075A8  6E10               	movwf	oled_putString@start_page^0,c
  3315  0075AA  ECF4  F037         	call	_oled_putString	;wreg free
  3316  0075AE                     
  3317                           ;main.c: 150:     _delay((unsigned long)((1000)*(48000000/4000.0)));
  3318  0075AE  0E3D               	movlw	61
  3319  0075B0  6E2C               	movwf	(??_init_mod_LoRa+1)^0,c
  3320  0075B2  0EE1               	movlw	225
  3321  0075B4  6E2B               	movwf	??_init_mod_LoRa^0,c
  3322  0075B6  0E40               	movlw	64
  3323  0075B8                     u777:
  3324  0075B8  2EE8               	decfsz	wreg,f,c
  3325  0075BA  D7FE               	bra	u777
  3326  0075BC  2E2B               	decfsz	??_init_mod_LoRa^0,f,c
  3327  0075BE  D7FC               	bra	u777
  3328  0075C0  2E2C               	decfsz	(??_init_mod_LoRa+1)^0,f,c
  3329  0075C2  D7FA               	bra	u777
  3330  0075C4                     
  3331                           ;main.c: 155:     oled_clear();
  3332  0075C4  EC62  F036         	call	_oled_clear	;wreg free
  3333  0075C8                     
  3334                           ;main.c: 156:     oled_putString("Config module RN",0,0);
  3335  0075C8  0EC7               	movlw	low STR_11
  3336  0075CA  6E0D               	movwf	oled_putString@string^0,c
  3337  0075CC  0E7D               	movlw	high STR_11
  3338  0075CE  6E0E               	movwf	(oled_putString@string+1)^0,c
  3339  0075D0  0E00               	movlw	0
  3340  0075D2  6E0F               	movwf	oled_putString@station_dot^0,c
  3341  0075D4  0E00               	movlw	0
  3342  0075D6  6E10               	movwf	oled_putString@start_page^0,c
  3343  0075D8  ECF4  F037         	call	_oled_putString	;wreg free
  3344  0075DC                     
  3345                           ;main.c: 157:     oled_putString(" POWER: 3 of 14",0,2);
  3346  0075DC  0EFA               	movlw	low STR_12
  3347  0075DE  6E0D               	movwf	oled_putString@string^0,c
  3348  0075E0  0E7D               	movlw	high STR_12
  3349  0075E2  6E0E               	movwf	(oled_putString@string+1)^0,c
  3350  0075E4  0E00               	movlw	0
  3351  0075E6  6E0F               	movwf	oled_putString@station_dot^0,c
  3352  0075E8  0E02               	movlw	2
  3353  0075EA  6E10               	movwf	oled_putString@start_page^0,c
  3354  0075EC  ECF4  F037         	call	_oled_putString	;wreg free
  3355  0075F0                     
  3356                           ;main.c: 158:     sendCommand("radio set pwr 3\r\n");
  3357  0075F0  0E82               	movlw	low STR_13
  3358  0075F2  6E02               	movwf	sendCommand@texto^0,c
  3359  0075F4  0E7D               	movlw	high STR_13
  3360  0075F6  6E03               	movwf	(sendCommand@texto+1)^0,c
  3361  0075F8  ECEA  F036         	call	_sendCommand	;wreg free
  3362  0075FC                     
  3363                           ;main.c: 159:     read_LoRA_cmd();
  3364  0075FC  ECA0  F038         	call	_read_LoRA_cmd	;wreg free
  3365  007600                     
  3366                           ;main.c: 160:     oled_putString(&cmd_message,0,3);
  3367  007600  0E37               	movlw	low _cmd_message
  3368  007602  6E0D               	movwf	oled_putString@string^0,c
  3369  007604  0E00               	movlw	high _cmd_message
  3370  007606  6E0E               	movwf	(oled_putString@string+1)^0,c
  3371  007608  0E00               	movlw	0
  3372  00760A  6E0F               	movwf	oled_putString@station_dot^0,c
  3373  00760C  0E03               	movlw	3
  3374  00760E  6E10               	movwf	oled_putString@start_page^0,c
  3375  007610  ECF4  F037         	call	_oled_putString	;wreg free
  3376  007614                     
  3377                           ;main.c: 161:     _delay((unsigned long)((1000)*(48000000/4000.0)));
  3378  007614  0E3D               	movlw	61
  3379  007616  6E2C               	movwf	(??_init_mod_LoRa+1)^0,c
  3380  007618  0EE1               	movlw	225
  3381  00761A  6E2B               	movwf	??_init_mod_LoRa^0,c
  3382  00761C  0E40               	movlw	64
  3383  00761E                     u787:
  3384  00761E  2EE8               	decfsz	wreg,f,c
  3385  007620  D7FE               	bra	u787
  3386  007622  2E2B               	decfsz	??_init_mod_LoRa^0,f,c
  3387  007624  D7FC               	bra	u787
  3388  007626  2E2C               	decfsz	(??_init_mod_LoRa+1)^0,f,c
  3389  007628  D7FA               	bra	u787
  3390  00762A                     
  3391                           ;main.c: 165:     oled_clear();
  3392  00762A  EC62  F036         	call	_oled_clear	;wreg free
  3393  00762E                     
  3394                           ;main.c: 166:     oled_putString("Band BW",0,1);
  3395  00762E  0EF3               	movlw	low STR_14
  3396  007630  6E0D               	movwf	oled_putString@string^0,c
  3397  007632  0E7F               	movlw	high STR_14
  3398  007634  6E0E               	movwf	(oled_putString@string+1)^0,c
  3399  007636  0E00               	movlw	0
  3400  007638  6E0F               	movwf	oled_putString@station_dot^0,c
  3401  00763A  0E01               	movlw	1
  3402  00763C  6E10               	movwf	oled_putString@start_page^0,c
  3403  00763E  ECF4  F037         	call	_oled_putString	;wreg free
  3404  007642                     
  3405                           ;main.c: 167:     oled_putString(" WIDEBAND: 250",0,2);
  3406  007642  0E37               	movlw	low STR_15
  3407  007644  6E0D               	movwf	oled_putString@string^0,c
  3408  007646  0E7E               	movlw	high STR_15
  3409  007648  6E0E               	movwf	(oled_putString@string+1)^0,c
  3410  00764A  0E00               	movlw	0
  3411  00764C  6E0F               	movwf	oled_putString@station_dot^0,c
  3412  00764E  0E02               	movlw	2
  3413  007650  6E10               	movwf	oled_putString@start_page^0,c
  3414  007652  ECF4  F037         	call	_oled_putString	;wreg free
  3415  007656                     
  3416                           ;main.c: 168:     sendCommand("radio set bw 250\r\n");
  3417  007656  0E5C               	movlw	low STR_16
  3418  007658  6E02               	movwf	sendCommand@texto^0,c
  3419  00765A  0E7D               	movlw	high STR_16
  3420  00765C  6E03               	movwf	(sendCommand@texto+1)^0,c
  3421  00765E  ECEA  F036         	call	_sendCommand	;wreg free
  3422  007662                     
  3423                           ;main.c: 169:     read_LoRA_cmd();
  3424  007662  ECA0  F038         	call	_read_LoRA_cmd	;wreg free
  3425  007666                     
  3426                           ;main.c: 170:     oled_putString(&cmd_message,0,3);
  3427  007666  0E37               	movlw	low _cmd_message
  3428  007668  6E0D               	movwf	oled_putString@string^0,c
  3429  00766A  0E00               	movlw	high _cmd_message
  3430  00766C  6E0E               	movwf	(oled_putString@string+1)^0,c
  3431  00766E  0E00               	movlw	0
  3432  007670  6E0F               	movwf	oled_putString@station_dot^0,c
  3433  007672  0E03               	movlw	3
  3434  007674  6E10               	movwf	oled_putString@start_page^0,c
  3435  007676  ECF4  F037         	call	_oled_putString	;wreg free
  3436  00767A                     
  3437                           ;main.c: 171:     _delay((unsigned long)((1000)*(48000000/4000.0)));
  3438  00767A  0E3D               	movlw	61
  3439  00767C  6E2C               	movwf	(??_init_mod_LoRa+1)^0,c
  3440  00767E  0EE1               	movlw	225
  3441  007680  6E2B               	movwf	??_init_mod_LoRa^0,c
  3442  007682  0E40               	movlw	64
  3443  007684                     u797:
  3444  007684  2EE8               	decfsz	wreg,f,c
  3445  007686  D7FE               	bra	u797
  3446  007688  2E2B               	decfsz	??_init_mod_LoRa^0,f,c
  3447  00768A  D7FC               	bra	u797
  3448  00768C  2E2C               	decfsz	(??_init_mod_LoRa+1)^0,f,c
  3449  00768E  D7FA               	bra	u797
  3450  007690                     
  3451                           ;main.c: 175:     oled_clear();
  3452  007690  EC62  F036         	call	_oled_clear	;wreg free
  3453  007694                     
  3454                           ;main.c: 176:     oled_putString("Frequency FQ",0,1);
  3455  007694  0E72               	movlw	low STR_17
  3456  007696  6E0D               	movwf	oled_putString@string^0,c
  3457  007698  0E7F               	movlw	high STR_17
  3458  00769A  6E0E               	movwf	(oled_putString@string+1)^0,c
  3459  00769C  0E00               	movlw	0
  3460  00769E  6E0F               	movwf	oled_putString@station_dot^0,c
  3461  0076A0  0E01               	movlw	1
  3462  0076A2  6E10               	movwf	oled_putString@start_page^0,c
  3463  0076A4  ECF4  F037         	call	_oled_putString	;wreg free
  3464  0076A8                     
  3465                           ;main.c: 177:     oled_putString(" FREQ: 9.233 MHZ",0,2);
  3466  0076A8  0ED8               	movlw	low STR_18
  3467  0076AA  6E0D               	movwf	oled_putString@string^0,c
  3468  0076AC  0E7D               	movlw	high STR_18
  3469  0076AE  6E0E               	movwf	(oled_putString@string+1)^0,c
  3470  0076B0  0E00               	movlw	0
  3471  0076B2  6E0F               	movwf	oled_putString@station_dot^0,c
  3472  0076B4  0E02               	movlw	2
  3473  0076B6  6E10               	movwf	oled_putString@start_page^0,c
  3474  0076B8  ECF4  F037         	call	_oled_putString	;wreg free
  3475  0076BC                     
  3476                           ;main.c: 178:     sendCommand("radio set freq 923300000\r\n");
  3477  0076BC  0E5D               	movlw	low STR_19
  3478  0076BE  6E02               	movwf	sendCommand@texto^0,c
  3479  0076C0  0E7C               	movlw	high STR_19
  3480  0076C2  6E03               	movwf	(sendCommand@texto+1)^0,c
  3481  0076C4  ECEA  F036         	call	_sendCommand	;wreg free
  3482  0076C8                     
  3483                           ;main.c: 179:     read_LoRA_cmd();
  3484  0076C8  ECA0  F038         	call	_read_LoRA_cmd	;wreg free
  3485  0076CC                     
  3486                           ;main.c: 180:     oled_putString(&cmd_message,0,3);
  3487  0076CC  0E37               	movlw	low _cmd_message
  3488  0076CE  6E0D               	movwf	oled_putString@string^0,c
  3489  0076D0  0E00               	movlw	high _cmd_message
  3490  0076D2  6E0E               	movwf	(oled_putString@string+1)^0,c
  3491  0076D4  0E00               	movlw	0
  3492  0076D6  6E0F               	movwf	oled_putString@station_dot^0,c
  3493  0076D8  0E03               	movlw	3
  3494  0076DA  6E10               	movwf	oled_putString@start_page^0,c
  3495  0076DC  ECF4  F037         	call	_oled_putString	;wreg free
  3496  0076E0                     
  3497                           ;main.c: 181:     _delay((unsigned long)((1000)*(48000000/4000.0)));
  3498  0076E0  0E3D               	movlw	61
  3499  0076E2  6E2C               	movwf	(??_init_mod_LoRa+1)^0,c
  3500  0076E4  0EE1               	movlw	225
  3501  0076E6  6E2B               	movwf	??_init_mod_LoRa^0,c
  3502  0076E8  0E40               	movlw	64
  3503  0076EA                     u807:
  3504  0076EA  2EE8               	decfsz	wreg,f,c
  3505  0076EC  D7FE               	bra	u807
  3506  0076EE  2E2B               	decfsz	??_init_mod_LoRa^0,f,c
  3507  0076F0  D7FC               	bra	u807
  3508  0076F2  2E2C               	decfsz	(??_init_mod_LoRa+1)^0,f,c
  3509  0076F4  D7FA               	bra	u807
  3510  0076F6                     
  3511                           ;main.c: 185:     oled_clear();
  3512  0076F6  EC62  F036         	call	_oled_clear	;wreg free
  3513  0076FA                     
  3514                           ;main.c: 186:     oled_putString("CODE ERROR",0,1);
  3515  0076FA  0EA2               	movlw	low STR_20
  3516  0076FC  6E0D               	movwf	oled_putString@string^0,c
  3517  0076FE  0E7F               	movlw	high STR_20
  3518  007700  6E0E               	movwf	(oled_putString@string+1)^0,c
  3519  007702  0E00               	movlw	0
  3520  007704  6E0F               	movwf	oled_putString@station_dot^0,c
  3521  007706  0E01               	movlw	1
  3522  007708  6E10               	movwf	oled_putString@start_page^0,c
  3523  00770A  ECF4  F037         	call	_oled_putString	;wreg free
  3524  00770E                     
  3525                           ;main.c: 187:     oled_putString(" Enables the CRC",0,2);
  3526  00770E  0EB6               	movlw	low STR_21
  3527  007710  6E0D               	movwf	oled_putString@string^0,c
  3528  007712  0E7D               	movlw	high STR_21
  3529  007714  6E0E               	movwf	(oled_putString@string+1)^0,c
  3530  007716  0E00               	movlw	0
  3531  007718  6E0F               	movwf	oled_putString@station_dot^0,c
  3532  00771A  0E02               	movlw	2
  3533  00771C  6E10               	movwf	oled_putString@start_page^0,c
  3534  00771E  ECF4  F037         	call	_oled_putString	;wreg free
  3535  007722                     
  3536                           ;main.c: 188:     sendCommand("radio set crc on\r\n");
  3537  007722  0E6F               	movlw	low STR_22
  3538  007724  6E02               	movwf	sendCommand@texto^0,c
  3539  007726  0E7D               	movlw	high STR_22
  3540  007728  6E03               	movwf	(sendCommand@texto+1)^0,c
  3541  00772A  ECEA  F036         	call	_sendCommand	;wreg free
  3542  00772E                     
  3543                           ;main.c: 189:     read_LoRA_cmd();
  3544  00772E  ECA0  F038         	call	_read_LoRA_cmd	;wreg free
  3545  007732                     
  3546                           ;main.c: 190:     oled_putString(&cmd_message,0,3);
  3547  007732  0E37               	movlw	low _cmd_message
  3548  007734  6E0D               	movwf	oled_putString@string^0,c
  3549  007736  0E00               	movlw	high _cmd_message
  3550  007738  6E0E               	movwf	(oled_putString@string+1)^0,c
  3551  00773A  0E00               	movlw	0
  3552  00773C  6E0F               	movwf	oled_putString@station_dot^0,c
  3553  00773E  0E03               	movlw	3
  3554  007740  6E10               	movwf	oled_putString@start_page^0,c
  3555  007742  ECF4  F037         	call	_oled_putString	;wreg free
  3556  007746                     
  3557                           ;main.c: 191:     _delay((unsigned long)((1000)*(48000000/4000.0)));
  3558  007746  0E3D               	movlw	61
  3559  007748  6E2C               	movwf	(??_init_mod_LoRa+1)^0,c
  3560  00774A  0EE1               	movlw	225
  3561  00774C  6E2B               	movwf	??_init_mod_LoRa^0,c
  3562  00774E  0E40               	movlw	64
  3563  007750                     u817:
  3564  007750  2EE8               	decfsz	wreg,f,c
  3565  007752  D7FE               	bra	u817
  3566  007754  2E2B               	decfsz	??_init_mod_LoRa^0,f,c
  3567  007756  D7FC               	bra	u817
  3568  007758  2E2C               	decfsz	(??_init_mod_LoRa+1)^0,f,c
  3569  00775A  D7FA               	bra	u817
  3570  00775C                     
  3571                           ;main.c: 196:     oled_clear();
  3572  00775C  EC62  F036         	call	_oled_clear	;wreg free
  3573  007760                     
  3574                           ;main.c: 197:     oled_putString("LoRA MODE",0,1);
  3575  007760  0EC2               	movlw	low STR_23
  3576  007762  6E0D               	movwf	oled_putString@string^0,c
  3577  007764  0E7F               	movlw	high STR_23
  3578  007766  6E0E               	movwf	(oled_putString@string+1)^0,c
  3579  007768  0E00               	movlw	0
  3580  00776A  6E0F               	movwf	oled_putString@station_dot^0,c
  3581  00776C  0E01               	movlw	1
  3582  00776E  6E10               	movwf	oled_putString@start_page^0,c
  3583  007770  ECF4  F037         	call	_oled_putString	;wreg free
  3584  007774                     
  3585                           ;main.c: 198:     oled_putString(" LoRA modulation",0,2);
  3586  007774  0EE9               	movlw	low STR_24
  3587  007776  6E0D               	movwf	oled_putString@string^0,c
  3588  007778  0E7D               	movlw	high STR_24
  3589  00777A  6E0E               	movwf	(oled_putString@string+1)^0,c
  3590  00777C  0E00               	movlw	0
  3591  00777E  6E0F               	movwf	oled_putString@station_dot^0,c
  3592  007780  0E02               	movlw	2
  3593  007782  6E10               	movwf	oled_putString@start_page^0,c
  3594  007784  ECF4  F037         	call	_oled_putString	;wreg free
  3595  007788                     
  3596                           ;main.c: 199:     sendCommand("radio set mod lora\r\n");
  3597  007788  0E0B               	movlw	low STR_25
  3598  00778A  6E02               	movwf	sendCommand@texto^0,c
  3599  00778C  0E7D               	movlw	high STR_25
  3600  00778E  6E03               	movwf	(sendCommand@texto+1)^0,c
  3601  007790  ECEA  F036         	call	_sendCommand	;wreg free
  3602  007794                     
  3603                           ;main.c: 200:     read_LoRA_cmd();
  3604  007794  ECA0  F038         	call	_read_LoRA_cmd	;wreg free
  3605  007798                     
  3606                           ;main.c: 201:     oled_putString(&cmd_message,0,3);
  3607  007798  0E37               	movlw	low _cmd_message
  3608  00779A  6E0D               	movwf	oled_putString@string^0,c
  3609  00779C  0E00               	movlw	high _cmd_message
  3610  00779E  6E0E               	movwf	(oled_putString@string+1)^0,c
  3611  0077A0  0E00               	movlw	0
  3612  0077A2  6E0F               	movwf	oled_putString@station_dot^0,c
  3613  0077A4  0E03               	movlw	3
  3614  0077A6  6E10               	movwf	oled_putString@start_page^0,c
  3615  0077A8  ECF4  F037         	call	_oled_putString	;wreg free
  3616  0077AC                     
  3617                           ;main.c: 202:     _delay((unsigned long)((1000)*(48000000/4000.0)));
  3618  0077AC  0E3D               	movlw	61
  3619  0077AE  6E2C               	movwf	(??_init_mod_LoRa+1)^0,c
  3620  0077B0  0EE1               	movlw	225
  3621  0077B2  6E2B               	movwf	??_init_mod_LoRa^0,c
  3622  0077B4  0E40               	movlw	64
  3623  0077B6                     u827:
  3624  0077B6  2EE8               	decfsz	wreg,f,c
  3625  0077B8  D7FE               	bra	u827
  3626  0077BA  2E2B               	decfsz	??_init_mod_LoRa^0,f,c
  3627  0077BC  D7FC               	bra	u827
  3628  0077BE  2E2C               	decfsz	(??_init_mod_LoRa+1)^0,f,c
  3629  0077C0  D7FA               	bra	u827
  3630  0077C2                     
  3631                           ;main.c: 207:     oled_clear();
  3632  0077C2  EC62  F036         	call	_oled_clear	;wreg free
  3633  0077C6                     
  3634                           ;main.c: 208:     oled_putString("LoRA Inversion",0,1);
  3635  0077C6  0EAF               	movlw	low STR_26
  3636  0077C8  6E0D               	movwf	oled_putString@string^0,c
  3637  0077CA  0E7E               	movlw	high STR_26
  3638  0077CC  6E0E               	movwf	(oled_putString@string+1)^0,c
  3639  0077CE  0E00               	movlw	0
  3640  0077D0  6E0F               	movwf	oled_putString@station_dot^0,c
  3641  0077D2  0E01               	movlw	1
  3642  0077D4  6E10               	movwf	oled_putString@start_page^0,c
  3643  0077D6  ECF4  F037         	call	_oled_putString	;wreg free
  3644  0077DA                     
  3645                           ;main.c: 209:     oled_putString(" Invert IQ off",0,2);
  3646  0077DA  0EA0               	movlw	low STR_27
  3647  0077DC  6E0D               	movwf	oled_putString@string^0,c
  3648  0077DE  0E7E               	movlw	high STR_27
  3649  0077E0  6E0E               	movwf	(oled_putString@string+1)^0,c
  3650  0077E2  0E00               	movlw	0
  3651  0077E4  6E0F               	movwf	oled_putString@station_dot^0,c
  3652  0077E6  0E02               	movlw	2
  3653  0077E8  6E10               	movwf	oled_putString@start_page^0,c
  3654  0077EA  ECF4  F037         	call	_oled_putString	;wreg free
  3655  0077EE                     
  3656                           ;main.c: 210:     sendCommand("radio set iqi off\r\n");
  3657  0077EE  0E48               	movlw	low STR_28
  3658  0077F0  6E02               	movwf	sendCommand@texto^0,c
  3659  0077F2  0E7D               	movlw	high STR_28
  3660  0077F4  6E03               	movwf	(sendCommand@texto+1)^0,c
  3661  0077F6  ECEA  F036         	call	_sendCommand	;wreg free
  3662  0077FA                     
  3663                           ;main.c: 211:     read_LoRA_cmd();
  3664  0077FA  ECA0  F038         	call	_read_LoRA_cmd	;wreg free
  3665  0077FE                     
  3666                           ;main.c: 212:     oled_putString(&cmd_message,0,3);
  3667  0077FE  0E37               	movlw	low _cmd_message
  3668  007800  6E0D               	movwf	oled_putString@string^0,c
  3669  007802  0E00               	movlw	high _cmd_message
  3670  007804  6E0E               	movwf	(oled_putString@string+1)^0,c
  3671  007806  0E00               	movlw	0
  3672  007808  6E0F               	movwf	oled_putString@station_dot^0,c
  3673  00780A  0E03               	movlw	3
  3674  00780C  6E10               	movwf	oled_putString@start_page^0,c
  3675  00780E  ECF4  F037         	call	_oled_putString	;wreg free
  3676  007812                     
  3677                           ;main.c: 213:     _delay((unsigned long)((1000)*(48000000/4000.0)));
  3678  007812  0E3D               	movlw	61
  3679  007814  6E2C               	movwf	(??_init_mod_LoRa+1)^0,c
  3680  007816  0EE1               	movlw	225
  3681  007818  6E2B               	movwf	??_init_mod_LoRa^0,c
  3682  00781A  0E40               	movlw	64
  3683  00781C                     u837:
  3684  00781C  2EE8               	decfsz	wreg,f,c
  3685  00781E  D7FE               	bra	u837
  3686  007820  2E2B               	decfsz	??_init_mod_LoRa^0,f,c
  3687  007822  D7FC               	bra	u837
  3688  007824  2E2C               	decfsz	(??_init_mod_LoRa+1)^0,f,c
  3689  007826  D7FA               	bra	u837
  3690  007828                     
  3691                           ;main.c: 218:     oled_clear();
  3692  007828  EC62  F036         	call	_oled_clear	;wreg free
  3693  00782C                     
  3694                           ;main.c: 219:     oled_putString("LoRA WDT",0,1);
  3695  00782C  0EEA               	movlw	low STR_29
  3696  00782E  6E0D               	movwf	oled_putString@string^0,c
  3697  007830  0E7F               	movlw	high STR_29
  3698  007832  6E0E               	movwf	(oled_putString@string+1)^0,c
  3699  007834  0E00               	movlw	0
  3700  007836  6E0F               	movwf	oled_putString@station_dot^0,c
  3701  007838  0E01               	movlw	1
  3702  00783A  6E10               	movwf	oled_putString@start_page^0,c
  3703  00783C  ECF4  F037         	call	_oled_putString	;wreg free
  3704  007840                     
  3705                           ;main.c: 220:     oled_putString(" WDT each 1sec",0,2);
  3706  007840  0E91               	movlw	low STR_30
  3707  007842  6E0D               	movwf	oled_putString@string^0,c
  3708  007844  0E7E               	movlw	high STR_30
  3709  007846  6E0E               	movwf	(oled_putString@string+1)^0,c
  3710  007848  0E00               	movlw	0
  3711  00784A  6E0F               	movwf	oled_putString@station_dot^0,c
  3712  00784C  0E02               	movlw	2
  3713  00784E  6E10               	movwf	oled_putString@start_page^0,c
  3714  007850  ECF4  F037         	call	_oled_putString	;wreg free
  3715  007854                     
  3716                           ;main.c: 221:     sendCommand("radio set wdt 1000\r\n");
  3717  007854  0EF6               	movlw	low STR_31
  3718  007856  6E02               	movwf	sendCommand@texto^0,c
  3719  007858  0E7C               	movlw	high STR_31
  3720  00785A  6E03               	movwf	(sendCommand@texto+1)^0,c
  3721  00785C  ECEA  F036         	call	_sendCommand	;wreg free
  3722  007860                     
  3723                           ;main.c: 222:     read_LoRA_cmd();
  3724  007860  ECA0  F038         	call	_read_LoRA_cmd	;wreg free
  3725  007864                     
  3726                           ;main.c: 223:     oled_putString(&cmd_message,0,3);
  3727  007864  0E37               	movlw	low _cmd_message
  3728  007866  6E0D               	movwf	oled_putString@string^0,c
  3729  007868  0E00               	movlw	high _cmd_message
  3730  00786A  6E0E               	movwf	(oled_putString@string+1)^0,c
  3731  00786C  0E00               	movlw	0
  3732  00786E  6E0F               	movwf	oled_putString@station_dot^0,c
  3733  007870  0E03               	movlw	3
  3734  007872  6E10               	movwf	oled_putString@start_page^0,c
  3735  007874  ECF4  F037         	call	_oled_putString	;wreg free
  3736  007878                     
  3737                           ;main.c: 224:     _delay((unsigned long)((1000)*(48000000/4000.0)));
  3738  007878  0E3D               	movlw	61
  3739  00787A  6E2C               	movwf	(??_init_mod_LoRa+1)^0,c
  3740  00787C  0EE1               	movlw	225
  3741  00787E  6E2B               	movwf	??_init_mod_LoRa^0,c
  3742  007880  0E40               	movlw	64
  3743  007882                     u847:
  3744  007882  2EE8               	decfsz	wreg,f,c
  3745  007884  D7FE               	bra	u847
  3746  007886  2E2B               	decfsz	??_init_mod_LoRa^0,f,c
  3747  007888  D7FC               	bra	u847
  3748  00788A  2E2C               	decfsz	(??_init_mod_LoRa+1)^0,f,c
  3749  00788C  D7FA               	bra	u847
  3750  00788E                     
  3751                           ;main.c: 228:     oled_clear();
  3752  00788E  EC62  F036         	call	_oled_clear	;wreg free
  3753  007892                     
  3754                           ;main.c: 229:     oled_putString("SPR. Factor",0,1);
  3755  007892  0E8B               	movlw	low STR_32
  3756  007894  6E0D               	movwf	oled_putString@string^0,c
  3757  007896  0E7F               	movlw	high STR_32
  3758  007898  6E0E               	movwf	(oled_putString@string+1)^0,c
  3759  00789A  0E00               	movlw	0
  3760  00789C  6E0F               	movwf	oled_putString@station_dot^0,c
  3761  00789E  0E01               	movlw	1
  3762  0078A0  6E10               	movwf	oled_putString@start_page^0,c
  3763  0078A2  ECF4  F037         	call	_oled_putString	;wreg free
  3764  0078A6                     
  3765                           ;main.c: 230:     oled_putString(" spreadingFact12",0,2);
  3766  0078A6  0EA5               	movlw	low STR_33
  3767  0078A8  6E0D               	movwf	oled_putString@string^0,c
  3768  0078AA  0E7D               	movlw	high STR_33
  3769  0078AC  6E0E               	movwf	(oled_putString@string+1)^0,c
  3770  0078AE  0E00               	movlw	0
  3771  0078B0  6E0F               	movwf	oled_putString@station_dot^0,c
  3772  0078B2  0E02               	movlw	2
  3773  0078B4  6E10               	movwf	oled_putString@start_page^0,c
  3774  0078B6  ECF4  F037         	call	_oled_putString	;wreg free
  3775  0078BA                     
  3776                           ;main.c: 231:     sendCommand("radio set sf SF12\r\n");
  3777  0078BA  0E20               	movlw	low STR_34
  3778  0078BC  6E02               	movwf	sendCommand@texto^0,c
  3779  0078BE  0E7D               	movlw	high STR_34
  3780  0078C0  6E03               	movwf	(sendCommand@texto+1)^0,c
  3781  0078C2  ECEA  F036         	call	_sendCommand	;wreg free
  3782  0078C6                     
  3783                           ;main.c: 232:     read_LoRA_cmd();
  3784  0078C6  ECA0  F038         	call	_read_LoRA_cmd	;wreg free
  3785  0078CA                     
  3786                           ;main.c: 233:     oled_putString(&cmd_message,0,3);
  3787  0078CA  0E37               	movlw	low _cmd_message
  3788  0078CC  6E0D               	movwf	oled_putString@string^0,c
  3789  0078CE  0E00               	movlw	high _cmd_message
  3790  0078D0  6E0E               	movwf	(oled_putString@string+1)^0,c
  3791  0078D2  0E00               	movlw	0
  3792  0078D4  6E0F               	movwf	oled_putString@station_dot^0,c
  3793  0078D6  0E03               	movlw	3
  3794  0078D8  6E10               	movwf	oled_putString@start_page^0,c
  3795  0078DA  ECF4  F037         	call	_oled_putString	;wreg free
  3796  0078DE                     
  3797                           ;main.c: 234:     _delay((unsigned long)((1000)*(48000000/4000.0)));
  3798  0078DE  0E3D               	movlw	61
  3799  0078E0  6E2C               	movwf	(??_init_mod_LoRa+1)^0,c
  3800  0078E2  0EE1               	movlw	225
  3801  0078E4  6E2B               	movwf	??_init_mod_LoRa^0,c
  3802  0078E6  0E40               	movlw	64
  3803  0078E8                     u857:
  3804  0078E8  2EE8               	decfsz	wreg,f,c
  3805  0078EA  D7FE               	bra	u857
  3806  0078EC  2E2B               	decfsz	??_init_mod_LoRa^0,f,c
  3807  0078EE  D7FC               	bra	u857
  3808  0078F0  2E2C               	decfsz	(??_init_mod_LoRa+1)^0,f,c
  3809  0078F2  D7FA               	bra	u857
  3810  0078F4                     
  3811                           ;main.c: 238:     oled_clear();
  3812  0078F4  EC62  F036         	call	_oled_clear	;wreg free
  3813  0078F8                     
  3814                           ;main.c: 239:     oled_putString("LoRA Sync",0,1);
  3815  0078F8  0ED6               	movlw	low STR_35
  3816  0078FA  6E0D               	movwf	oled_putString@string^0,c
  3817  0078FC  0E7F               	movlw	high STR_35
  3818  0078FE  6E0E               	movwf	(oled_putString@string+1)^0,c
  3819  007900  0E00               	movlw	0
  3820  007902  6E0F               	movwf	oled_putString@station_dot^0,c
  3821  007904  0E01               	movlw	1
  3822  007906  6E10               	movwf	oled_putString@start_page^0,c
  3823  007908  ECF4  F037         	call	_oled_putString	;wreg free
  3824  00790C                     
  3825                           ;main.c: 240:     oled_putString(" Sync word 34",0,2);
  3826  00790C  0E3C               	movlw	low STR_36
  3827  00790E  6E0D               	movwf	oled_putString@string^0,c
  3828  007910  0E7F               	movlw	high STR_36
  3829  007912  6E0E               	movwf	(oled_putString@string+1)^0,c
  3830  007914  0E00               	movlw	0
  3831  007916  6E0F               	movwf	oled_putString@station_dot^0,c
  3832  007918  0E02               	movlw	2
  3833  00791A  6E10               	movwf	oled_putString@start_page^0,c
  3834  00791C  ECF4  F037         	call	_oled_putString	;wreg free
  3835  007920                     
  3836                           ;main.c: 241:     sendCommand("radio set sync 34\r\n");
  3837  007920  0E34               	movlw	low STR_37
  3838  007922  6E02               	movwf	sendCommand@texto^0,c
  3839  007924  0E7D               	movlw	high STR_37
  3840  007926  6E03               	movwf	(sendCommand@texto+1)^0,c
  3841  007928  ECEA  F036         	call	_sendCommand	;wreg free
  3842  00792C                     
  3843                           ;main.c: 242:     read_LoRA_cmd();
  3844  00792C  ECA0  F038         	call	_read_LoRA_cmd	;wreg free
  3845  007930                     
  3846                           ;main.c: 243:     oled_putString(&cmd_message,0,3);
  3847  007930  0E37               	movlw	low _cmd_message
  3848  007932  6E0D               	movwf	oled_putString@string^0,c
  3849  007934  0E00               	movlw	high _cmd_message
  3850  007936  6E0E               	movwf	(oled_putString@string+1)^0,c
  3851  007938  0E00               	movlw	0
  3852  00793A  6E0F               	movwf	oled_putString@station_dot^0,c
  3853  00793C  0E03               	movlw	3
  3854  00793E  6E10               	movwf	oled_putString@start_page^0,c
  3855  007940  ECF4  F037         	call	_oled_putString	;wreg free
  3856  007944                     
  3857                           ;main.c: 244:     _delay((unsigned long)((1000)*(48000000/4000.0)));
  3858  007944  0E3D               	movlw	61
  3859  007946  6E2C               	movwf	(??_init_mod_LoRa+1)^0,c
  3860  007948  0EE1               	movlw	225
  3861  00794A  6E2B               	movwf	??_init_mod_LoRa^0,c
  3862  00794C  0E40               	movlw	64
  3863  00794E                     u867:
  3864  00794E  2EE8               	decfsz	wreg,f,c
  3865  007950  D7FE               	bra	u867
  3866  007952  2E2B               	decfsz	??_init_mod_LoRa^0,f,c
  3867  007954  D7FC               	bra	u867
  3868  007956  2E2C               	decfsz	(??_init_mod_LoRa+1)^0,f,c
  3869  007958  D7FA               	bra	u867
  3870  00795A  0012               	return		;funcret
  3871  00795C                     __end_of_init_mod_LoRa:
  3872                           	callstack 0
  3873                           
  3874 ;; *************** function _sendCommand *****************
  3875 ;; Defined at:
  3876 ;;		line 38 in file "main.c"
  3877 ;; Parameters:    Size  Location     Type
  3878 ;;  texto           2    1[COMRAM] PTR unsigned char 
  3879 ;;		 -> STR_61(12), STR_59(13), STR_57(14), STR_55(14), 
  3880 ;;		 -> STR_53(14), STR_51(14), STR_49(14), STR_47(14), 
  3881 ;;		 -> STR_45(14), STR_43(14), STR_41(22), STR_39(12), 
  3882 ;;		 -> STR_37(20), STR_34(20), STR_31(21), STR_28(20), 
  3883 ;;		 -> STR_25(21), STR_22(19), STR_19(27), STR_16(19), 
  3884 ;;		 -> STR_13(18), STR_10(14), STR_5(26), STR_4(26), 
  3885 ;;		 -> STR_3(26), STR_2(26), 
  3886 ;; Auto vars:     Size  Location     Type
  3887 ;;		None
  3888 ;; Return value:  Size  Location     Type
  3889 ;;                  1    wreg      void 
  3890 ;; Registers used:
  3891 ;;		wreg, status,2, status,0, tblptrl, tblptrh, tblptru, cstack
  3892 ;; Tracked objects:
  3893 ;;		On entry : 0/0
  3894 ;;		On exit  : 0/0
  3895 ;;		Unchanged: 0/0
  3896 ;; Data sizes:     COMRAM   BANK0   BANK1   BANK2   BANK3   BANK4   BANK5   BANK6   BANK7
  3897 ;;      Params:         2       0       0       0       0       0       0       0       0
  3898 ;;      Locals:         0       0       0       0       0       0       0       0       0
  3899 ;;      Temps:          0       0       0       0       0       0       0       0       0
  3900 ;;      Totals:         2       0       0       0       0       0       0       0       0
  3901 ;;Total ram usage:        2 bytes
  3902 ;; Hardware stack levels used:    1
  3903 ;; Hardware stack levels required when called:    1
  3904 ;; This function calls:
  3905 ;;		_EUSART1_Write
  3906 ;; This function is called by:
  3907 ;;		_init_mod_LoRa
  3908 ;;		_main
  3909 ;;		_RN_Leds
  3910 ;; This function uses a non-reentrant model
  3911 ;;
  3912                           
  3913                           	psect	text11
  3914  006DD4                     __ptext11:
  3915                           	callstack 0
  3916  006DD4                     _sendCommand:
  3917                           	callstack 29
  3918  006DD4                     
  3919                           ;main.c: 38: void sendCommand(char * texto);main.c: 39: {;main.c: 40:     while(* texto)
  3920  006DD4  EFF6  F036         	goto	l1858
  3921  006DD8                     l1854:
  3922                           
  3923                           ;main.c: 41:     {;main.c: 42:         EUSART1_Write(* texto);
  3924  006DD8  C002  FFF6         	movff	sendCommand@texto,tblptrl
  3925  006DDC  C003  FFF7         	movff	sendCommand@texto+1,tblptrh
  3926  006DE0                     	if	0	;tblptru may be non-zero
  3927  006DE0                     	endif
  3928  006DE0                     	if	0	;tblptru may be non-zero
  3929  006DE0                     	endif
  3930  006DE0  0008               	tblrd		*
  3931  006DE2  50F5               	movf	tablat,w,c
  3932  006DE4  EC57  F036         	call	_EUSART1_Write
  3933  006DE8                     
  3934                           ;main.c: 43:         texto++;
  3935  006DE8  4A02               	infsnz	sendCommand@texto^0,f,c
  3936  006DEA  2A03               	incf	(sendCommand@texto+1)^0,f,c
  3937  006DEC                     l1858:
  3938                           
  3939                           ;main.c: 40:     while(* texto)
  3940  006DEC  C002  FFF6         	movff	sendCommand@texto,tblptrl
  3941  006DF0  C003  FFF7         	movff	sendCommand@texto+1,tblptrh
  3942  006DF4                     	if	0	;tblptru may be non-zero
  3943  006DF4                     	endif
  3944  006DF4                     	if	0	;tblptru may be non-zero
  3945  006DF4                     	endif
  3946  006DF4  0008               	tblrd		*
  3947  006DF6  50F5               	movf	tablat,w,c
  3948  006DF8  0900               	iorlw	0
  3949  006DFA  A4D8               	btfss	status,2,c
  3950  006DFC  EF02  F037         	goto	u491
  3951  006E00  EF04  F037         	goto	u490
  3952  006E04                     u491:
  3953  006E04  EFEC  F036         	goto	l1854
  3954  006E08                     u490:
  3955  006E08  0012               	return		;funcret
  3956  006E0A                     __end_of_sendCommand:
  3957                           	callstack 0
  3958                           
  3959 ;; *************** function _EUSART1_Write *****************
  3960 ;; Defined at:
  3961 ;;		line 156 in file "mcc_generated_files/eusart1.c"
  3962 ;; Parameters:    Size  Location     Type
  3963 ;;  txData          1    wreg     unsigned char 
  3964 ;; Auto vars:     Size  Location     Type
  3965 ;;  txData          1    0[COMRAM] unsigned char 
  3966 ;; Return value:  Size  Location     Type
  3967 ;;                  1    wreg      void 
  3968 ;; Registers used:
  3969 ;;		wreg
  3970 ;; Tracked objects:
  3971 ;;		On entry : 0/0
  3972 ;;		On exit  : 0/0
  3973 ;;		Unchanged: 0/0
  3974 ;; Data sizes:     COMRAM   BANK0   BANK1   BANK2   BANK3   BANK4   BANK5   BANK6   BANK7
  3975 ;;      Params:         0       0       0       0       0       0       0       0       0
  3976 ;;      Locals:         1       0       0       0       0       0       0       0       0
  3977 ;;      Temps:          0       0       0       0       0       0       0       0       0
  3978 ;;      Totals:         1       0       0       0       0       0       0       0       0
  3979 ;;Total ram usage:        1 bytes
  3980 ;; Hardware stack levels used:    1
  3981 ;; This function calls:
  3982 ;;		Nothing
  3983 ;; This function is called by:
  3984 ;;		_sendCommand
  3985 ;;		_Endline
  3986 ;; This function uses a non-reentrant model
  3987 ;;
  3988                           
  3989                           	psect	text12
  3990  006CAE                     __ptext12:
  3991                           	callstack 0
  3992  006CAE                     _EUSART1_Write:
  3993                           	callstack 29
  3994                           
  3995                           ;incstack = 0
  3996                           ;EUSART1_Write@txData stored from wreg
  3997  006CAE  6E01               	movwf	EUSART1_Write@txData^0,c
  3998  006CB0                     l74:
  3999                           
  4000                           ;mcc_generated_files/eusart1.c: 158:     while(0 == PIR1bits.TX1IF)
  4001  006CB0  A89E               	btfss	158,4,c	;volatile
  4002  006CB2  EF5D  F036         	goto	u51
  4003  006CB6  EF5F  F036         	goto	u50
  4004  006CBA                     u51:
  4005  006CBA  EF58  F036         	goto	l74
  4006  006CBE                     u50:
  4007  006CBE                     
  4008                           ;mcc_generated_files/eusart1.c: 162:     TXREG1 = txData;
  4009  006CBE  C001  FFAD         	movff	EUSART1_Write@txData,4013	;volatile
  4010  006CC2  0012               	return		;funcret
  4011  006CC4                     __end_of_EUSART1_Write:
  4012                           	callstack 0
  4013                           
  4014 ;; *************** function _read_LoRA_cmd *****************
  4015 ;; Defined at:
  4016 ;;		line 95 in file "main.c"
  4017 ;; Parameters:    Size  Location     Type
  4018 ;;		None
  4019 ;; Auto vars:     Size  Location     Type
  4020 ;;  i               2    7[COMRAM] int 
  4021 ;;  Flag            2    5[COMRAM] int 
  4022 ;; Return value:  Size  Location     Type
  4023 ;;                  1    wreg      void 
  4024 ;; Registers used:
  4025 ;;		wreg, fsr2l, fsr2h, status,2, status,0, cstack
  4026 ;; Tracked objects:
  4027 ;;		On entry : 0/0
  4028 ;;		On exit  : 0/0
  4029 ;;		Unchanged: 0/0
  4030 ;; Data sizes:     COMRAM   BANK0   BANK1   BANK2   BANK3   BANK4   BANK5   BANK6   BANK7
  4031 ;;      Params:         0       0       0       0       0       0       0       0       0
  4032 ;;      Locals:         4       0       0       0       0       0       0       0       0
  4033 ;;      Temps:          1       0       0       0       0       0       0       0       0
  4034 ;;      Totals:         5       0       0       0       0       0       0       0       0
  4035 ;;Total ram usage:        5 bytes
  4036 ;; Hardware stack levels used:    1
  4037 ;; Hardware stack levels required when called:    1
  4038 ;; This function calls:
  4039 ;;		_get_Data
  4040 ;; This function is called by:
  4041 ;;		_init_mod_LoRa
  4042 ;;		_main
  4043 ;; This function uses a non-reentrant model
  4044 ;;
  4045                           
  4046                           	psect	text13
  4047  007140                     __ptext13:
  4048                           	callstack 0
  4049  007140                     _read_LoRA_cmd:
  4050                           	callstack 29
  4051  007140                     
  4052                           ;main.c: 96:     int i=0,Flag=0;
  4053  007140  0E00               	movlw	0
  4054  007142  6E09               	movwf	(read_LoRA_cmd@i+1)^0,c
  4055  007144  0E00               	movlw	0
  4056  007146  6E08               	movwf	read_LoRA_cmd@i^0,c
  4057  007148  0E00               	movlw	0
  4058  00714A  6E07               	movwf	(read_LoRA_cmd@Flag+1)^0,c
  4059  00714C  0E00               	movlw	0
  4060  00714E  6E06               	movwf	read_LoRA_cmd@Flag^0,c
  4061                           
  4062                           ;main.c: 99:     for (i = 0; i <= 15; i++){
  4063  007150  0E00               	movlw	0
  4064  007152  6E09               	movwf	(read_LoRA_cmd@i+1)^0,c
  4065  007154  0E00               	movlw	0
  4066  007156  6E08               	movwf	read_LoRA_cmd@i^0,c
  4067  007158                     l1866:
  4068                           
  4069                           ;main.c: 100:         cmd_message[i]=0;
  4070  007158  0E37               	movlw	low _cmd_message
  4071  00715A  2408               	addwf	read_LoRA_cmd@i^0,w,c
  4072  00715C  6ED9               	movwf	fsr2l,c
  4073  00715E  0E00               	movlw	high _cmd_message
  4074  007160  2009               	addwfc	(read_LoRA_cmd@i+1)^0,w,c
  4075  007162  6EDA               	movwf	fsr2h,c
  4076  007164  0E00               	movlw	0
  4077  007166  6EDF               	movwf	indf2,c
  4078  007168                     
  4079                           ;main.c: 101:     }
  4080  007168  4A08               	infsnz	read_LoRA_cmd@i^0,f,c
  4081  00716A  2A09               	incf	(read_LoRA_cmd@i+1)^0,f,c
  4082  00716C  BE09               	btfsc	(read_LoRA_cmd@i+1)^0,7,c
  4083  00716E  EFC2  F038         	goto	u501
  4084  007172  5009               	movf	(read_LoRA_cmd@i+1)^0,w,c
  4085  007174  E109               	bnz	u500
  4086  007176  0E10               	movlw	16
  4087  007178  5C08               	subwf	read_LoRA_cmd@i^0,w,c
  4088  00717A  A0D8               	btfss	status,0,c
  4089  00717C  EFC2  F038         	goto	u501
  4090  007180  EFC4  F038         	goto	u500
  4091  007184                     u501:
  4092  007184  EFAC  F038         	goto	l1866
  4093  007188                     u500:
  4094  007188                     
  4095                           ;main.c: 104:     i=0;
  4096  007188  0E00               	movlw	0
  4097  00718A  6E09               	movwf	(read_LoRA_cmd@i+1)^0,c
  4098  00718C  0E00               	movlw	0
  4099  00718E  6E08               	movwf	read_LoRA_cmd@i^0,c
  4100                           
  4101                           ;main.c: 105:     while(Flag==0)
  4102  007190  EF0F  F039         	goto	l1892
  4103  007194                     l1874:
  4104                           
  4105                           ;main.c: 106:     {;main.c: 107:         cmd_message[i] = get_Data();
  4106  007194  0E37               	movlw	low _cmd_message
  4107  007196  2408               	addwf	read_LoRA_cmd@i^0,w,c
  4108  007198  6ED9               	movwf	fsr2l,c
  4109  00719A  0E00               	movlw	high _cmd_message
  4110  00719C  2009               	addwfc	(read_LoRA_cmd@i+1)^0,w,c
  4111  00719E  6EDA               	movwf	fsr2h,c
  4112  0071A0  ECD0  F036         	call	_get_Data	;wreg free
  4113  0071A4  5001               	movf	?_get_Data^0,w,c
  4114  0071A6  6EDF               	movwf	indf2,c
  4115  0071A8                     
  4116                           ;main.c: 108:         if((cmd_message[i]) == '\r'){
  4117  0071A8  0E37               	movlw	low _cmd_message
  4118  0071AA  2408               	addwf	read_LoRA_cmd@i^0,w,c
  4119  0071AC  6ED9               	movwf	fsr2l,c
  4120  0071AE  0E00               	movlw	high _cmd_message
  4121  0071B0  2009               	addwfc	(read_LoRA_cmd@i+1)^0,w,c
  4122  0071B2  6EDA               	movwf	fsr2h,c
  4123  0071B4  0E0D               	movlw	13
  4124  0071B6  18DE               	xorwf	postinc2,w,c
  4125  0071B8  A4D8               	btfss	status,2,c
  4126  0071BA  EFE1  F038         	goto	u511
  4127  0071BE  EFE3  F038         	goto	u510
  4128  0071C2                     u511:
  4129  0071C2  EFF1  F038         	goto	l1884
  4130  0071C6                     u510:
  4131  0071C6                     
  4132                           ;main.c: 109:             cmd_message[i] = ' ';
  4133  0071C6  0E37               	movlw	low _cmd_message
  4134  0071C8  2408               	addwf	read_LoRA_cmd@i^0,w,c
  4135  0071CA  6ED9               	movwf	fsr2l,c
  4136  0071CC  0E00               	movlw	high _cmd_message
  4137  0071CE  2009               	addwfc	(read_LoRA_cmd@i+1)^0,w,c
  4138  0071D0  6EDA               	movwf	fsr2h,c
  4139  0071D2  0E20               	movlw	32
  4140  0071D4  6EDF               	movwf	indf2,c
  4141  0071D6                     
  4142                           ;main.c: 110:             get_Data();
  4143  0071D6  ECD0  F036         	call	_get_Data	;wreg free
  4144  0071DA                     
  4145                           ;main.c: 111:             Flag=1;
  4146  0071DA  0E00               	movlw	0
  4147  0071DC  6E07               	movwf	(read_LoRA_cmd@Flag+1)^0,c
  4148  0071DE  0E01               	movlw	1
  4149  0071E0  6E06               	movwf	read_LoRA_cmd@Flag^0,c
  4150  0071E2                     l1884:
  4151                           
  4152                           ;main.c: 113:         if (i>16){
  4153  0071E2  BE09               	btfsc	(read_LoRA_cmd@i+1)^0,7,c
  4154  0071E4  EFFD  F038         	goto	u521
  4155  0071E8  5009               	movf	(read_LoRA_cmd@i+1)^0,w,c
  4156  0071EA  E109               	bnz	u520
  4157  0071EC  0E11               	movlw	17
  4158  0071EE  5C08               	subwf	read_LoRA_cmd@i^0,w,c
  4159  0071F0  A0D8               	btfss	status,0,c
  4160  0071F2  EFFD  F038         	goto	u521
  4161  0071F6  EFFF  F038         	goto	u520
  4162  0071FA                     u521:
  4163  0071FA  EF0D  F039         	goto	l1890
  4164  0071FE                     u520:
  4165  0071FE                     l1888:
  4166  0071FE  ECD0  F036         	call	_get_Data	;wreg free
  4167  007202  0E0A               	movlw	10
  4168  007204  1801               	xorwf	?_get_Data^0,w,c
  4169  007206  1002               	iorwf	(?_get_Data+1)^0,w,c
  4170  007208  A4D8               	btfss	status,2,c
  4171  00720A  EF09  F039         	goto	u531
  4172  00720E  EF0B  F039         	goto	u530
  4173  007212                     u531:
  4174  007212  EFFF  F038         	goto	l1888
  4175  007216                     u530:
  4176  007216  EF18  F039         	goto	l225
  4177  00721A                     l1890:
  4178                           
  4179                           ;main.c: 117:         i++;
  4180  00721A  4A08               	infsnz	read_LoRA_cmd@i^0,f,c
  4181  00721C  2A09               	incf	(read_LoRA_cmd@i+1)^0,f,c
  4182  00721E                     l1892:
  4183                           
  4184                           ;main.c: 105:     while(Flag==0)
  4185  00721E  5006               	movf	read_LoRA_cmd@Flag^0,w,c
  4186  007220  1007               	iorwf	(read_LoRA_cmd@Flag+1)^0,w,c
  4187  007222  B4D8               	btfsc	status,2,c
  4188  007224  EF16  F039         	goto	u541
  4189  007228  EF18  F039         	goto	u540
  4190  00722C                     u541:
  4191  00722C  EFCA  F038         	goto	l1874
  4192  007230                     u540:
  4193  007230                     l225:
  4194  007230  0012               	return		;funcret
  4195  007232                     __end_of_read_LoRA_cmd:
  4196                           	callstack 0
  4197                           
  4198 ;; *************** function _get_Data *****************
  4199 ;; Defined at:
  4200 ;;		line 132 in file "mcc_generated_files/eusart1.c"
  4201 ;; Parameters:    Size  Location     Type
  4202 ;;		None
  4203 ;; Auto vars:     Size  Location     Type
  4204 ;;		None
  4205 ;; Return value:  Size  Location     Type
  4206 ;;                  2    0[COMRAM] PTR unsigned char 
  4207 ;; Registers used:
  4208 ;;		wreg, status,2
  4209 ;; Tracked objects:
  4210 ;;		On entry : 0/0
  4211 ;;		On exit  : 0/0
  4212 ;;		Unchanged: 0/0
  4213 ;; Data sizes:     COMRAM   BANK0   BANK1   BANK2   BANK3   BANK4   BANK5   BANK6   BANK7
  4214 ;;      Params:         2       0       0       0       0       0       0       0       0
  4215 ;;      Locals:         0       0       0       0       0       0       0       0       0
  4216 ;;      Temps:          2       0       0       0       0       0       0       0       0
  4217 ;;      Totals:         4       0       0       0       0       0       0       0       0
  4218 ;;Total ram usage:        4 bytes
  4219 ;; Hardware stack levels used:    1
  4220 ;; This function calls:
  4221 ;;		Nothing
  4222 ;; This function is called by:
  4223 ;;		_read_LoRA_cmd
  4224 ;; This function uses a non-reentrant model
  4225 ;;
  4226                           
  4227                           	psect	text14
  4228  006DA0                     __ptext14:
  4229                           	callstack 0
  4230  006DA0                     _get_Data:
  4231                           	callstack 29
  4232  006DA0                     l67:
  4233                           
  4234                           ;mcc_generated_files/eusart1.c: 136:     while(!PIR1bits.RC1IF)
  4235  006DA0  AA9E               	btfss	158,5,c	;volatile
  4236  006DA2  EFD5  F036         	goto	u431
  4237  006DA6  EFD7  F036         	goto	u430
  4238  006DAA                     u431:
  4239  006DAA  EFD0  F036         	goto	l67
  4240  006DAE                     u430:
  4241  006DAE                     
  4242                           ;mcc_generated_files/eusart1.c: 140:     eusart1RxLastError.status = 0;
  4243  006DAE  0E00               	movlw	0
  4244  006DB0  6E36               	movwf	_eusart1RxLastError^0,c	;volatile
  4245  006DB2                     
  4246                           ;mcc_generated_files/eusart1.c: 142:     if(1 == RCSTA1bits.OERR)
  4247  006DB2  A2AB               	btfss	171,1,c	;volatile
  4248  006DB4  EFDE  F036         	goto	u441
  4249  006DB8  EFE0  F036         	goto	u440
  4250  006DBC                     u441:
  4251  006DBC  EFE2  F036         	goto	l1820
  4252  006DC0                     u440:
  4253  006DC0                     
  4254                           ;mcc_generated_files/eusart1.c: 143:     {;mcc_generated_files/eusart1.c: 146:         R
      +                          CSTA1bits.CREN = 0;
  4255  006DC0  98AB               	bcf	171,4,c	;volatile
  4256                           
  4257                           ;mcc_generated_files/eusart1.c: 147:         RCSTA1bits.CREN = 1;
  4258  006DC2  88AB               	bsf	171,4,c	;volatile
  4259  006DC4                     l1820:
  4260                           
  4261                           ;mcc_generated_files/eusart1.c: 154:     return RCREG1;
  4262  006DC4  50AE               	movf	174,w,c	;volatile
  4263  006DC6  6E03               	movwf	??_get_Data^0,c
  4264  006DC8  6A04               	clrf	(??_get_Data+1)^0,c
  4265  006DCA  C003  F001         	movff	??_get_Data,?_get_Data
  4266  006DCE  C004  F002         	movff	??_get_Data+1,?_get_Data+1
  4267  006DD2  0012               	return		;funcret
  4268  006DD4                     __end_of_get_Data:
  4269                           	callstack 0
  4270                           
  4271 ;; *************** function _Opening *****************
  4272 ;; Defined at:
  4273 ;;		line 121 in file "main.c"
  4274 ;; Parameters:    Size  Location     Type
  4275 ;;		None
  4276 ;; Auto vars:     Size  Location     Type
  4277 ;;  aux            16   24[COMRAM] unsigned char [16]
  4278 ;;  i               1   41[COMRAM] unsigned char 
  4279 ;;  size            1   40[COMRAM] unsigned char 
  4280 ;; Return value:  Size  Location     Type
  4281 ;;                  1    wreg      void 
  4282 ;; Registers used:
  4283 ;;		wreg, fsr0l, fsr0h, fsr1l, fsr1h, fsr2l, fsr2h, status,2, status,0, tblptrl, tblptrh, tblptru, prodl, prodh, cstack
  4284 ;; Tracked objects:
  4285 ;;		On entry : 0/0
  4286 ;;		On exit  : 0/0
  4287 ;;		Unchanged: 0/0
  4288 ;; Data sizes:     COMRAM   BANK0   BANK1   BANK2   BANK3   BANK4   BANK5   BANK6   BANK7
  4289 ;;      Params:         0       0       0       0       0       0       0       0       0
  4290 ;;      Locals:        18       0       0       0       0       0       0       0       0
  4291 ;;      Temps:          7       0       0       0       0       0       0       0       0
  4292 ;;      Totals:        25       0       0       0       0       0       0       0       0
  4293 ;;Total ram usage:       25 bytes
  4294 ;; Hardware stack levels used:    1
  4295 ;; Hardware stack levels required when called:    5
  4296 ;; This function calls:
  4297 ;;		_oled_clear
  4298 ;;		_oled_putChar
  4299 ;;		_oled_putString
  4300 ;; This function is called by:
  4301 ;;		_init_mod_LoRa
  4302 ;; This function uses a non-reentrant model
  4303 ;;
  4304                           
  4305                           	psect	text15
  4306  007068                     __ptext15:
  4307                           	callstack 0
  4308  007068                     _Opening:
  4309                           	callstack 24
  4310  007068                     
  4311                           ;main.c: 122:     uint8_t size=16;
  4312  007068  0E10               	movlw	16
  4313  00706A  6E29               	movwf	Opening@size^0,c
  4314  00706C                     
  4315                           ;main.c: 123:     char aux[16] = "   UNIBAGUE    ";
  4316  00706C  EE20  F047         	lfsr	2,Opening@F5429
  4317  007070  EE10  F019         	lfsr	1,Opening@aux
  4318  007074  0E0F               	movlw	15
  4319  007076                     u551:
  4320  007076  CFDB FFE3          	movff	plusw2,plusw1
  4321  00707A  06E8               	decf	wreg,f,c
  4322  00707C  E2FC               	bc	u551
  4323  00707E                     
  4324                           ;main.c: 126:     oled_clear();
  4325  00707E  EC62  F036         	call	_oled_clear	;wreg free
  4326  007082                     
  4327                           ;main.c: 127:     oled_putString(" LoRA MOTE SI2C ",0,0);
  4328  007082  0E94               	movlw	low STR_6
  4329  007084  6E0D               	movwf	oled_putString@string^0,c
  4330  007086  0E7D               	movlw	high STR_6
  4331  007088  6E0E               	movwf	(oled_putString@string+1)^0,c
  4332  00708A  0E00               	movlw	0
  4333  00708C  6E0F               	movwf	oled_putString@station_dot^0,c
  4334  00708E  0E00               	movlw	0
  4335  007090  6E10               	movwf	oled_putString@start_page^0,c
  4336  007092  ECF4  F037         	call	_oled_putString	;wreg free
  4337  007096                     
  4338                           ;main.c: 128:     for (i = 0; i < size-1; i++){
  4339  007096  0E00               	movlw	0
  4340  007098  6E2A               	movwf	Opening@i^0,c
  4341  00709A  EF69  F038         	goto	l1912
  4342  00709E                     l1906:
  4343                           
  4344                           ;main.c: 129:         oled_putChar((aux[i]),i,1);
  4345  00709E  C02A  F003         	movff	Opening@i,oled_putChar@station_dot
  4346  0070A2  0E01               	movlw	1
  4347  0070A4  6E04               	movwf	oled_putChar@start_page^0,c
  4348  0070A6  0E19               	movlw	low Opening@aux
  4349  0070A8  242A               	addwf	Opening@i^0,w,c
  4350  0070AA  6ED9               	movwf	fsr2l,c
  4351  0070AC  6ADA               	clrf	fsr2h,c
  4352  0070AE  0E00               	movlw	high Opening@aux
  4353  0070B0  22DA               	addwfc	fsr2h,f,c
  4354  0070B2  50DF               	movf	indf2,w,c
  4355  0070B4  ECB6  F037         	call	_oled_putChar
  4356  0070B8                     
  4357                           ;main.c: 130:         _delay((unsigned long)((100)*(48000000/4000.0)));
  4358  0070B8  0E07               	movlw	7
  4359  0070BA  6E13               	movwf	(??_Opening+1)^0,c
  4360  0070BC  0E17               	movlw	23
  4361  0070BE  6E12               	movwf	??_Opening^0,c
  4362  0070C0  0E6A               	movlw	106
  4363  0070C2                     u877:
  4364  0070C2  2EE8               	decfsz	wreg,f,c
  4365  0070C4  D7FE               	bra	u877
  4366  0070C6  2E12               	decfsz	??_Opening^0,f,c
  4367  0070C8  D7FC               	bra	u877
  4368  0070CA  2E13               	decfsz	(??_Opening+1)^0,f,c
  4369  0070CC  D7FA               	bra	u877
  4370  0070CE  D000               	nop2	
  4371  0070D0                     
  4372                           ;main.c: 131:     }
  4373  0070D0  2A2A               	incf	Opening@i^0,f,c
  4374  0070D2                     l1912:
  4375  0070D2  0EFF               	movlw	255
  4376  0070D4  6E12               	movwf	??_Opening^0,c
  4377  0070D6  0EFF               	movlw	255
  4378  0070D8  6E13               	movwf	(??_Opening+1)^0,c
  4379  0070DA  5029               	movf	Opening@size^0,w,c
  4380  0070DC  6E14               	movwf	(??_Opening+2)^0,c
  4381  0070DE  6A15               	clrf	(??_Opening+3)^0,c
  4382  0070E0  5012               	movf	??_Opening^0,w,c
  4383  0070E2  2614               	addwf	(??_Opening+2)^0,f,c
  4384  0070E4  5013               	movf	(??_Opening+1)^0,w,c
  4385  0070E6  2215               	addwfc	(??_Opening+3)^0,f,c
  4386  0070E8  502A               	movf	Opening@i^0,w,c
  4387  0070EA  6E16               	movwf	(??_Opening+4)^0,c
  4388  0070EC  6A17               	clrf	(??_Opening+5)^0,c
  4389  0070EE  5014               	movf	(??_Opening+2)^0,w,c
  4390  0070F0  5C16               	subwf	(??_Opening+4)^0,w,c
  4391  0070F2  5017               	movf	(??_Opening+5)^0,w,c
  4392  0070F4  0A80               	xorlw	128
  4393  0070F6  6E18               	movwf	(??_Opening+6)^0,c
  4394  0070F8  5015               	movf	(??_Opening+3)^0,w,c
  4395  0070FA  0A80               	xorlw	128
  4396  0070FC  5818               	subwfb	(??_Opening+6)^0,w,c
  4397  0070FE  A0D8               	btfss	status,0,c
  4398  007100  EF84  F038         	goto	u561
  4399  007104  EF86  F038         	goto	u560
  4400  007108                     u561:
  4401  007108  EF4F  F038         	goto	l1906
  4402  00710C                     u560:
  4403  00710C                     
  4404                           ;main.c: 132:     LATAbits.LATA7 = 1;
  4405  00710C  8E89               	bsf	137,7,c	;volatile
  4406                           
  4407                           ;main.c: 133:     LATAbits.LATA6 = 1;
  4408  00710E  8C89               	bsf	137,6,c	;volatile
  4409  007110                     
  4410                           ;main.c: 134:     oled_putString(">>Welcome!",0,3);
  4411  007110  0E97               	movlw	low STR_7
  4412  007112  6E0D               	movwf	oled_putString@string^0,c
  4413  007114  0E7F               	movlw	high STR_7
  4414  007116  6E0E               	movwf	(oled_putString@string+1)^0,c
  4415  007118  0E00               	movlw	0
  4416  00711A  6E0F               	movwf	oled_putString@station_dot^0,c
  4417  00711C  0E03               	movlw	3
  4418  00711E  6E10               	movwf	oled_putString@start_page^0,c
  4419  007120  ECF4  F037         	call	_oled_putString	;wreg free
  4420  007124                     
  4421                           ;main.c: 135:     _delay((unsigned long)((1000)*(48000000/4000.0)));
  4422  007124  0E3D               	movlw	61
  4423  007126  6E13               	movwf	(??_Opening+1)^0,c
  4424  007128  0EE1               	movlw	225
  4425  00712A  6E12               	movwf	??_Opening^0,c
  4426  00712C  0E40               	movlw	64
  4427  00712E                     u887:
  4428  00712E  2EE8               	decfsz	wreg,f,c
  4429  007130  D7FE               	bra	u887
  4430  007132  2E12               	decfsz	??_Opening^0,f,c
  4431  007134  D7FC               	bra	u887
  4432  007136  2E13               	decfsz	(??_Opening+1)^0,f,c
  4433  007138  D7FA               	bra	u887
  4434  00713A                     
  4435                           ;main.c: 136:     LATAbits.LATA7 = 0;
  4436  00713A  9E89               	bcf	137,7,c	;volatile
  4437  00713C                     
  4438                           ;main.c: 137:     LATAbits.LATA6 = 0;
  4439  00713C  9C89               	bcf	137,6,c	;volatile
  4440  00713E  0012               	return		;funcret
  4441  007140                     __end_of_Opening:
  4442                           	callstack 0
  4443                           
  4444 ;; *************** function _oled_putString *****************
  4445 ;; Defined at:
  4446 ;;		line 331 in file "SSD1306oLED.c"
  4447 ;; Parameters:    Size  Location     Type
  4448 ;;  string          2   12[COMRAM] PTR const unsigned char 
  4449 ;;		 -> oled_putUint16@numData(6), oled_putint8@numData(6), oled_putUint8@numData(6), STR_60(10), 
  4450 ;;		 -> STR_58(11), STR_56(15), STR_54(15), STR_52(15), 
  4451 ;;		 -> STR_50(15), STR_48(15), STR_46(15), STR_44(15), 
  4452 ;;		 -> STR_42(15), STR_40(14), STR_38(10), STR_36(14), 
  4453 ;;		 -> STR_35(10), STR_33(17), STR_32(12), STR_30(15), 
  4454 ;;		 -> STR_29(9), STR_27(15), STR_26(15), STR_24(17), 
  4455 ;;		 -> STR_23(10), STR_21(17), STR_20(11), STR_18(17), 
  4456 ;;		 -> STR_17(13), STR_15(15), STR_14(8), STR_12(16), 
  4457 ;;		 -> STR_11(17), STR_9(3), STR_8(13), STR_7(11), 
  4458 ;;		 -> STR_6(17), cmd_message(16), STR_1(10), 
  4459 ;;  station_dot     1   14[COMRAM] unsigned char 
  4460 ;;  start_page      1   15[COMRAM] unsigned char 
  4461 ;; Auto vars:     Size  Location     Type
  4462 ;;  index           1   16[COMRAM] unsigned char 
  4463 ;; Return value:  Size  Location     Type
  4464 ;;                  1    wreg      void 
  4465 ;; Registers used:
  4466 ;;		wreg, fsr0l, fsr0h, status,2, status,0, tblptrl, tblptrh, tblptru, prodl, prodh, cstack
  4467 ;; Tracked objects:
  4468 ;;		On entry : 0/0
  4469 ;;		On exit  : 0/0
  4470 ;;		Unchanged: 0/0
  4471 ;; Data sizes:     COMRAM   BANK0   BANK1   BANK2   BANK3   BANK4   BANK5   BANK6   BANK7
  4472 ;;      Params:         4       0       0       0       0       0       0       0       0
  4473 ;;      Locals:         1       0       0       0       0       0       0       0       0
  4474 ;;      Temps:          0       0       0       0       0       0       0       0       0
  4475 ;;      Totals:         5       0       0       0       0       0       0       0       0
  4476 ;;Total ram usage:        5 bytes
  4477 ;; Hardware stack levels used:    1
  4478 ;; Hardware stack levels required when called:    3
  4479 ;; This function calls:
  4480 ;;		_oled_putChar
  4481 ;; This function is called by:
  4482 ;;		_Opening
  4483 ;;		_init_mod_LoRa
  4484 ;;		_main
  4485 ;;		_test_leds
  4486 ;;		_oled_putUint8
  4487 ;;		_oled_putint8
  4488 ;;		_oled_putUint16
  4489 ;; This function uses a non-reentrant model
  4490 ;;
  4491                           
  4492                           	psect	text16
  4493  006FE8                     __ptext16:
  4494                           	callstack 0
  4495  006FE8                     _oled_putString:
  4496                           	callstack 27
  4497  006FE8                     
  4498                           ;SSD1306oLED.c: 331: void oled_putString(const char *string, uint8_t station_dot, uint8_
      +                          t start_page);SSD1306oLED.c: 332: {;SSD1306oLED.c: 333:     uint8_t index;;SSD1306oLED.c
      +                          : 334:     for(index = station_dot; index < 16; index++)
  4499  006FE8  C00F  F011         	movff	oled_putString@station_dot,oled_putString@index
  4500  006FEC                     l1826:
  4501  006FEC  0E0F               	movlw	15
  4502  006FEE  6411               	cpfsgt	oled_putString@index^0,c
  4503  006FF0  EFFC  F037         	goto	u451
  4504  006FF4  EFFE  F037         	goto	u450
  4505  006FF8                     u451:
  4506  006FF8  EF00  F038         	goto	l1830
  4507  006FFC                     u450:
  4508  006FFC  EF33  F038         	goto	l346
  4509  007000                     l1830:
  4510                           
  4511                           ;SSD1306oLED.c: 335:     {;SSD1306oLED.c: 336:         if (*string != 0)
  4512  007000  C00D  FFF6         	movff	oled_putString@string,tblptrl
  4513  007004  C00E  FFF7         	movff	oled_putString@string+1,tblptrh
  4514  007008  6AF8               	clrf	tblptru,c
  4515  00700A  0E07               	movlw	(high __ramtop+-1)
  4516  00700C  64F7               	cpfsgt	tblptrh,c
  4517  00700E  D003               	bra	u467
  4518  007010  0008               	tblrd		*
  4519  007012  50F5               	movf	tablat,w,c
  4520  007014  D005               	bra	u460
  4521  007016                     u467:
  4522  007016  CFF6 FFE9          	movff	tblptrl,fsr0l
  4523  00701A  CFF7 FFEA          	movff	tblptrh,fsr0h
  4524  00701E  50EF               	movf	indf0,w,c
  4525  007020                     u460:
  4526  007020  0900               	iorlw	0
  4527  007022  B4D8               	btfsc	status,2,c
  4528  007024  EF16  F038         	goto	u471
  4529  007028  EF18  F038         	goto	u470
  4530  00702C                     u471:
  4531  00702C  EF33  F038         	goto	l346
  4532  007030                     u470:
  4533  007030                     
  4534                           ;SSD1306oLED.c: 337:         {;SSD1306oLED.c: 338:             oled_putChar(*string, ind
      +                          ex, start_page);
  4535  007030  C011  F003         	movff	oled_putString@index,oled_putChar@station_dot
  4536  007034  C010  F004         	movff	oled_putString@start_page,oled_putChar@start_page
  4537  007038  C00D  FFF6         	movff	oled_putString@string,tblptrl
  4538  00703C  C00E  FFF7         	movff	oled_putString@string+1,tblptrh
  4539  007040  6AF8               	clrf	tblptru,c
  4540  007042  0E07               	movlw	(high __ramtop+-1)
  4541  007044  64F7               	cpfsgt	tblptrh,c
  4542  007046  D003               	bra	u487
  4543  007048  0008               	tblrd		*
  4544  00704A  50F5               	movf	tablat,w,c
  4545  00704C  D005               	bra	u480
  4546  00704E                     u487:
  4547  00704E  CFF6 FFE9          	movff	tblptrl,fsr0l
  4548  007052  CFF7 FFEA          	movff	tblptrh,fsr0h
  4549  007056  50EF               	movf	indf0,w,c
  4550  007058                     u480:
  4551  007058  ECB6  F037         	call	_oled_putChar
  4552  00705C                     
  4553                           ;SSD1306oLED.c: 339:             *string++;
  4554  00705C  4A0D               	infsnz	oled_putString@string^0,f,c
  4555  00705E  2A0E               	incf	(oled_putString@string+1)^0,f,c
  4556  007060                     
  4557                           ;SSD1306oLED.c: 345:     }
  4558  007060  2A11               	incf	oled_putString@index^0,f,c
  4559  007062  EFF6  F037         	goto	l1826
  4560  007066                     l346:
  4561  007066  0012               	return		;funcret
  4562  007068                     __end_of_oled_putString:
  4563                           	callstack 0
  4564                           
  4565 ;; *************** function _oled_clear *****************
  4566 ;; Defined at:
  4567 ;;		line 348 in file "SSD1306oLED.c"
  4568 ;; Parameters:    Size  Location     Type
  4569 ;;		None
  4570 ;; Auto vars:     Size  Location     Type
  4571 ;;		None
  4572 ;; Return value:  Size  Location     Type
  4573 ;;                  1    wreg      void 
  4574 ;; Registers used:
  4575 ;;		wreg, status,2, status,0, tblptrl, tblptrh, tblptru, prodl, prodh, cstack
  4576 ;; Tracked objects:
  4577 ;;		On entry : 0/0
  4578 ;;		On exit  : 0/0
  4579 ;;		Unchanged: 0/0
  4580 ;; Data sizes:     COMRAM   BANK0   BANK1   BANK2   BANK3   BANK4   BANK5   BANK6   BANK7
  4581 ;;      Params:         0       0       0       0       0       0       0       0       0
  4582 ;;      Locals:         0       0       0       0       0       0       0       0       0
  4583 ;;      Temps:          0       0       0       0       0       0       0       0       0
  4584 ;;      Totals:         0       0       0       0       0       0       0       0       0
  4585 ;;Total ram usage:        0 bytes
  4586 ;; Hardware stack levels used:    1
  4587 ;; Hardware stack levels required when called:    4
  4588 ;; This function calls:
  4589 ;;		_oled_clearRow
  4590 ;; This function is called by:
  4591 ;;		_Opening
  4592 ;;		_init_mod_LoRa
  4593 ;;		_main
  4594 ;;		_oled_init
  4595 ;; This function uses a non-reentrant model
  4596 ;;
  4597                           
  4598                           	psect	text17
  4599  006CC4                     __ptext17:
  4600                           	callstack 0
  4601  006CC4                     _oled_clear:
  4602                           	callstack 25
  4603  006CC4                     
  4604                           ;SSD1306oLED.c: 350:     oled_clearRow(0);
  4605  006CC4  0E00               	movlw	0
  4606  006CC6  EC8D  F036         	call	_oled_clearRow
  4607                           
  4608                           ;SSD1306oLED.c: 351:     oled_clearRow(1);
  4609  006CCA  0E01               	movlw	1
  4610  006CCC  EC8D  F036         	call	_oled_clearRow
  4611                           
  4612                           ;SSD1306oLED.c: 352:     oled_clearRow(2);
  4613  006CD0  0E02               	movlw	2
  4614  006CD2  EC8D  F036         	call	_oled_clearRow
  4615                           
  4616                           ;SSD1306oLED.c: 353:     oled_clearRow(3);
  4617  006CD6  0E03               	movlw	3
  4618  006CD8  EC8D  F036         	call	_oled_clearRow
  4619  006CDC  0012               	return		;funcret
  4620  006CDE                     __end_of_oled_clear:
  4621                           	callstack 0
  4622                           
  4623 ;; *************** function _oled_clearRow *****************
  4624 ;; Defined at:
  4625 ;;		line 356 in file "SSD1306oLED.c"
  4626 ;; Parameters:    Size  Location     Type
  4627 ;;  page            1    wreg     unsigned char 
  4628 ;; Auto vars:     Size  Location     Type
  4629 ;;  page            1   12[COMRAM] unsigned char 
  4630 ;;  index           1   13[COMRAM] unsigned char 
  4631 ;; Return value:  Size  Location     Type
  4632 ;;                  1    wreg      void 
  4633 ;; Registers used:
  4634 ;;		wreg, status,2, status,0, tblptrl, tblptrh, tblptru, prodl, prodh, cstack
  4635 ;; Tracked objects:
  4636 ;;		On entry : 0/0
  4637 ;;		On exit  : 0/0
  4638 ;;		Unchanged: 0/0
  4639 ;; Data sizes:     COMRAM   BANK0   BANK1   BANK2   BANK3   BANK4   BANK5   BANK6   BANK7
  4640 ;;      Params:         0       0       0       0       0       0       0       0       0
  4641 ;;      Locals:         2       0       0       0       0       0       0       0       0
  4642 ;;      Temps:          0       0       0       0       0       0       0       0       0
  4643 ;;      Totals:         2       0       0       0       0       0       0       0       0
  4644 ;;Total ram usage:        2 bytes
  4645 ;; Hardware stack levels used:    1
  4646 ;; Hardware stack levels required when called:    3
  4647 ;; This function calls:
  4648 ;;		_oled_putChar
  4649 ;; This function is called by:
  4650 ;;		_oled_clear
  4651 ;; This function uses a non-reentrant model
  4652 ;;
  4653                           
  4654                           	psect	text18
  4655  006D1A                     __ptext18:
  4656                           	callstack 0
  4657  006D1A                     _oled_clearRow:
  4658                           	callstack 25
  4659                           
  4660                           ;incstack = 0
  4661                           ;oled_clearRow@page stored from wreg
  4662  006D1A  6E0D               	movwf	oled_clearRow@page^0,c
  4663  006D1C                     
  4664                           ;SSD1306oLED.c: 356: void oled_clearRow(uint8_t page);SSD1306oLED.c: 357: {;SSD1306oLED.
      +                          c: 358:     uint8_t index;;SSD1306oLED.c: 360:     for(index = 0; index < 16; index++)
  4665  006D1C  0E00               	movlw	0
  4666  006D1E  6E0E               	movwf	oled_clearRow@index^0,c
  4667  006D20                     l1800:
  4668                           
  4669                           ;SSD1306oLED.c: 361:     {;SSD1306oLED.c: 362:       oled_putChar( ' ', index, page);
  4670  006D20  C00E  F003         	movff	oled_clearRow@index,oled_putChar@station_dot
  4671  006D24  C00D  F004         	movff	oled_clearRow@page,oled_putChar@start_page
  4672  006D28  0E20               	movlw	32
  4673  006D2A  ECB6  F037         	call	_oled_putChar
  4674  006D2E                     
  4675                           ;SSD1306oLED.c: 363:     }
  4676  006D2E  2A0E               	incf	oled_clearRow@index^0,f,c
  4677  006D30  0E0F               	movlw	15
  4678  006D32  640E               	cpfsgt	oled_clearRow@index^0,c
  4679  006D34  EF9E  F036         	goto	u421
  4680  006D38  EFA0  F036         	goto	u420
  4681  006D3C                     u421:
  4682  006D3C  EF90  F036         	goto	l1800
  4683  006D40                     u420:
  4684  006D40  0012               	return		;funcret
  4685  006D42                     __end_of_oled_clearRow:
  4686                           	callstack 0
  4687                           
  4688 ;; *************** function _oled_putChar *****************
  4689 ;; Defined at:
  4690 ;;		line 318 in file "SSD1306oLED.c"
  4691 ;; Parameters:    Size  Location     Type
  4692 ;;  k               1    wreg     unsigned char 
  4693 ;;  station_dot     1    2[COMRAM] unsigned char 
  4694 ;;  start_page      1    3[COMRAM] unsigned char 
  4695 ;; Auto vars:     Size  Location     Type
  4696 ;;  k               1   10[COMRAM] unsigned char 
  4697 ;;  index           1   11[COMRAM] unsigned char 
  4698 ;; Return value:  Size  Location     Type
  4699 ;;                  1    wreg      void 
  4700 ;; Registers used:
  4701 ;;		wreg, status,2, status,0, tblptrl, tblptrh, tblptru, prodl, prodh, cstack
  4702 ;; Tracked objects:
  4703 ;;		On entry : 0/0
  4704 ;;		On exit  : 0/0
  4705 ;;		Unchanged: 0/0
  4706 ;; Data sizes:     COMRAM   BANK0   BANK1   BANK2   BANK3   BANK4   BANK5   BANK6   BANK7
  4707 ;;      Params:         2       0       0       0       0       0       0       0       0
  4708 ;;      Locals:         2       0       0       0       0       0       0       0       0
  4709 ;;      Temps:          6       0       0       0       0       0       0       0       0
  4710 ;;      Totals:        10       0       0       0       0       0       0       0       0
  4711 ;;Total ram usage:       10 bytes
  4712 ;; Hardware stack levels used:    1
  4713 ;; Hardware stack levels required when called:    2
  4714 ;; This function calls:
  4715 ;;		_Set_Column_Address
  4716 ;;		_Set_Page_Address
  4717 ;;		_oled_writeData
  4718 ;; This function is called by:
  4719 ;;		_Opening
  4720 ;;		_oled_putString
  4721 ;;		_oled_clearRow
  4722 ;; This function uses a non-reentrant model
  4723 ;;
  4724                           
  4725                           	psect	text19
  4726  006F6C                     __ptext19:
  4727                           	callstack 0
  4728  006F6C                     _oled_putChar:
  4729                           	callstack 27
  4730                           
  4731                           ;incstack = 0
  4732                           ;oled_putChar@k stored from wreg
  4733  006F6C  6E0B               	movwf	oled_putChar@k^0,c
  4734  006F6E                     
  4735                           ;SSD1306oLED.c: 318: void oled_putChar(char k,uint8_t station_dot, uint8_t start_page);S
      +                          SD1306oLED.c: 319: {;SSD1306oLED.c: 320:     uint8_t index;;SSD1306oLED.c: 322:     Set_
      +                          Page_Address(start_page);
  4736  006F6E  5004               	movf	oled_putChar@start_page^0,w,c
  4737  006F70  EC1E  F036         	call	_Set_Page_Address
  4738  006F74                     
  4739                           ;SSD1306oLED.c: 323:     Set_Column_Address(0x00 + station_dot * 8 + 4);
  4740  006F74  5003               	movf	oled_putChar@station_dot^0,w,c
  4741  006F76  0D08               	mullw	8
  4742  006F78  50F3               	movf	243,w,c
  4743  006F7A  0F04               	addlw	4
  4744  006F7C  EC4C  F036         	call	_Set_Column_Address
  4745  006F80                     
  4746                           ;SSD1306oLED.c: 325:     for(index = 0; index < 8; index++)
  4747  006F80  0E00               	movlw	0
  4748  006F82  6E0C               	movwf	oled_putChar@index^0,c
  4749  006F84                     l1788:
  4750                           
  4751                           ;SSD1306oLED.c: 326:     {;SSD1306oLED.c: 327:         oled_writeData(*(selectedFont + 8
      +                           * (k - 0x20) + index));
  4752  006F84  0E00               	movlw	0
  4753  006F86  6E05               	movwf	??_oled_putChar^0,c
  4754  006F88  0EFF               	movlw	255
  4755  006F8A  6E06               	movwf	(??_oled_putChar+1)^0,c
  4756  006F8C  500B               	movf	oled_putChar@k^0,w,c
  4757  006F8E  6E07               	movwf	(??_oled_putChar+2)^0,c
  4758  006F90  6A08               	clrf	(??_oled_putChar+3)^0,c
  4759  006F92  90D8               	bcf	status,0,c
  4760  006F94  3607               	rlcf	(??_oled_putChar+2)^0,f,c
  4761  006F96  3608               	rlcf	(??_oled_putChar+3)^0,f,c
  4762  006F98  90D8               	bcf	status,0,c
  4763  006F9A  3607               	rlcf	(??_oled_putChar+2)^0,f,c
  4764  006F9C  3608               	rlcf	(??_oled_putChar+3)^0,f,c
  4765  006F9E  90D8               	bcf	status,0,c
  4766  006FA0  3607               	rlcf	(??_oled_putChar+2)^0,f,c
  4767  006FA2  3608               	rlcf	(??_oled_putChar+3)^0,f,c
  4768  006FA4  C057  F009         	movff	_selectedFont,??_oled_putChar+4
  4769  006FA8  C058  F00A         	movff	_selectedFont+1,??_oled_putChar+5
  4770  006FAC  5007               	movf	(??_oled_putChar+2)^0,w,c
  4771  006FAE  2609               	addwf	(??_oled_putChar+4)^0,f,c
  4772  006FB0  5008               	movf	(??_oled_putChar+3)^0,w,c
  4773  006FB2  220A               	addwfc	(??_oled_putChar+5)^0,f,c
  4774  006FB4  500C               	movf	oled_putChar@index^0,w,c
  4775  006FB6  2609               	addwf	(??_oled_putChar+4)^0,f,c
  4776  006FB8  0E00               	movlw	0
  4777  006FBA  220A               	addwfc	(??_oled_putChar+5)^0,f,c
  4778  006FBC  5005               	movf	??_oled_putChar^0,w,c
  4779  006FBE  2609               	addwf	(??_oled_putChar+4)^0,f,c
  4780  006FC0  5006               	movf	(??_oled_putChar+1)^0,w,c
  4781  006FC2  220A               	addwfc	(??_oled_putChar+5)^0,f,c
  4782  006FC4  C009  FFF6         	movff	??_oled_putChar+4,tblptrl
  4783  006FC8  C00A  FFF7         	movff	??_oled_putChar+5,tblptrh
  4784  006FCC                     	if	0	;tblptru may be non-zero
  4785  006FCC                     	endif
  4786  006FCC                     	if	0	;tblptru may be non-zero
  4787  006FCC                     	endif
  4788  006FCC  0008               	tblrd		*
  4789  006FCE  50F5               	movf	tablat,w,c
  4790  006FD0  EC42  F036         	call	_oled_writeData
  4791  006FD4                     
  4792                           ;SSD1306oLED.c: 328:     }
  4793  006FD4  2A0C               	incf	oled_putChar@index^0,f,c
  4794  006FD6  0E07               	movlw	7
  4795  006FD8  640C               	cpfsgt	oled_putChar@index^0,c
  4796  006FDA  EFF1  F037         	goto	u411
  4797  006FDE  EFF3  F037         	goto	u410
  4798  006FE2                     u411:
  4799  006FE2  EFC2  F037         	goto	l1788
  4800  006FE6                     u410:
  4801  006FE6  0012               	return		;funcret
  4802  006FE8                     __end_of_oled_putChar:
  4803                           	callstack 0
  4804                           
  4805 ;; *************** function _oled_writeData *****************
  4806 ;; Defined at:
  4807 ;;		line 442 in file "SSD1306oLED.c"
  4808 ;; Parameters:    Size  Location     Type
  4809 ;;  data            1    wreg     unsigned char 
  4810 ;; Auto vars:     Size  Location     Type
  4811 ;;  data            1    0[COMRAM] unsigned char 
  4812 ;; Return value:  Size  Location     Type
  4813 ;;                  1    wreg      void 
  4814 ;; Registers used:
  4815 ;;		wreg
  4816 ;; Tracked objects:
  4817 ;;		On entry : 0/0
  4818 ;;		On exit  : 0/0
  4819 ;;		Unchanged: 0/0
  4820 ;; Data sizes:     COMRAM   BANK0   BANK1   BANK2   BANK3   BANK4   BANK5   BANK6   BANK7
  4821 ;;      Params:         0       0       0       0       0       0       0       0       0
  4822 ;;      Locals:         1       0       0       0       0       0       0       0       0
  4823 ;;      Temps:          0       0       0       0       0       0       0       0       0
  4824 ;;      Totals:         1       0       0       0       0       0       0       0       0
  4825 ;;Total ram usage:        1 bytes
  4826 ;; Hardware stack levels used:    1
  4827 ;; This function calls:
  4828 ;;		Nothing
  4829 ;; This function is called by:
  4830 ;;		_oled_putChar
  4831 ;; This function uses a non-reentrant model
  4832 ;;
  4833                           
  4834                           	psect	text20
  4835  006C84                     __ptext20:
  4836                           	callstack 0
  4837  006C84                     _oled_writeData:
  4838                           	callstack 28
  4839                           
  4840                           ;incstack = 0
  4841                           ;oled_writeData@data stored from wreg
  4842  006C84  6E01               	movwf	oled_writeData@data^0,c
  4843  006C86                     
  4844                           ;SSD1306oLED.c: 442: void oled_writeData(uint8_t data);SSD1306oLED.c: 443: {;SSD1306oLED
      +                          .c: 444:     LATBbits.LATB4=0;
  4845  006C86  988A               	bcf	138,4,c	;volatile
  4846                           
  4847                           ;SSD1306oLED.c: 445:     LATCbits.LATC0=1;
  4848  006C88  808B               	bsf	139,0,c	;volatile
  4849  006C8A                     
  4850                           ;SSD1306oLED.c: 446:     LATD=data;
  4851  006C8A  C001  FF8C         	movff	oled_writeData@data,3980	;volatile
  4852  006C8E                     
  4853                           ;SSD1306oLED.c: 447:     LATCbits.LATC1=0;
  4854  006C8E  928B               	bcf	139,1,c	;volatile
  4855  006C90                     
  4856                           ;SSD1306oLED.c: 448:     __nop();
  4857  006C90  F000               	nop	
  4858  006C92                     
  4859                           ;SSD1306oLED.c: 449:     LATCbits.LATC1=1;
  4860  006C92  828B               	bsf	139,1,c	;volatile
  4861  006C94                     
  4862                           ;SSD1306oLED.c: 450:     LATBbits.LATB4=1;
  4863  006C94  888A               	bsf	138,4,c	;volatile
  4864  006C96  0012               	return		;funcret
  4865  006C98                     __end_of_oled_writeData:
  4866                           	callstack 0
  4867                           
  4868 ;; *************** function _Set_Page_Address *****************
  4869 ;; Defined at:
  4870 ;;		line 241 in file "SSD1306oLED.c"
  4871 ;; Parameters:    Size  Location     Type
  4872 ;;  address         1    wreg     unsigned char 
  4873 ;; Auto vars:     Size  Location     Type
  4874 ;;  address         1    1[COMRAM] unsigned char 
  4875 ;; Return value:  Size  Location     Type
  4876 ;;                  1    wreg      void 
  4877 ;; Registers used:
  4878 ;;		wreg, status,2, status,0, cstack
  4879 ;; Tracked objects:
  4880 ;;		On entry : 0/0
  4881 ;;		On exit  : 0/0
  4882 ;;		Unchanged: 0/0
  4883 ;; Data sizes:     COMRAM   BANK0   BANK1   BANK2   BANK3   BANK4   BANK5   BANK6   BANK7
  4884 ;;      Params:         0       0       0       0       0       0       0       0       0
  4885 ;;      Locals:         1       0       0       0       0       0       0       0       0
  4886 ;;      Temps:          0       0       0       0       0       0       0       0       0
  4887 ;;      Totals:         1       0       0       0       0       0       0       0       0
  4888 ;;Total ram usage:        1 bytes
  4889 ;; Hardware stack levels used:    1
  4890 ;; Hardware stack levels required when called:    1
  4891 ;; This function calls:
  4892 ;;		_oled_writeCommand
  4893 ;; This function is called by:
  4894 ;;		_oled_putChar
  4895 ;; This function uses a non-reentrant model
  4896 ;;
  4897                           
  4898                           	psect	text21
  4899  006C3C                     __ptext21:
  4900                           	callstack 0
  4901  006C3C                     _Set_Page_Address:
  4902                           	callstack 27
  4903                           
  4904                           ;incstack = 0
  4905                           ;Set_Page_Address@address stored from wreg
  4906  006C3C  6E02               	movwf	Set_Page_Address@address^0,c
  4907  006C3E                     
  4908                           ;SSD1306oLED.c: 241: void Set_Page_Address(uint8_t address);SSD1306oLED.c: 242: {;SSD130
      +                          6oLED.c: 243:     address = 0xb0 | address;
  4909  006C3E  5002               	movf	Set_Page_Address@address^0,w,c
  4910  006C40  09B0               	iorlw	176
  4911  006C42  6E02               	movwf	Set_Page_Address@address^0,c
  4912  006C44                     
  4913                           ;SSD1306oLED.c: 244:     oled_writeCommand(address);
  4914  006C44  5002               	movf	Set_Page_Address@address^0,w,c
  4915  006C46  EC38  F036         	call	_oled_writeCommand
  4916  006C4A  0012               	return		;funcret
  4917  006C4C                     __end_of_Set_Page_Address:
  4918                           	callstack 0
  4919                           
  4920 ;; *************** function _Set_Column_Address *****************
  4921 ;; Defined at:
  4922 ;;		line 249 in file "SSD1306oLED.c"
  4923 ;; Parameters:    Size  Location     Type
  4924 ;;  address         1    wreg     unsigned char 
  4925 ;; Auto vars:     Size  Location     Type
  4926 ;;  address         1    1[COMRAM] unsigned char 
  4927 ;; Return value:  Size  Location     Type
  4928 ;;                  1    wreg      void 
  4929 ;; Registers used:
  4930 ;;		wreg, status,2, status,0, cstack
  4931 ;; Tracked objects:
  4932 ;;		On entry : 0/0
  4933 ;;		On exit  : 0/0
  4934 ;;		Unchanged: 0/0
  4935 ;; Data sizes:     COMRAM   BANK0   BANK1   BANK2   BANK3   BANK4   BANK5   BANK6   BANK7
  4936 ;;      Params:         0       0       0       0       0       0       0       0       0
  4937 ;;      Locals:         1       0       0       0       0       0       0       0       0
  4938 ;;      Temps:          0       0       0       0       0       0       0       0       0
  4939 ;;      Totals:         1       0       0       0       0       0       0       0       0
  4940 ;;Total ram usage:        1 bytes
  4941 ;; Hardware stack levels used:    1
  4942 ;; Hardware stack levels required when called:    1
  4943 ;; This function calls:
  4944 ;;		_oled_writeCommand
  4945 ;; This function is called by:
  4946 ;;		_oled_putChar
  4947 ;; This function uses a non-reentrant model
  4948 ;;
  4949                           
  4950                           	psect	text22
  4951  006C98                     __ptext22:
  4952                           	callstack 0
  4953  006C98                     _Set_Column_Address:
  4954                           	callstack 27
  4955                           
  4956                           ;incstack = 0
  4957                           ;Set_Column_Address@address stored from wreg
  4958  006C98  6E02               	movwf	Set_Column_Address@address^0,c
  4959  006C9A                     
  4960                           ;SSD1306oLED.c: 249: void Set_Column_Address(uint8_t address);SSD1306oLED.c: 250: {;SSD1
      +                          306oLED.c: 251:     oled_writeCommand((0x10|(address>>4)));
  4961  006C9A  3802               	swapf	Set_Column_Address@address^0,w,c
  4962  006C9C  0B0F               	andlw	15
  4963  006C9E  0910               	iorlw	16
  4964  006CA0  EC38  F036         	call	_oled_writeCommand
  4965                           
  4966                           ;SSD1306oLED.c: 252:     oled_writeCommand((0x0f&address));
  4967  006CA4  5002               	movf	Set_Column_Address@address^0,w,c
  4968  006CA6  0B0F               	andlw	15
  4969  006CA8  EC38  F036         	call	_oled_writeCommand
  4970  006CAC  0012               	return		;funcret
  4971  006CAE                     __end_of_Set_Column_Address:
  4972                           	callstack 0
  4973                           
  4974 ;; *************** function _oled_writeCommand *****************
  4975 ;; Defined at:
  4976 ;;		line 430 in file "SSD1306oLED.c"
  4977 ;; Parameters:    Size  Location     Type
  4978 ;;  command         1    wreg     unsigned char 
  4979 ;; Auto vars:     Size  Location     Type
  4980 ;;  command         1    0[COMRAM] unsigned char 
  4981 ;; Return value:  Size  Location     Type
  4982 ;;                  1    wreg      void 
  4983 ;; Registers used:
  4984 ;;		wreg
  4985 ;; Tracked objects:
  4986 ;;		On entry : 0/0
  4987 ;;		On exit  : 0/0
  4988 ;;		Unchanged: 0/0
  4989 ;; Data sizes:     COMRAM   BANK0   BANK1   BANK2   BANK3   BANK4   BANK5   BANK6   BANK7
  4990 ;;      Params:         0       0       0       0       0       0       0       0       0
  4991 ;;      Locals:         1       0       0       0       0       0       0       0       0
  4992 ;;      Temps:          0       0       0       0       0       0       0       0       0
  4993 ;;      Totals:         1       0       0       0       0       0       0       0       0
  4994 ;;Total ram usage:        1 bytes
  4995 ;; Hardware stack levels used:    1
  4996 ;; This function calls:
  4997 ;;		Nothing
  4998 ;; This function is called by:
  4999 ;;		_Set_Page_Address
  5000 ;;		_Set_Column_Address
  5001 ;;		_oled_devInit
  5002 ;;		_oled_setDisplay
  5003 ;;		_oled_setContrastControlRegister
  5004 ;;		_oled_initialDispayLine
  5005 ;;		_oled_powerControl
  5006 ;;		_oled_regulorResistorSelect
  5007 ;;		_oled_displayOff
  5008 ;; This function uses a non-reentrant model
  5009 ;;
  5010                           
  5011                           	psect	text23
  5012  006C70                     __ptext23:
  5013                           	callstack 0
  5014  006C70                     _oled_writeCommand:
  5015                           	callstack 27
  5016                           
  5017                           ;incstack = 0
  5018                           ;oled_writeCommand@command stored from wreg
  5019  006C70  6E01               	movwf	oled_writeCommand@command^0,c
  5020  006C72                     
  5021                           ;SSD1306oLED.c: 430: void oled_writeCommand(uint8_t command);SSD1306oLED.c: 431: {;SSD13
      +                          06oLED.c: 432:     LATBbits.LATB4=0;
  5022  006C72  988A               	bcf	138,4,c	;volatile
  5023                           
  5024                           ;SSD1306oLED.c: 433:     LATCbits.LATC0=0;
  5025  006C74  908B               	bcf	139,0,c	;volatile
  5026  006C76                     
  5027                           ;SSD1306oLED.c: 434:     LATD=command;
  5028  006C76  C001  FF8C         	movff	oled_writeCommand@command,3980	;volatile
  5029  006C7A                     
  5030                           ;SSD1306oLED.c: 435:     LATCbits.LATC1=0;
  5031  006C7A  928B               	bcf	139,1,c	;volatile
  5032  006C7C                     
  5033                           ;SSD1306oLED.c: 436:     __nop();
  5034  006C7C  F000               	nop	
  5035  006C7E                     
  5036                           ;SSD1306oLED.c: 437:     LATCbits.LATC1=1;
  5037  006C7E  828B               	bsf	139,1,c	;volatile
  5038  006C80                     
  5039                           ;SSD1306oLED.c: 438:     LATBbits.LATB4=1;
  5040  006C80  888A               	bsf	138,4,c	;volatile
  5041  006C82  0012               	return		;funcret
  5042  006C84                     __end_of_oled_writeCommand:
  5043                           	callstack 0
  5044                           
  5045 ;; *************** function _delayms *****************
  5046 ;; Defined at:
  5047 ;;		line 23 in file "main.c"
  5048 ;; Parameters:    Size  Location     Type
  5049 ;;  length          2    0[COMRAM] unsigned short 
  5050 ;; Auto vars:     Size  Location     Type
  5051 ;;  counter         2    3[COMRAM] unsigned short 
  5052 ;; Return value:  Size  Location     Type
  5053 ;;                  1    wreg      void 
  5054 ;; Registers used:
  5055 ;;		wreg, status,2, status,0
  5056 ;; Tracked objects:
  5057 ;;		On entry : 0/0
  5058 ;;		On exit  : 0/0
  5059 ;;		Unchanged: 0/0
  5060 ;; Data sizes:     COMRAM   BANK0   BANK1   BANK2   BANK3   BANK4   BANK5   BANK6   BANK7
  5061 ;;      Params:         2       0       0       0       0       0       0       0       0
  5062 ;;      Locals:         2       0       0       0       0       0       0       0       0
  5063 ;;      Temps:          1       0       0       0       0       0       0       0       0
  5064 ;;      Totals:         5       0       0       0       0       0       0       0       0
  5065 ;;Total ram usage:        5 bytes
  5066 ;; Hardware stack levels used:    1
  5067 ;; This function calls:
  5068 ;;		Nothing
  5069 ;; This function is called by:
  5070 ;;		_main
  5071 ;;		_test_leds
  5072 ;; This function uses a non-reentrant model
  5073 ;;
  5074                           
  5075                           	psect	text24
  5076  006E40                     __ptext24:
  5077                           	callstack 0
  5078  006E40                     _delayms:
  5079                           	callstack 30
  5080  006E40                     
  5081                           ;main.c: 23: void delayms(uint16_t length);main.c: 24: {;main.c: 25:     uint16_t counte
      +                          r;;main.c: 26:     for(counter = 0; counter < length; counter++)
  5082  006E40  0E00               	movlw	0
  5083  006E42  6E05               	movwf	(delayms@counter+1)^0,c
  5084  006E44  0E00               	movlw	0
  5085  006E46  6E04               	movwf	delayms@counter^0,c
  5086  006E48  EF30  F037         	goto	l192
  5087  006E4C                     l1932:
  5088                           
  5089                           ;main.c: 27:     {;main.c: 28:         _delay((unsigned long)((1)*(48000000/4000.0)));
  5090  006E4C  0E10               	movlw	16
  5091  006E4E  6E03               	movwf	??_delayms^0,c
  5092  006E50  0E94               	movlw	148
  5093  006E52                     u897:
  5094  006E52  2EE8               	decfsz	wreg,f,c
  5095  006E54  D7FE               	bra	u897
  5096  006E56  2E03               	decfsz	??_delayms^0,f,c
  5097  006E58  D7FC               	bra	u897
  5098  006E5A  D000               	nop2	
  5099  006E5C                     
  5100                           ;main.c: 29:     }
  5101  006E5C  4A04               	infsnz	delayms@counter^0,f,c
  5102  006E5E  2A05               	incf	(delayms@counter+1)^0,f,c
  5103  006E60                     l192:
  5104  006E60  5001               	movf	delayms@length^0,w,c
  5105  006E62  5C04               	subwf	delayms@counter^0,w,c
  5106  006E64  5002               	movf	(delayms@length+1)^0,w,c
  5107  006E66  5805               	subwfb	(delayms@counter+1)^0,w,c
  5108  006E68  A0D8               	btfss	status,0,c
  5109  006E6A  EF39  F037         	goto	u581
  5110  006E6E  EF3B  F037         	goto	u580
  5111  006E72                     u581:
  5112  006E72  EF26  F037         	goto	l1932
  5113  006E76                     u580:
  5114  006E76  0012               	return		;funcret
  5115  006E78                     __end_of_delayms:
  5116                           	callstack 0
  5117                           
  5118 ;; *************** function _SYSTEM_Initialize *****************
  5119 ;; Defined at:
  5120 ;;		line 50 in file "mcc_generated_files/mcc.c"
  5121 ;; Parameters:    Size  Location     Type
  5122 ;;		None
  5123 ;; Auto vars:     Size  Location     Type
  5124 ;;		None
  5125 ;; Return value:  Size  Location     Type
  5126 ;;                  1    wreg      void 
  5127 ;; Registers used:
  5128 ;;		wreg, status,2, status,0, cstack
  5129 ;; Tracked objects:
  5130 ;;		On entry : 0/0
  5131 ;;		On exit  : 0/0
  5132 ;;		Unchanged: 0/0
  5133 ;; Data sizes:     COMRAM   BANK0   BANK1   BANK2   BANK3   BANK4   BANK5   BANK6   BANK7
  5134 ;;      Params:         0       0       0       0       0       0       0       0       0
  5135 ;;      Locals:         0       0       0       0       0       0       0       0       0
  5136 ;;      Temps:          0       0       0       0       0       0       0       0       0
  5137 ;;      Totals:         0       0       0       0       0       0       0       0       0
  5138 ;;Total ram usage:        0 bytes
  5139 ;; Hardware stack levels used:    1
  5140 ;; Hardware stack levels required when called:    2
  5141 ;; This function calls:
  5142 ;;		_EUSART1_Initialize
  5143 ;;		_OSCILLATOR_Initialize
  5144 ;;		_PIN_MANAGER_Initialize
  5145 ;; This function is called by:
  5146 ;;		_main
  5147 ;; This function uses a non-reentrant model
  5148 ;;
  5149                           
  5150                           	psect	text25
  5151  006C20                     __ptext25:
  5152                           	callstack 0
  5153  006C20                     _SYSTEM_Initialize:
  5154                           	callstack 28
  5155  006C20                     
  5156                           ;mcc_generated_files/mcc.c: 53:     PIN_MANAGER_Initialize();
  5157  006C20  EC5B  F037         	call	_PIN_MANAGER_Initialize	;wreg free
  5158                           
  5159                           ;mcc_generated_files/mcc.c: 54:     OSCILLATOR_Initialize();
  5160  006C24  EC7D  F036         	call	_OSCILLATOR_Initialize	;wreg free
  5161  006C28                     
  5162                           ;mcc_generated_files/mcc.c: 55:     EUSART1_Initialize();
  5163  006C28  EC3C  F037         	call	_EUSART1_Initialize	;wreg free
  5164  006C2C  0012               	return		;funcret
  5165  006C2E                     __end_of_SYSTEM_Initialize:
  5166                           	callstack 0
  5167                           
  5168 ;; *************** function _PIN_MANAGER_Initialize *****************
  5169 ;; Defined at:
  5170 ;;		line 55 in file "mcc_generated_files/pin_manager.c"
  5171 ;; Parameters:    Size  Location     Type
  5172 ;;		None
  5173 ;; Auto vars:     Size  Location     Type
  5174 ;;		None
  5175 ;; Return value:  Size  Location     Type
  5176 ;;                  1    wreg      void 
  5177 ;; Registers used:
  5178 ;;		wreg, status,2
  5179 ;; Tracked objects:
  5180 ;;		On entry : 0/0
  5181 ;;		On exit  : 0/0
  5182 ;;		Unchanged: 0/0
  5183 ;; Data sizes:     COMRAM   BANK0   BANK1   BANK2   BANK3   BANK4   BANK5   BANK6   BANK7
  5184 ;;      Params:         0       0       0       0       0       0       0       0       0
  5185 ;;      Locals:         0       0       0       0       0       0       0       0       0
  5186 ;;      Temps:          0       0       0       0       0       0       0       0       0
  5187 ;;      Totals:         0       0       0       0       0       0       0       0       0
  5188 ;;Total ram usage:        0 bytes
  5189 ;; Hardware stack levels used:    1
  5190 ;; This function calls:
  5191 ;;		Nothing
  5192 ;; This function is called by:
  5193 ;;		_SYSTEM_Initialize
  5194 ;; This function uses a non-reentrant model
  5195 ;;
  5196                           
  5197                           	psect	text26
  5198  006EB6                     __ptext26:
  5199                           	callstack 0
  5200  006EB6                     _PIN_MANAGER_Initialize:
  5201                           	callstack 29
  5202  006EB6                     
  5203                           ;mcc_generated_files/pin_manager.c: 60:     LATE = 0x00;
  5204  006EB6  0E00               	movlw	0
  5205  006EB8  6E8D               	movwf	141,c	;volatile
  5206                           
  5207                           ;mcc_generated_files/pin_manager.c: 61:     LATD = 0x00;
  5208  006EBA  0E00               	movlw	0
  5209  006EBC  6E8C               	movwf	140,c	;volatile
  5210                           
  5211                           ;mcc_generated_files/pin_manager.c: 62:     LATA = 0x00;
  5212  006EBE  0E00               	movlw	0
  5213  006EC0  6E89               	movwf	137,c	;volatile
  5214                           
  5215                           ;mcc_generated_files/pin_manager.c: 63:     LATB = 0x00;
  5216  006EC2  0E00               	movlw	0
  5217  006EC4  6E8A               	movwf	138,c	;volatile
  5218                           
  5219                           ;mcc_generated_files/pin_manager.c: 64:     LATC = 0x00;
  5220  006EC6  0E00               	movlw	0
  5221  006EC8  6E8B               	movwf	139,c	;volatile
  5222                           
  5223                           ;mcc_generated_files/pin_manager.c: 69:     TRISE = 0x07;
  5224  006ECA  0E07               	movlw	7
  5225  006ECC  6E96               	movwf	150,c	;volatile
  5226  006ECE                     
  5227                           ;mcc_generated_files/pin_manager.c: 70:     TRISA = 0xFF;
  5228  006ECE  6892               	setf	146,c	;volatile
  5229  006ED0                     
  5230                           ;mcc_generated_files/pin_manager.c: 71:     TRISB = 0xFF;
  5231  006ED0  6893               	setf	147,c	;volatile
  5232                           
  5233                           ;mcc_generated_files/pin_manager.c: 72:     TRISC = 0x87;
  5234  006ED2  0E87               	movlw	135
  5235  006ED4  6E94               	movwf	148,c	;volatile
  5236  006ED6                     
  5237                           ;mcc_generated_files/pin_manager.c: 73:     TRISD = 0xFF;
  5238  006ED6  6895               	setf	149,c	;volatile
  5239  006ED8                     
  5240                           ;mcc_generated_files/pin_manager.c: 78:     ANSELD = 0xFF;
  5241  006ED8  010F               	movlb	15	; () banked
  5242  006EDA  695E               	setf	94,b	;volatile
  5243                           
  5244                           ;mcc_generated_files/pin_manager.c: 79:     ANSELC = 0x04;
  5245  006EDC  0E04               	movlw	4
  5246  006EDE  6F5D               	movwf	93,b	;volatile
  5247                           
  5248                           ;mcc_generated_files/pin_manager.c: 80:     ANSELB = 0x3F;
  5249  006EE0  0E3F               	movlw	63
  5250  006EE2  6F5C               	movwf	92,b	;volatile
  5251                           
  5252                           ;mcc_generated_files/pin_manager.c: 81:     ANSELE = 0x07;
  5253  006EE4  0E07               	movlw	7
  5254  006EE6  6F5F               	movwf	95,b	;volatile
  5255                           
  5256                           ;mcc_generated_files/pin_manager.c: 82:     ANSELA = 0x2F;
  5257  006EE8  0E2F               	movlw	47
  5258  006EEA  6F5B               	movwf	91,b	;volatile
  5259                           
  5260                           ;mcc_generated_files/pin_manager.c: 87:     WPUB = 0x00;
  5261  006EEC  0E00               	movlw	0
  5262  006EEE  6E85               	movwf	133,c	;volatile
  5263  006EF0                     
  5264                           ; BSR set to: 15
  5265                           ;mcc_generated_files/pin_manager.c: 88:     INTCON2bits.nRBPU = 1;
  5266  006EF0  8EF1               	bsf	241,7,c	;volatile
  5267  006EF2                     
  5268                           ; BSR set to: 15
  5269  006EF2  0012               	return		;funcret
  5270  006EF4                     __end_of_PIN_MANAGER_Initialize:
  5271                           	callstack 0
  5272                           
  5273 ;; *************** function _OSCILLATOR_Initialize *****************
  5274 ;; Defined at:
  5275 ;;		line 58 in file "mcc_generated_files/mcc.c"
  5276 ;; Parameters:    Size  Location     Type
  5277 ;;		None
  5278 ;; Auto vars:     Size  Location     Type
  5279 ;;		None
  5280 ;; Return value:  Size  Location     Type
  5281 ;;                  1    wreg      void 
  5282 ;; Registers used:
  5283 ;;		wreg, status,2
  5284 ;; Tracked objects:
  5285 ;;		On entry : 0/0
  5286 ;;		On exit  : 0/0
  5287 ;;		Unchanged: 0/0
  5288 ;; Data sizes:     COMRAM   BANK0   BANK1   BANK2   BANK3   BANK4   BANK5   BANK6   BANK7
  5289 ;;      Params:         0       0       0       0       0       0       0       0       0
  5290 ;;      Locals:         0       0       0       0       0       0       0       0       0
  5291 ;;      Temps:          0       0       0       0       0       0       0       0       0
  5292 ;;      Totals:         0       0       0       0       0       0       0       0       0
  5293 ;;Total ram usage:        0 bytes
  5294 ;; Hardware stack levels used:    1
  5295 ;; This function calls:
  5296 ;;		Nothing
  5297 ;; This function is called by:
  5298 ;;		_SYSTEM_Initialize
  5299 ;; This function uses a non-reentrant model
  5300 ;;
  5301                           
  5302                           	psect	text27
  5303  006CFA                     __ptext27:
  5304                           	callstack 0
  5305  006CFA                     _OSCILLATOR_Initialize:
  5306                           	callstack 29
  5307  006CFA                     
  5308                           ;mcc_generated_files/mcc.c: 61:     OSCCON = 0x70;
  5309  006CFA  0E70               	movlw	112
  5310  006CFC  6ED3               	movwf	211,c	;volatile
  5311                           
  5312                           ;mcc_generated_files/mcc.c: 63:     OSCCON2 = 0x00;
  5313  006CFE  0E00               	movlw	0
  5314  006D00  6ED2               	movwf	210,c	;volatile
  5315                           
  5316                           ;mcc_generated_files/mcc.c: 65:     OSCTUNE = 0x80;
  5317  006D02  0E80               	movlw	128
  5318  006D04  6E9B               	movwf	155,c	;volatile
  5319                           
  5320                           ;mcc_generated_files/mcc.c: 67:     ACTCON = 0x00;
  5321  006D06  0E00               	movlw	0
  5322  006D08  6EB5               	movwf	181,c	;volatile
  5323  006D0A                     l159:
  5324                           
  5325                           ;mcc_generated_files/mcc.c: 69:     while(PLLRDY == 0)
  5326  006D0A  AED2               	btfss	4050,7,c	;volatile
  5327  006D0C  EF8A  F036         	goto	u101
  5328  006D10  EF8C  F036         	goto	u100
  5329  006D14                     u101:
  5330  006D14  EF85  F036         	goto	l159
  5331  006D18                     u100:
  5332  006D18  0012               	return		;funcret
  5333  006D1A                     __end_of_OSCILLATOR_Initialize:
  5334                           	callstack 0
  5335                           
  5336 ;; *************** function _EUSART1_Initialize *****************
  5337 ;; Defined at:
  5338 ;;		line 66 in file "mcc_generated_files/eusart1.c"
  5339 ;; Parameters:    Size  Location     Type
  5340 ;;		None
  5341 ;; Auto vars:     Size  Location     Type
  5342 ;;		None
  5343 ;; Return value:  Size  Location     Type
  5344 ;;                  1    wreg      void 
  5345 ;; Registers used:
  5346 ;;		wreg, status,2, status,0, cstack
  5347 ;; Tracked objects:
  5348 ;;		On entry : 0/0
  5349 ;;		On exit  : 0/0
  5350 ;;		Unchanged: 0/0
  5351 ;; Data sizes:     COMRAM   BANK0   BANK1   BANK2   BANK3   BANK4   BANK5   BANK6   BANK7
  5352 ;;      Params:         0       0       0       0       0       0       0       0       0
  5353 ;;      Locals:         0       0       0       0       0       0       0       0       0
  5354 ;;      Temps:          0       0       0       0       0       0       0       0       0
  5355 ;;      Totals:         0       0       0       0       0       0       0       0       0
  5356 ;;Total ram usage:        0 bytes
  5357 ;; Hardware stack levels used:    1
  5358 ;; Hardware stack levels required when called:    1
  5359 ;; This function calls:
  5360 ;;		_EUSART1_SetErrorHandler
  5361 ;;		_EUSART1_SetFramingErrorHandler
  5362 ;;		_EUSART1_SetOverrunErrorHandler
  5363 ;; This function is called by:
  5364 ;;		_SYSTEM_Initialize
  5365 ;; This function uses a non-reentrant model
  5366 ;;
  5367                           
  5368                           	psect	text28
  5369  006E78                     __ptext28:
  5370                           	callstack 0
  5371  006E78                     _EUSART1_Initialize:
  5372                           	callstack 28
  5373  006E78                     
  5374                           ;mcc_generated_files/eusart1.c: 71:     BAUDCON1 = 0x08;
  5375  006E78  0E08               	movlw	8
  5376  006E7A  6EB8               	movwf	184,c	;volatile
  5377                           
  5378                           ;mcc_generated_files/eusart1.c: 74:     RCSTA1 = 0x90;
  5379  006E7C  0E90               	movlw	144
  5380  006E7E  6EAB               	movwf	171,c	;volatile
  5381                           
  5382                           ;mcc_generated_files/eusart1.c: 77:     TXSTA1 = 0x24;
  5383  006E80  0E24               	movlw	36
  5384  006E82  6EAC               	movwf	172,c	;volatile
  5385                           
  5386                           ;mcc_generated_files/eusart1.c: 80:     SPBRG1 = 0xCF;
  5387  006E84  0ECF               	movlw	207
  5388  006E86  6EAF               	movwf	175,c	;volatile
  5389                           
  5390                           ;mcc_generated_files/eusart1.c: 83:     SPBRGH1 = 0x00;
  5391  006E88  0E00               	movlw	0
  5392  006E8A  6EB0               	movwf	176,c	;volatile
  5393  006E8C                     
  5394                           ;mcc_generated_files/eusart1.c: 86:     EUSART1_SetFramingErrorHandler(EUSART1_DefaultFr
      +                          amingErrorHandler);
  5395  006E8C  0E00               	movlw	0
  5396  006E8E  6E01               	movwf	EUSART1_SetFramingErrorHandler@interruptHandler^0,c
  5397  006E90  0E00               	movlw	0
  5398  006E92  6E02               	movwf	(EUSART1_SetFramingErrorHandler@interruptHandler+1)^0,c
  5399  006E94  ECF4  F035         	call	_EUSART1_SetFramingErrorHandler	;wreg free
  5400  006E98                     
  5401                           ;mcc_generated_files/eusart1.c: 87:     EUSART1_SetOverrunErrorHandler(EUSART1_DefaultOv
      +                          errunErrorHandler);
  5402  006E98  0E00               	movlw	0
  5403  006E9A  6E01               	movwf	EUSART1_SetOverrunErrorHandler@interruptHandler^0,c
  5404  006E9C  0E00               	movlw	0
  5405  006E9E  6E02               	movwf	(EUSART1_SetOverrunErrorHandler@interruptHandler+1)^0,c
  5406  006EA0  ECF9  F035         	call	_EUSART1_SetOverrunErrorHandler	;wreg free
  5407  006EA4                     
  5408                           ;mcc_generated_files/eusart1.c: 88:     EUSART1_SetErrorHandler(EUSART1_DefaultErrorHand
      +                          ler);
  5409  006EA4  0E00               	movlw	0
  5410  006EA6  6E01               	movwf	EUSART1_SetErrorHandler@interruptHandler^0,c
  5411  006EA8  0E00               	movlw	0
  5412  006EAA  6E02               	movwf	(EUSART1_SetErrorHandler@interruptHandler+1)^0,c
  5413  006EAC  ECEF  F035         	call	_EUSART1_SetErrorHandler	;wreg free
  5414  006EB0                     
  5415                           ;mcc_generated_files/eusart1.c: 90:     eusart1RxLastError.status = 0;
  5416  006EB0  0E00               	movlw	0
  5417  006EB2  6E36               	movwf	_eusart1RxLastError^0,c	;volatile
  5418  006EB4  0012               	return		;funcret
  5419  006EB6                     __end_of_EUSART1_Initialize:
  5420                           	callstack 0
  5421                           
  5422 ;; *************** function _EUSART1_SetOverrunErrorHandler *****************
  5423 ;; Defined at:
  5424 ;;		line 185 in file "mcc_generated_files/eusart1.c"
  5425 ;; Parameters:    Size  Location     Type
  5426 ;;  interruptHan    2    0[COMRAM] PTR FTN()void 
  5427 ;;		 -> EUSART1_DefaultOverrunErrorHandler(1), 
  5428 ;; Auto vars:     Size  Location     Type
  5429 ;;		None
  5430 ;; Return value:  Size  Location     Type
  5431 ;;                  1    wreg      void 
  5432 ;; Registers used:
  5433 ;;		wreg, status,2, status,0
  5434 ;; Tracked objects:
  5435 ;;		On entry : 0/0
  5436 ;;		On exit  : 0/0
  5437 ;;		Unchanged: 0/0
  5438 ;; Data sizes:     COMRAM   BANK0   BANK1   BANK2   BANK3   BANK4   BANK5   BANK6   BANK7
  5439 ;;      Params:         2       0       0       0       0       0       0       0       0
  5440 ;;      Locals:         0       0       0       0       0       0       0       0       0
  5441 ;;      Temps:          0       0       0       0       0       0       0       0       0
  5442 ;;      Totals:         2       0       0       0       0       0       0       0       0
  5443 ;;Total ram usage:        2 bytes
  5444 ;; Hardware stack levels used:    1
  5445 ;; This function calls:
  5446 ;;		Nothing
  5447 ;; This function is called by:
  5448 ;;		_EUSART1_Initialize
  5449 ;; This function uses a non-reentrant model
  5450 ;;
  5451                           
  5452                           	psect	text29
  5453  006BF2                     __ptext29:
  5454                           	callstack 0
  5455  006BF2                     _EUSART1_SetOverrunErrorHandler:
  5456                           	callstack 28
  5457  006BF2                     
  5458                           ;mcc_generated_files/eusart1.c: 186:     EUSART1_OverrunErrorHandler = interruptHandler;
  5459  006BF2  C001  F032         	movff	EUSART1_SetOverrunErrorHandler@interruptHandler,_EUSART1_OverrunErrorHandler
  5460  006BF6  C002  F033         	movff	EUSART1_SetOverrunErrorHandler@interruptHandler+1,_EUSART1_OverrunErrorHandler+1
  5461  006BFA  0012               	return		;funcret
  5462  006BFC                     __end_of_EUSART1_SetOverrunErrorHandler:
  5463                           	callstack 0
  5464                           
  5465 ;; *************** function _EUSART1_SetFramingErrorHandler *****************
  5466 ;; Defined at:
  5467 ;;		line 181 in file "mcc_generated_files/eusart1.c"
  5468 ;; Parameters:    Size  Location     Type
  5469 ;;  interruptHan    2    0[COMRAM] PTR FTN()void 
  5470 ;;		 -> EUSART1_DefaultFramingErrorHandler(1), 
  5471 ;; Auto vars:     Size  Location     Type
  5472 ;;		None
  5473 ;; Return value:  Size  Location     Type
  5474 ;;                  1    wreg      void 
  5475 ;; Registers used:
  5476 ;;		wreg, status,2, status,0
  5477 ;; Tracked objects:
  5478 ;;		On entry : 0/0
  5479 ;;		On exit  : 0/0
  5480 ;;		Unchanged: 0/0
  5481 ;; Data sizes:     COMRAM   BANK0   BANK1   BANK2   BANK3   BANK4   BANK5   BANK6   BANK7
  5482 ;;      Params:         2       0       0       0       0       0       0       0       0
  5483 ;;      Locals:         0       0       0       0       0       0       0       0       0
  5484 ;;      Temps:          0       0       0       0       0       0       0       0       0
  5485 ;;      Totals:         2       0       0       0       0       0       0       0       0
  5486 ;;Total ram usage:        2 bytes
  5487 ;; Hardware stack levels used:    1
  5488 ;; This function calls:
  5489 ;;		Nothing
  5490 ;; This function is called by:
  5491 ;;		_EUSART1_Initialize
  5492 ;; This function uses a non-reentrant model
  5493 ;;
  5494                           
  5495                           	psect	text30
  5496  006BE8                     __ptext30:
  5497                           	callstack 0
  5498  006BE8                     _EUSART1_SetFramingErrorHandler:
  5499                           	callstack 28
  5500  006BE8                     
  5501                           ;mcc_generated_files/eusart1.c: 182:     EUSART1_FramingErrorHandler = interruptHandler;
  5502  006BE8  C001  F034         	movff	EUSART1_SetFramingErrorHandler@interruptHandler,_EUSART1_FramingErrorHandler
  5503  006BEC  C002  F035         	movff	EUSART1_SetFramingErrorHandler@interruptHandler+1,_EUSART1_FramingErrorHandler+1
  5504  006BF0  0012               	return		;funcret
  5505  006BF2                     __end_of_EUSART1_SetFramingErrorHandler:
  5506                           	callstack 0
  5507                           
  5508 ;; *************** function _EUSART1_SetErrorHandler *****************
  5509 ;; Defined at:
  5510 ;;		line 189 in file "mcc_generated_files/eusart1.c"
  5511 ;; Parameters:    Size  Location     Type
  5512 ;;  interruptHan    2    0[COMRAM] PTR FTN()void 
  5513 ;;		 -> EUSART1_DefaultErrorHandler(1), 
  5514 ;; Auto vars:     Size  Location     Type
  5515 ;;		None
  5516 ;; Return value:  Size  Location     Type
  5517 ;;                  1    wreg      void 
  5518 ;; Registers used:
  5519 ;;		wreg, status,2, status,0
  5520 ;; Tracked objects:
  5521 ;;		On entry : 0/0
  5522 ;;		On exit  : 0/0
  5523 ;;		Unchanged: 0/0
  5524 ;; Data sizes:     COMRAM   BANK0   BANK1   BANK2   BANK3   BANK4   BANK5   BANK6   BANK7
  5525 ;;      Params:         2       0       0       0       0       0       0       0       0
  5526 ;;      Locals:         0       0       0       0       0       0       0       0       0
  5527 ;;      Temps:          0       0       0       0       0       0       0       0       0
  5528 ;;      Totals:         2       0       0       0       0       0       0       0       0
  5529 ;;Total ram usage:        2 bytes
  5530 ;; Hardware stack levels used:    1
  5531 ;; This function calls:
  5532 ;;		Nothing
  5533 ;; This function is called by:
  5534 ;;		_EUSART1_Initialize
  5535 ;; This function uses a non-reentrant model
  5536 ;;
  5537                           
  5538                           	psect	text31
  5539  006BDE                     __ptext31:
  5540                           	callstack 0
  5541  006BDE                     _EUSART1_SetErrorHandler:
  5542                           	callstack 28
  5543  006BDE                     
  5544                           ;mcc_generated_files/eusart1.c: 190:     EUSART1_ErrorHandler = interruptHandler;
  5545  006BDE  C001  F030         	movff	EUSART1_SetErrorHandler@interruptHandler,_EUSART1_ErrorHandler
  5546  006BE2  C002  F031         	movff	EUSART1_SetErrorHandler@interruptHandler+1,_EUSART1_ErrorHandler+1
  5547  006BE6  0012               	return		;funcret
  5548  006BE8                     __end_of_EUSART1_SetErrorHandler:
  5549                           	callstack 0
  5550                           
  5551                           	psect	rparam
  5552  0000                     
  5553                           	psect	idloc
  5554                           
  5555                           ;Config register IDLOC0 @ 0x200000
  5556                           ;	unspecified, using default values
  5557  200000                     	org	2097152
  5558  200000  FF                 	db	255
  5559                           
  5560                           ;Config register IDLOC1 @ 0x200001
  5561                           ;	unspecified, using default values
  5562  200001                     	org	2097153
  5563  200001  FF                 	db	255
  5564                           
  5565                           ;Config register IDLOC2 @ 0x200002
  5566                           ;	unspecified, using default values
  5567  200002                     	org	2097154
  5568  200002  FF                 	db	255
  5569                           
  5570                           ;Config register IDLOC3 @ 0x200003
  5571                           ;	unspecified, using default values
  5572  200003                     	org	2097155
  5573  200003  FF                 	db	255
  5574                           
  5575                           ;Config register IDLOC4 @ 0x200004
  5576                           ;	unspecified, using default values
  5577  200004                     	org	2097156
  5578  200004  FF                 	db	255
  5579                           
  5580                           ;Config register IDLOC5 @ 0x200005
  5581                           ;	unspecified, using default values
  5582  200005                     	org	2097157
  5583  200005  FF                 	db	255
  5584                           
  5585                           ;Config register IDLOC6 @ 0x200006
  5586                           ;	unspecified, using default values
  5587  200006                     	org	2097158
  5588  200006  FF                 	db	255
  5589                           
  5590                           ;Config register IDLOC7 @ 0x200007
  5591                           ;	unspecified, using default values
  5592  200007                     	org	2097159
  5593  200007  FF                 	db	255
  5594                           
  5595                           	psect	config
  5596                           
  5597                           ;Config register CONFIG1L @ 0x300000
  5598                           ;	PLL Selection
  5599                           ;	PLLSEL = PLL3X, 3x clock multiplier
  5600                           ;	PLL Enable Configuration bit
  5601                           ;	CFGPLLEN = ON, PLL Enabled
  5602                           ;	CPU System Clock Postscaler
  5603                           ;	CPUDIV = NOCLKDIV, CPU uses system clock (no divide)
  5604                           ;	Low Speed USB mode with 48 MHz system clock
  5605                           ;	LS48MHZ = SYS48X8, System clock at 48 MHz, USB clock divider is set to 8
  5606  300000                     	org	3145728
  5607  300000  23                 	db	35
  5608                           
  5609                           ;Config register CONFIG1H @ 0x300001
  5610                           ;	Oscillator Selection
  5611                           ;	FOSC = INTOSCIO, Internal oscillator
  5612                           ;	Primary Oscillator Shutdown
  5613                           ;	PCLKEN = ON, Primary oscillator enabled
  5614                           ;	Fail-Safe Clock Monitor
  5615                           ;	FCMEN = OFF, Fail-Safe Clock Monitor disabled
  5616                           ;	Internal/External Oscillator Switchover
  5617                           ;	IESO = OFF, Oscillator Switchover mode disabled
  5618  300001                     	org	3145729
  5619  300001  28                 	db	40
  5620                           
  5621                           ;Config register CONFIG2L @ 0x300002
  5622                           ;	Power-up Timer Enable
  5623                           ;	nPWRTEN = OFF, Power up timer disabled
  5624                           ;	Brown-out Reset Enable
  5625                           ;	BOREN = SBORDIS, BOR enabled in hardware (SBOREN is ignored)
  5626                           ;	Brown-out Reset Voltage
  5627                           ;	BORV = 190, BOR set to 1.9V nominal
  5628                           ;	Low-Power Brown-out Reset
  5629                           ;	nLPBOR = OFF, Low-Power Brown-out Reset disabled
  5630  300002                     	org	3145730
  5631  300002  5F                 	db	95
  5632                           
  5633                           ;Config register CONFIG2H @ 0x300003
  5634                           ;	Watchdog Timer Enable bits
  5635                           ;	WDTEN = OFF, WDT disabled in hardware (SWDTEN ignored)
  5636                           ;	Watchdog Timer Postscaler
  5637                           ;	WDTPS = 32768, 1:32768
  5638  300003                     	org	3145731
  5639  300003  3C                 	db	60
  5640                           
  5641                           ; Padding undefined space
  5642  300004                     	org	3145732
  5643  300004  FF                 	db	255
  5644                           
  5645                           ;Config register CONFIG3H @ 0x300005
  5646                           ;	CCP2 MUX bit
  5647                           ;	CCP2MX = RC1, CCP2 input/output is multiplexed with RC1
  5648                           ;	PORTB A/D Enable bit
  5649                           ;	PBADEN = ON, PORTB<5:0> pins are configured as analog input channels on Reset
  5650                           ;	Timer3 Clock Input MUX bit
  5651                           ;	T3CMX = RC0, T3CKI function is on RC0
  5652                           ;	SDO Output MUX bit
  5653                           ;	SDOMX = RB3, SDO function is on RB3
  5654                           ;	Master Clear Reset Pin Enable
  5655                           ;	MCLRE = ON, MCLR pin enabled; RE3 input disabled
  5656  300005                     	org	3145733
  5657  300005  D3                 	db	211
  5658                           
  5659                           ;Config register CONFIG4L @ 0x300006
  5660                           ;	Stack Full/Underflow Reset
  5661                           ;	STVREN = ON, Stack full/underflow will cause Reset
  5662                           ;	Single-Supply ICSP Enable bit
  5663                           ;	LVP = OFF, Single-Supply ICSP disabled
  5664                           ;	Dedicated In-Circuit Debug/Programming Port Enable
  5665                           ;	ICPRT = OFF, ICPORT disabled
  5666                           ;	Extended Instruction Set Enable bit
  5667                           ;	XINST = OFF, Instruction set extension and Indexed Addressing mode disabled
  5668                           ;	Background Debugger Enable bit
  5669                           ;	DEBUG = OFF, Background debugger disabled, RB6 and RB7 configured as general purpose I
      +                          /O pins
  5670  300006                     	org	3145734
  5671  300006  81                 	db	129
  5672                           
  5673                           ; Padding undefined space
  5674  300007                     	org	3145735
  5675  300007  FF                 	db	255
  5676                           
  5677                           ;Config register CONFIG5L @ 0x300008
  5678                           ;	Block 0 Code Protect
  5679                           ;	CP0 = OFF, Block 0 is not code-protected
  5680                           ;	Block 1 Code Protect
  5681                           ;	CP1 = OFF, Block 1 is not code-protected
  5682                           ;	Block 2 Code Protect
  5683                           ;	CP2 = OFF, Block 2 is not code-protected
  5684                           ;	Block 3 Code Protect
  5685                           ;	CP3 = OFF, Block 3 is not code-protected
  5686  300008                     	org	3145736
  5687  300008  0F                 	db	15
  5688                           
  5689                           ;Config register CONFIG5H @ 0x300009
  5690                           ;	Boot Block Code Protect
  5691                           ;	CPB = OFF, Boot block is not code-protected
  5692                           ;	Data EEPROM Code Protect
  5693                           ;	CPD = OFF, Data EEPROM is not code-protected
  5694  300009                     	org	3145737
  5695  300009  C0                 	db	192
  5696                           
  5697                           ;Config register CONFIG6L @ 0x30000A
  5698                           ;	Block 0 Write Protect
  5699                           ;	WRT0 = OFF, Block 0 (0800-1FFFh) is not write-protected
  5700                           ;	Block 1 Write Protect
  5701                           ;	WRT1 = OFF, Block 1 (2000-3FFFh) is not write-protected
  5702                           ;	Block 2 Write Protect
  5703                           ;	WRT2 = OFF, Block 2 (04000-5FFFh) is not write-protected
  5704                           ;	Block 3 Write Protect
  5705                           ;	WRT3 = OFF, Block 3 (06000-7FFFh) is not write-protected
  5706  30000A                     	org	3145738
  5707  30000A  0F                 	db	15
  5708                           
  5709                           ;Config register CONFIG6H @ 0x30000B
  5710                           ;	Configuration Registers Write Protect
  5711                           ;	WRTC = OFF, Configuration registers (300000-3000FFh) are not write-protected
  5712                           ;	Boot Block Write Protect
  5713                           ;	WRTB = OFF, Boot block (0000-7FFh) is not write-protected
  5714                           ;	Data EEPROM Write Protect
  5715                           ;	WRTD = OFF, Data EEPROM is not write-protected
  5716  30000B                     	org	3145739
  5717  30000B  E0                 	db	224
  5718                           
  5719                           ;Config register CONFIG7L @ 0x30000C
  5720                           ;	Block 0 Table Read Protect
  5721                           ;	EBTR0 = OFF, Block 0 is not protected from table reads executed in other blocks
  5722                           ;	Block 1 Table Read Protect
  5723                           ;	EBTR1 = OFF, Block 1 is not protected from table reads executed in other blocks
  5724                           ;	Block 2 Table Read Protect
  5725                           ;	EBTR2 = OFF, Block 2 is not protected from table reads executed in other blocks
  5726                           ;	Block 3 Table Read Protect
  5727                           ;	EBTR3 = OFF, Block 3 is not protected from table reads executed in other blocks
  5728  30000C                     	org	3145740
  5729  30000C  0F                 	db	15
  5730                           
  5731                           ;Config register CONFIG7H @ 0x30000D
  5732                           ;	Boot Block Table Read Protect
  5733                           ;	EBTRB = OFF, Boot block is not protected from table reads executed in other blocks
  5734  30000D                     	org	3145741
  5735  30000D  40                 	db	64
  5736                           tosu	equ	0xFFF
  5737                           tosh	equ	0xFFE
  5738                           tosl	equ	0xFFD
  5739                           stkptr	equ	0xFFC
  5740                           pclatu	equ	0xFFB
  5741                           pclath	equ	0xFFA
  5742                           pcl	equ	0xFF9
  5743                           tblptru	equ	0xFF8
  5744                           tblptrh	equ	0xFF7
  5745                           tblptrl	equ	0xFF6
  5746                           tablat	equ	0xFF5
  5747                           prodh	equ	0xFF4
  5748                           prodl	equ	0xFF3
  5749                           indf0	equ	0xFEF
  5750                           postinc0	equ	0xFEE
  5751                           postdec0	equ	0xFED
  5752                           preinc0	equ	0xFEC
  5753                           plusw0	equ	0xFEB
  5754                           fsr0h	equ	0xFEA
  5755                           fsr0l	equ	0xFE9
  5756                           wreg	equ	0xFE8
  5757                           indf1	equ	0xFE7
  5758                           postinc1	equ	0xFE6
  5759                           postdec1	equ	0xFE5
  5760                           preinc1	equ	0xFE4
  5761                           plusw1	equ	0xFE3
  5762                           fsr1h	equ	0xFE2
  5763                           fsr1l	equ	0xFE1
  5764                           bsr	equ	0xFE0
  5765                           indf2	equ	0xFDF
  5766                           postinc2	equ	0xFDE
  5767                           postdec2	equ	0xFDD
  5768                           preinc2	equ	0xFDC
  5769                           plusw2	equ	0xFDB
  5770                           fsr2h	equ	0xFDA
  5771                           fsr2l	equ	0xFD9
  5772                           status	equ	0xFD8

Data Sizes:
    Strings     929
    Constant    768
    Data        19
    BSS         25
    Persistent  0
    Stack       0

Auto Spaces:
    Space          Size  Autos    Used
    COMRAM           95     45      89
    BANK0           160      0       0
    BANK1           256      0       0
    BANK2           256      0       0
    BANK3           256      0       0
    BANK4           256      0       0
    BANK5           256      0       0
    BANK6           256      0       0
    BANK7           256      0       0

Pointer List with Targets:

    oled_putString@string	PTR const unsigned char  size(2) Largest target is 17
		 -> oled_putUint16@numData(COMRAM[6]), oled_putint8@numData(COMRAM[6]), oled_putUint8@numData(COMRAM[6]), STR_60(CODE[10]), 
		 -> STR_58(CODE[11]), STR_56(CODE[15]), STR_54(CODE[15]), STR_52(CODE[15]), 
		 -> STR_50(CODE[15]), STR_48(CODE[15]), STR_46(CODE[15]), STR_44(CODE[15]), 
		 -> STR_42(CODE[15]), STR_40(CODE[14]), STR_38(CODE[10]), STR_36(CODE[14]), 
		 -> STR_35(CODE[10]), STR_33(CODE[17]), STR_32(CODE[12]), STR_30(CODE[15]), 
		 -> STR_29(CODE[9]), STR_27(CODE[15]), STR_26(CODE[15]), STR_24(CODE[17]), 
		 -> STR_23(CODE[10]), STR_21(CODE[17]), STR_20(CODE[11]), STR_18(CODE[17]), 
		 -> STR_17(CODE[13]), STR_15(CODE[15]), STR_14(CODE[8]), STR_12(CODE[16]), 
		 -> STR_11(CODE[17]), STR_9(CODE[3]), STR_8(CODE[13]), STR_7(CODE[11]), 
		 -> STR_6(CODE[17]), cmd_message(COMRAM[16]), STR_1(CODE[10]), 

    oled_setFont@font	PTR const unsigned char  size(2) Largest target is 768
		 -> OledFont0(CODE[768]), 

    selectedFont	PTR const unsigned char  size(2) Largest target is 768
		 -> OledFont0(CODE[768]), 

    sendCommand@texto	PTR unsigned char  size(2) Largest target is 27
		 -> STR_61(CODE[12]), STR_59(CODE[13]), STR_57(CODE[14]), STR_55(CODE[14]), 
		 -> STR_53(CODE[14]), STR_51(CODE[14]), STR_49(CODE[14]), STR_47(CODE[14]), 
		 -> STR_45(CODE[14]), STR_43(CODE[14]), STR_41(CODE[22]), STR_39(CODE[12]), 
		 -> STR_37(CODE[20]), STR_34(CODE[20]), STR_31(CODE[21]), STR_28(CODE[20]), 
		 -> STR_25(CODE[21]), STR_22(CODE[19]), STR_19(CODE[27]), STR_16(CODE[19]), 
		 -> STR_13(CODE[18]), STR_10(CODE[14]), STR_5(CODE[26]), STR_4(CODE[26]), 
		 -> STR_3(CODE[26]), STR_2(CODE[26]), 

    EUSART1_SetErrorHandler@interruptHandler	PTR FTN()void  size(2) Largest target is 1
		 -> EUSART1_DefaultErrorHandler(), 

    EUSART1_ErrorHandler	PTR FTN()void  size(2) Largest target is 1
		 -> Absolute function(), EUSART1_DefaultErrorHandler(), 

    EUSART1_SetOverrunErrorHandler@interruptHandler	PTR FTN()void  size(2) Largest target is 1
		 -> EUSART1_DefaultOverrunErrorHandler(), 

    EUSART1_OverrunErrorHandler	PTR FTN()void  size(2) Largest target is 1
		 -> Absolute function(), EUSART1_DefaultOverrunErrorHandler(), 

    EUSART1_SetFramingErrorHandler@interruptHandler	PTR FTN()void  size(2) Largest target is 1
		 -> EUSART1_DefaultFramingErrorHandler(), 

    EUSART1_FramingErrorHandler	PTR FTN()void  size(2) Largest target is 1
		 -> Absolute function(), EUSART1_DefaultFramingErrorHandler(), 

    sp__get_Data	PTR unsigned char  size(2) Largest target is 2047
		 -> RAM(DATA[2047]), 


Critical Paths under _main in COMRAM

    _main->_init_mod_LoRa
    _oled_setDisplay->_oled_writeCommand
    _oled_devInit->_oled_initialDispayLine
    _oled_devInit->_oled_powerControl
    _oled_devInit->_oled_regulorResistorSelect
    _oled_devInit->_oled_setContrastControlRegister
    _oled_setContrastControlRegister->_oled_writeCommand
    _oled_regulorResistorSelect->_oled_writeCommand
    _oled_powerControl->_oled_writeCommand
    _oled_initialDispayLine->_oled_writeCommand
    _init_mod_LoRa->_Opening
    _sendCommand->_EUSART1_Write
    _read_LoRA_cmd->_get_Data
    _Opening->_oled_putString
    _oled_putString->_oled_putChar
    _oled_clear->_oled_clearRow
    _oled_clearRow->_oled_putChar
    _oled_putChar->_Set_Column_Address
    _oled_putChar->_Set_Page_Address
    _Set_Page_Address->_oled_writeCommand
    _Set_Column_Address->_oled_writeCommand
    _EUSART1_Initialize->_EUSART1_SetErrorHandler
    _EUSART1_Initialize->_EUSART1_SetFramingErrorHandler
    _EUSART1_Initialize->_EUSART1_SetOverrunErrorHandler

Critical Paths under _main in BANK0

    None.

Critical Paths under _main in BANK1

    None.

Critical Paths under _main in BANK2

    None.

Critical Paths under _main in BANK3

    None.

Critical Paths under _main in BANK4

    None.

Critical Paths under _main in BANK5

    None.

Critical Paths under _main in BANK6

    None.

Critical Paths under _main in BANK7

    None.

Call Graph Tables:

 ---------------------------------------------------------------------------------
 (Depth) Function   	        Calls       Base Space   Used Autos Params    Refs
 ---------------------------------------------------------------------------------
 (0) _main                                                33    33      0   53409
                                             44 COMRAM     1     1      0
                  _SYSTEM_Initialize
                            _delayms
                      _init_mod_LoRa
                          _init_port
                         _oled_clear
                          _oled_init
                     _oled_putString
                      _read_LoRA_cmd
                        _sendCommand
 ---------------------------------------------------------------------------------
 (1) _oled_init                                            0     0      0    1070
                         _oled_clear
                       _oled_devInit
                    _oled_setDisplay
                       _oled_setFont
 ---------------------------------------------------------------------------------
 (2) _oled_setFont                                         2     0      2     120
                                              0 COMRAM     2     0      2
 ---------------------------------------------------------------------------------
 (2) _oled_setDisplay                                      1     1      0      30
                                              1 COMRAM     1     1      0
                  _oled_writeCommand
 ---------------------------------------------------------------------------------
 (2) _oled_devInit                                         1     1      0     135
                                              2 COMRAM     1     1      0
             _oled_initialDispayLine
                  _oled_powerControl
         _oled_regulorResistorSelect
    _oled_setContrastControlRegister
                  _oled_writeCommand
 ---------------------------------------------------------------------------------
 (3) _oled_setContrastControlRegister                      1     1      0      30
                                              1 COMRAM     1     1      0
                  _oled_writeCommand
 ---------------------------------------------------------------------------------
 (3) _oled_regulorResistorSelect                           1     1      0      30
                                              1 COMRAM     1     1      0
                  _oled_writeCommand
 ---------------------------------------------------------------------------------
 (3) _oled_powerControl                                    1     1      0      30
                                              1 COMRAM     1     1      0
                  _oled_writeCommand
 ---------------------------------------------------------------------------------
 (3) _oled_initialDispayLine                               1     1      0      30
                                              1 COMRAM     1     1      0
                  _oled_writeCommand
 ---------------------------------------------------------------------------------
 (1) _init_port                                            0     0      0       0
 ---------------------------------------------------------------------------------
 (1) _init_mod_LoRa                                        2     2      0   33664
                                             42 COMRAM     2     2      0
                            _Opening
                         _oled_clear
                     _oled_putString
                      _read_LoRA_cmd
                        _sendCommand
 ---------------------------------------------------------------------------------
 (1) _sendCommand                                          2     0      2    2036
                                              1 COMRAM     2     0      2
                      _EUSART1_Write
 ---------------------------------------------------------------------------------
 (2) _EUSART1_Write                                        1     1      0      15
                                              0 COMRAM     1     1      0
 ---------------------------------------------------------------------------------
 (1) _read_LoRA_cmd                                        5     5      0     183
                                              4 COMRAM     5     5      0
                           _get_Data
 ---------------------------------------------------------------------------------
 (2) _get_Data                                             4     2      2       0
                                              0 COMRAM     4     2      2
 ---------------------------------------------------------------------------------
 (2) _Opening                                             25    25      0   16128
                                             17 COMRAM    25    25      0
                         _oled_clear
                       _oled_putChar
                     _oled_putString
 ---------------------------------------------------------------------------------
 (1) _oled_putString                                       5     1      4   14532
                                             12 COMRAM     5     1      4
                       _oled_putChar
 ---------------------------------------------------------------------------------
 (2) _oled_clear                                           0     0      0     785
                      _oled_clearRow
 ---------------------------------------------------------------------------------
 (3) _oled_clearRow                                        2     2      0     785
                                             12 COMRAM     2     2      0
                       _oled_putChar
 ---------------------------------------------------------------------------------
 (2) _oled_putChar                                        10     8      2     695
                                              2 COMRAM    10     8      2
                 _Set_Column_Address
                   _Set_Page_Address
                     _oled_writeData
 ---------------------------------------------------------------------------------
 (3) _oled_writeData                                       1     1      0      15
                                              0 COMRAM     1     1      0
 ---------------------------------------------------------------------------------
 (3) _Set_Page_Address                                     1     1      0      45
                                              1 COMRAM     1     1      0
                  _oled_writeCommand
 ---------------------------------------------------------------------------------
 (3) _Set_Column_Address                                   1     1      0      45
                                              1 COMRAM     1     1      0
                  _oled_writeCommand
 ---------------------------------------------------------------------------------
 (4) _oled_writeCommand                                    1     1      0      15
                                              0 COMRAM     1     1      0
 ---------------------------------------------------------------------------------
 (1) _delayms                                              5     3      2     578
                                              0 COMRAM     5     3      2
 ---------------------------------------------------------------------------------
 (1) _SYSTEM_Initialize                                    0     0      0     294
                 _EUSART1_Initialize
              _OSCILLATOR_Initialize
             _PIN_MANAGER_Initialize
 ---------------------------------------------------------------------------------
 (2) _PIN_MANAGER_Initialize                               0     0      0       0
 ---------------------------------------------------------------------------------
 (2) _OSCILLATOR_Initialize                                0     0      0       0
 ---------------------------------------------------------------------------------
 (2) _EUSART1_Initialize                                   0     0      0     294
            _EUSART1_SetErrorHandler
     _EUSART1_SetFramingErrorHandler
     _EUSART1_SetOverrunErrorHandler
 ---------------------------------------------------------------------------------
 (3) _EUSART1_SetOverrunErrorHandler                       2     0      2      98
                                              0 COMRAM     2     0      2
 ---------------------------------------------------------------------------------
 (3) _EUSART1_SetFramingErrorHandler                       2     0      2      98
                                              0 COMRAM     2     0      2
 ---------------------------------------------------------------------------------
 (3) _EUSART1_SetErrorHandler                              2     0      2      98
                                              0 COMRAM     2     0      2
 ---------------------------------------------------------------------------------
 Estimated maximum stack depth 4
 ---------------------------------------------------------------------------------

 Call Graph Graphs:

 _main (ROOT)
   _SYSTEM_Initialize
     _EUSART1_Initialize
       _EUSART1_SetErrorHandler
       _EUSART1_SetFramingErrorHandler
       _EUSART1_SetOverrunErrorHandler
     _OSCILLATOR_Initialize
     _PIN_MANAGER_Initialize
   _delayms
   _init_mod_LoRa
     _Opening
       _oled_clear
         _oled_clearRow
           _oled_putChar
             _Set_Column_Address
               _oled_writeCommand
             _Set_Page_Address
               _oled_writeCommand
             _oled_writeData
       _oled_putChar
         _Set_Column_Address
           _oled_writeCommand
         _Set_Page_Address
           _oled_writeCommand
         _oled_writeData
       _oled_putString
         _oled_putChar
           _Set_Column_Address
             _oled_writeCommand
           _Set_Page_Address
             _oled_writeCommand
           _oled_writeData
     _oled_clear
       _oled_clearRow
         _oled_putChar
           _Set_Column_Address
             _oled_writeCommand
           _Set_Page_Address
             _oled_writeCommand
           _oled_writeData
     _oled_putString
       _oled_putChar
         _Set_Column_Address
           _oled_writeCommand
         _Set_Page_Address
           _oled_writeCommand
         _oled_writeData
     _read_LoRA_cmd
       _get_Data
     _sendCommand
       _EUSART1_Write
   _init_port
   _oled_clear
     _oled_clearRow
       _oled_putChar
         _Set_Column_Address
           _oled_writeCommand
         _Set_Page_Address
           _oled_writeCommand
         _oled_writeData
   _oled_init
     _oled_clear
       _oled_clearRow
         _oled_putChar
           _Set_Column_Address
             _oled_writeCommand
           _Set_Page_Address
             _oled_writeCommand
           _oled_writeData
     _oled_devInit
       _oled_initialDispayLine
         _oled_writeCommand
       _oled_powerControl
         _oled_writeCommand
       _oled_regulorResistorSelect
         _oled_writeCommand
       _oled_setContrastControlRegister
         _oled_writeCommand
       _oled_writeCommand
     _oled_setDisplay
       _oled_writeCommand
     _oled_setFont
   _oled_putString
     _oled_putChar
       _Set_Column_Address
         _oled_writeCommand
       _Set_Page_Address
         _oled_writeCommand
       _oled_writeData
   _read_LoRA_cmd
     _get_Data
   _sendCommand
     _EUSART1_Write

 Address spaces:
Name               Size   Autos  Total    Cost      Usage
BIGRAM             7FF      0       0      21        0.0%
EEDATA             100      0       0       0        0.0%
BITBANK7           100      0       0      19        0.0%
BANK7              100      0       0      20        0.0%
BITBANK6           100      0       0      17        0.0%
BANK6              100      0       0      18        0.0%
BITBANK5           100      0       0      15        0.0%
BANK5              100      0       0      16        0.0%
BITBANK4           100      0       0      13        0.0%
BANK4              100      0       0      14        0.0%
BITBANK3           100      0       0      11        0.0%
BANK3              100      0       0      12        0.0%
BITBANK2           100      0       0       9        0.0%
BANK2              100      0       0      10        0.0%
BITBANK1           100      0       0       7        0.0%
BANK1              100      0       0       8        0.0%
BITBANK0            A0      0       0       4        0.0%
BANK0               A0      0       0       5        0.0%
BITCOMRAM           5F      0       0       0        0.0%
COMRAM              5F     2D      59       1       93.7%
BITSFR_1             0      0       0     200        0.0%
SFR_1                0      0       0     200        0.0%
BITSFR               0      0       0     200        0.0%
SFR                  0      0       0     200        0.0%
STACK                0      0       0       2        0.0%
NULL                 0      0       0       0        0.0%
ABS                  0      0      59       6        0.0%
DATA                 0      0      59       3        0.0%
CODE                 0      0       0       0        0.0%


Microchip Technology PIC18 Macro Assembler V2.31 build 20201012212115 
Symbol Table                                                                                   Thu Jul  8 14:05:42 2021

                                            l43 6EB4                                              l71 6DD2  
                                            l74 6CB0                                              l67 6DA0  
                                            l92 6BFA                                              l77 6CC2  
                                            l95 6BE6                                              l89 6BF0  
                                            u50 6CBE                                              u51 6CBA  
                        __end_of_oled_writeData 6C98                                             l204 6E08  
                                           l134 6EF2                                             l232 710C  
                                           l233 713E                                             l225 7230  
                                           l162 6D18                                             l323 6CF8  
                                           l156 6C2C                                             l316 6C4A  
                                           l236 795A                                             l159 6D0A  
                                           l319 6CAC                                             l192 6E60  
                                           l360 6F6A                                             l354 6D40  
                                           l346 7066                                             l195 6E76  
                                           l371 6C82                                             l339 6FE6  
                                           l259 7544                                             l380 6C06  
                                           l349 6CDC                                             l189 6C3A  
                                           l365 6D9E                                             l357 6D6E  
                                           l374 6C96                                             l383 6C12  
                                           l377 6C5A                                             l386 6C1E  
                       ?_oled_initialDispayLine 0001                                             u100 6D18  
                                           u101 6D14                                             u200 6D82  
                                           u201 6D7E                                             u410 6FE6  
                                           u411 6FE2                                             u420 6D40  
                                           u500 7188                                             u421 6D3C  
                                           u501 7184                                             u430 6DAE  
                                           u510 71C6                                             u431 6DAA  
                                           u511 71C2                                             u440 6DC0  
                                           u520 71FE                                             u600 7266  
                                           u441 6DBC                                             u521 71FA  
                                           u601 7262                                             u450 6FFC  
                                           u530 7216                                             u610 72B2  
                                           u451 6FF8                                             u531 7212  
                                           u611 72AE                                             u460 7020  
                                           u540 7230                                             u700 74BC  
                                           u620 72EC                                             u541 722C  
                                           u701 74B8                                             u621 72E8  
                                           u470 7030                                             u710 753C  
                                           u630 7326                                             u471 702C  
                                           u551 7076                                             u711 7538  
                                           u631 7322                                             u480 7058  
                                           u560 710C                                             u640 7360  
                                           u561 7108                                             u641 735C  
                                           u490 6E08                                             u570 6CF0  
                                           u650 739A                                             u467 7016  
                                           u491 6E04                                             u571 6CEC  
                                           u651 7396                                             u580 6E76  
                                           u660 73D4                                             u581 6E72  
                                           u661 73D0                                             u670 740E  
                                           u487 704E                                             u807 76EA  
                                           u671 740A                                             u680 7448  
                                           u817 7750                                             u681 7444  
                                           u690 7482                                             u827 77B6  
                                           u747 6F02                                             u691 747E  
                                           u837 781C                                             u757 6F14  
                                           u847 7882                                             u767 6F24  
                                           u857 78E8                                             u777 75B8  
                                           u867 794E                                             u787 761E  
                                           u877 70C2                                             u797 7684  
                                           u887 712E                                             u897 6E52  
                                           _log 002E                                             wreg 000FE8  
                                    _TXSTA1bits 000FAC                                            l1200 6ECE  
                                          l2000 7722                                            l1210 6CFA  
                                          l1202 6ED0                                            l2010 7760  
                                          l2002 772E                                            l1204 6ED6  
                                          l2020 77AC                                            l2012 7774  
                                          l2004 7732                                            l1300 6F2E  
                                          l1206 6ED8                                            l1070 6C7E  
                                          l1062 6C72                                            l2030 77FA  
                                          l2022 77C2                                            l2014 7788  
                                          l2006 7746                                            l1310 6F4C  
                                          l1302 6F34                                            l1208 6EF0  
                                          l1072 6C80                                            l1064 6C76  
                                          l2040 7840                                            l2032 77FE  
                                          l2024 77C6                                            l2016 7794  
                                          l2008 775C                                            l1312 6F52  
                                          l1304 6F3A                                            l1320 6D72  
                                          l2200 7360                                            l1066 6C7A  
                                          l1082 6C9A                                            l1090 6C8E  
                                          l1146 6CB0                                            l2050 788E  
                                          l2042 7854                                            l2034 7812  
                                          l2026 77DA                                            l2018 7798  
                                          l1330 6C2E                                            l1314 6F58  
                                          l1306 6F40                                            l1322 6D82  
                                          l2202 7364                                            l2210 7388  
                                          l1068 6C7C                                            l1076 6C3E  
                                          l1092 6C90                                            l1148 6CBE  
                                          l2060 78CA                                            l2052 7892  
                                          l2044 7860                                            l2036 7828  
                                          l2028 77EE                                            l1332 6C36  
                                          l1172 6C16                                            l1316 6F5E  
                                          l1308 6F46                                            l1324 6D92  
                                          l2300 7546                                            l2212 739A  
                                          l2204 7378                                            l2140 7236  
                                          l1078 6C44                                            l1094 6C92  
                                          l1086 6C86                                            l2070 7920  
                                          l2062 78DE                                            l2054 78A6  
                                          l2046 7864                                            l2038 782C  
                                          l1182 6BFE                                            l1318 6F64  
                                          l2214 739E                                            l2222 73C2  
                                          l2150 7252                                            l2142 723A  
                                          l1096 6C94                                            l1088 6C8A  
                                          l2072 792C                                            l2064 78F4  
                                          l2056 78BA                                            l2048 7878  
                                          l1184 6C00                                            l1168 6C0A  
                                          l1176 6C4E                                            l2080 6D54  
                                          l2240 7426                                            l2224 73D4  
                                          l2216 73B2                                            l2160 728A  
                                          l2152 7256                                            l2144 7246  
                                          l2074 7930                                            l2066 78F8  
                                          l2058 78C6                                            l1178 6C54  
                                          l1290 6EFC                                            l2082 6D58  
                                          l2250 744C                                            l2226 73D8  
                                          l2234 73FC                                            l2154 7266  
                                          l2162 72A2                                            l2146 724A  
                                          l2138 7232                                            l2076 7944  
                                          l2068 790C                                            l1292 6F0C  
                                          l2084 6D5E                                            l2260 7482  
                                          l2252 7460                                            l2236 740E  
                                          l2228 73EC                                            l2180 7304  
                                          l2164 72B2                                            l2156 727A  
                                          l2148 724E                                            l1198 6EB6  
                                          l1294 6F0E                                            l1286 6EF4  
                                          l2086 6D6A                                            l2078 6D42  
                                          l2262 7486                                            l2270 74AA  
                                          l2238 7412                                            l2246 7436  
                                          l2190 732A                                            l2166 72B6  
                                          l2174 72DA                                            l2158 7286  
                                          l1800 6D20                                            l1296 6F1C  
                                          l1288 6EFA                                            l2280 74E4  
                                          l2272 74BC                                            l2264 749A  
                                          l2248 7448                                            l2192 733E  
                                          l2176 72EC                                            l2168 72CA  
                                          l1810 6BDE                                            l1802 6D2E  
                                          l1298 6F1E                                            l2282 74F8  
                                          l2274 74C0                                            l2258 7470  
                                          l2178 72F0                                            l2186 7314  
                                          l1804 6D30                                            l1900 707E  
                                          l1820 6DC4                                            l1812 6DA0  
                                          l2284 7504                                            l2276 74D4  
                                          l2188 7326                                            l1806 6BE8  
                                          l1830 7000                                            l1910 70D0  
                                          l1902 7082                                            l1814 6DAE  
                                          l2286 7508                                            l2278 74E0  
                                          l2294 752C                                            l2198 734E  
                                          l1808 6BF2                                            l1840 6CC4  
                                          l1832 7030                                            l1824 6FE8  
                                          l1920 713C                                            l1912 70D2  
                                          l1904 7096                                            l1816 6DB2  
                                          l2296 753C                                            l2288 751C  
                                          l1850 6EB0                                            l1842 6E78  
                                          l1930 6E40                                            l1834 705C  
                                          l1826 6FEC                                            l1914 7110  
                                          l1906 709E                                            l1818 6DC0  
                                          l1922 6CDE                                            l2298 7544  
                                          l1844 6E8C                                            l1932 6E4C  
                                          l1780 6F74                                            l1836 7060  
                                          l1916 7124                                            l1908 70B8  
                                          l1860 7140                                            l1852 6DD4  
                                          l1940 7562                                            l1924 6CF0  
                                          l1846 6E98                                            l1926 6C20  
                                          l1934 6E5C                                            l1790 6FD4  
                                          l1782 6F80                                            l1918 713A  
                                          l1870 716C                                            l1854 6DD8  
                                          l1950 75AE                                            l1942 7576  
                                          l1848 6EA4                                            l1928 6C28  
                                          l1792 6FD6                                            l1880 71D6  
                                          l1872 7188                                            l1856 6DE8  
                                          l1960 75FC                                            l1952 75C4  
                                          l1944 758A                                            l1936 755A  
                                          l1778 6F6E                                            l1794 6D1C  
                                          l1890 721A                                            l1882 71DA  
                                          l1874 7194                                            l1866 7158  
                                          l1858 6DEC                                            l1970 7642  
                                          l1962 7600                                            l1954 75C8  
                                          l1946 7596                                            l1938 755E  
                                          l1788 6F84                                            l1884 71E2  
                                          l1876 71A8                                            l1892 721E  
                                          l1868 7168                                            l1980 7690  
                                          l1972 7656                                            l1964 7614  
                                          l1956 75DC                                            l1948 759A  
                                          l1894 7068                                            l1878 71C6  
                                          l1990 76CC                                            l1982 7694  
                                          l1974 7662                                            l1966 762A  
                                          l1958 75F0                                            l1896 706C  
                                          l1888 71FE                                            l1992 76E0  
                                          l1984 76A8                                            l1976 7666  
                                          l1968 762E                                            l1898 707E  
                                          l1994 76F6                                            l1986 76BC  
                                          l1978 767A                                            l1996 76FA  
                                          l1988 76C8                                            l1998 770E  
                                          STR_1 7FB8                                            STR_2 7CAC  
                                          STR_3 7CC6                                            STR_4 7C78  
                                          STR_5 7C92                                            STR_6 7D94  
                                          STR_7 7F97                                            STR_8 7F65  
                                          STR_9 7FFB                                            _LATA 000F89  
                                          _LATB 000F8A                                            _LATC 000F8B  
                                          _LATD 000F8C                                            _LATE 000F8D  
                                          _WPUB 000F85                                   _EUSART1_Write 6CAE  
                                          _main 7232                                            fsr0h 000FEA  
                                          indf0 000FEF                                            fsr0l 000FE9  
                                          indf2 000FDF                                            fsr1l 000FE1  
                                          fsr2l 000FD9                                            prodl 000FF3  
                                          start 0000                                 ?_oled_putString 000D  
                              ?_oled_setDisplay 0001                                    ___param_bank 000000  
                               __end_of_Opening 7140                  __size_of_OSCILLATOR_Initialize 0020  
                __end_of_oled_initialDispayLine 6C08                                 ?_oled_writeData 0001  
                 __end_of_OSCILLATOR_Initialize 6D1A                                           ?_main 0001  
                                         STR_10 7F2E                                           STR_11 7DC7  
                                         STR_20 7FA2                                           STR_12 7DFA  
                                         STR_21 7DB6                                           STR_13 7D82  
                                         STR_14 7FF3                                           STR_30 7E91  
                                         STR_22 7D6F                                           STR_23 7FC2  
                                         STR_15 7E37                                           STR_31 7CF6  
                                         STR_32 7F8B                                           STR_40 7F4A  
                                         STR_24 7DE9                                           STR_16 7D5C  
                                         STR_17 7F72                                           STR_33 7DA5  
                                         STR_25 7D0B                                           STR_41 7CE0  
                                         STR_26 7EAF                                           STR_50 7E55  
                                         STR_42 7E0A                                           STR_18 7DD8  
                                         STR_34 7D20                                           STR_35 7FD6  
                                         STR_51 7EF6                                           STR_43 7EBE  
                                         STR_27 7EA0                                           STR_19 7C5D  
                                         STR_60 7FE0                                           STR_36 7F3C  
                                         STR_52 7E64                                           STR_44 7E19  
                                         STR_28 7D48                                           STR_61 7F7F  
                                         STR_29 7FEA                                           STR_53 7F04  
                                         STR_45 7ECC                                           STR_37 7D34  
                                         STR_38 7FCC                                           STR_54 7E73  
                                         STR_46 7E28                                           STR_39 7F7F  
                                         STR_55 7F12                                           STR_47 7EDA  
                                         STR_56 7E82                                           STR_48 7E46  
                                         STR_57 7F20                                           STR_49 7EE8  
                                         STR_58 7FAD                                           STR_59 7F58  
                                         _TRISA 000F92                                           _TRISB 000F93  
                                         _TRISC 000F94                                           _TRISD 000F95  
                                         _TRISE 000F96                                 __end_of_delayms 6E78  
                             oled_putChar@index 000C                                  ?_EUSART1_Write 0001  
                                         tablat 000FF5                                           plusw1 000FE3  
                                         plusw2 000FDB                      oled_setDisplay@displayType 0002  
                                         status 000FD8              _EUSART1_DefaultFramingErrorHandler 000000  
                               __initialization 6E0A                      __end_of_EUSART1_Initialize 6EB6  
                                  __end_of_main 755A                                    ?_sendCommand 0002  
                                        ??_main 002D                                   __activetblptr 000002  
                        __size_of_read_LoRA_cmd 00F2                                      Opening@aux 0019  
                                        _ACTCON 000FB5                                  delayms@counter 0004  
                                        _ANSELA 000F5B                                          _ANSELB 000F5C  
                                        _ANSELC 000F5D                                          _ANSELD 000F5E  
                                        _ANSELE 000F5F                                          _RCREG1 000FAE  
                                        _RCSTA1 000FAB                                          _OSCCON 000FD3  
                                        _PLLRDY 007E97                                          _SPBRG1 000FAF  
                                        _TXREG1 000FAD                                          _TXSTA1 000FAC  
                                 oled_putChar@k 000B                                __end_of_get_Data 6DD4  
                                     ??_Opening 0012                      __end_of_Set_Column_Address 6CAE  
                     __size_of_Set_Page_Address 0010                          __size_of_init_mod_LoRa 0402  
                      ?_EUSART1_SetErrorHandler 0001                                          clear_0 6E30  
                                     ??_delayms 0003                ??_EUSART1_SetOverrunErrorHandler 0003  
               ?_EUSART1_SetOverrunErrorHandler 0001                                    __pdataCOMRAM 0047  
                                  __mediumconst 795C                                          tblptrh 000FF7  
                                        tblptrl 000FF6                                          tblptru 000FF8  
                               ??_EUSART1_Write 0001                                   ?_oled_devInit 0001  
                             _SYSTEM_Initialize 6C20                                      __accesstop 0060  
                       __end_of__initialization 6E36                              ?_SYSTEM_Initialize 0001  
                            oled_writeData@data 0001                                   ___rparam_used 000001  
                                 _read_LoRA_cmd 7140                                   ?_oled_setFont 0001  
                                 ?_oled_putChar 0003                                  __pcstackCOMRAM 0001  
                           ??_SYSTEM_Initialize 0003         __end_of_oled_setContrastControlRegister 6C5C  
      __size_of_oled_setContrastControlRegister 0010               ??_oled_setContrastControlRegister 0002  
              ?_oled_setContrastControlRegister 0001                 _oled_setContrastControlRegister 6C4C  
                             __end_of_OledFont0 7C5D                                  ??_oled_devInit 0003  
                     __end_of_SYSTEM_Initialize 6C2E                                   _init_mod_LoRa 755A  
                              ??_oled_putString 0011                     oled_regulorResistorSelect@r 0002  
                                ?_read_LoRA_cmd 0001                                  ??_oled_setFont 0003  
                           oled_putString@index 0011                                  ??_oled_putChar 0005  
                            __size_of_init_port 000E                          __size_of_oled_clearRow 0028  
                                   Opening@size 0029                          oled_putChar@start_page 0004  
               __end_of_EUSART1_SetErrorHandler 6BE8                              __size_of_oled_init 002E  
                              ??_oled_writeData 0001                       Set_Column_Address@address 0002  
        __end_of_EUSART1_SetFramingErrorHandler 6BF2         __size_of_EUSART1_SetFramingErrorHandler 000A  
                _EUSART1_SetFramingErrorHandler 6BE8                            __size_of_sendCommand 0036  
                                       _OSCCON2 000FD2                                         _OSCTUNE 000F9B  
                                       _SPBRGH1 000FB0                                       ?_get_Data 0001  
                                ?_init_mod_LoRa 0001                                         __Hparam 0000  
                                       __Lparam 0000                                         _Opening 7068  
                              _Set_Page_Address 6C3C              oled_setContrastControlRegister@mod 0002  
                                       __pcinit 6E0A                                         __ramtop 0800  
                                       _delayms 6E40                                         __ptext0 7232  
                                       __ptext1 6D42                                         __ptext2 6CDE  
                                       __ptext3 6D70                                         __ptext4 6EF4  
                                       __ptext5 6C4C                                         __ptext6 6C14  
                                       __ptext7 6C08                                         __ptext8 6BFC  
                                       __ptext9 6C2E                        __size_of_oled_setDisplay 0030  
                              oled_setFont@font 0001                           _OSCILLATOR_Initialize 6CFA  
                                 _oled_clearRow 6D1A                                      _oled_clear 6CC4  
                             __end_of_init_port 6C3C                              _EUSART1_Initialize 6E78  
                      ??_PIN_MANAGER_Initialize 0001                                      ??_get_Data 0003  
                             __end_of_oled_init 6D70                      __size_of_SYSTEM_Initialize 000E  
                          end_of_initialization 6E36                             ?_EUSART1_Initialize 0001  
                               ??_read_LoRA_cmd 0005                                   __Lmediumconst 795C  
                   _EUSART1_OverrunErrorHandler 0032                               _oled_powerControl 6C08  
                            ?_oled_powerControl 0001                                         postdec1 000FE5  
                                       postinc0 000FEE                                         postinc2 000FDE  
                          __end_of_oled_devInit 6F6C                            ??_EUSART1_Initialize 0003  
                           ??_oled_powerControl 0002                                  ?_oled_clearRow 0001  
                          __end_of_oled_setFont 6CFA                              _Set_Column_Address 6C98  
                          __end_of_oled_putChar 6FE8                                 ??_init_mod_LoRa 002B  
                                     _TRISAbits 000F92                                       _TRISBbits 000F93  
                                     _TRISCbits 000F94                                       _TRISEbits 000F96  
              __size_of_EUSART1_SetErrorHandler 000A                             EUSART1_Write@txData 0001  
                           ?_Set_Column_Address 0001                        oled_putString@start_page 0010  
                     __end_of_oled_powerControl 6C14                    ??_oled_regulorResistorSelect 0002  
                      ??_oled_initialDispayLine 0002                                sendCommand@texto 0002  
                          ??_Set_Column_Address 0002                                   __pidataCOMRAM 6C5D  
                        ?_OSCILLATOR_Initialize 0001                        oled_writeCommand@command 0001  
                                   ?_oled_clear 0001                             start_initialization 6E0A  
           __size_of_oled_regulorResistorSelect 000C                 __size_of_PIN_MANAGER_Initialize 003E  
                             ??_oled_setDisplay 0002                                  read_LoRA_cmd@i 0008  
                                     _OledFont0 795D                           __end_of_EUSART1_Write 6CC4  
                             read_LoRA_cmd@Flag 0006                                   delayms@length 0001  
                               ??_oled_clearRow 000D                       oled_putString@station_dot 000F  
                                   __pbssCOMRAM 002E                                    Opening@F5429 0047  
                      __end_of_Set_Page_Address 6C4C                               __size_of_get_Data 0034  
              ??_EUSART1_SetFramingErrorHandler 0003                 ?_EUSART1_SetFramingErrorHandler 0001  
                    __size_of_oled_powerControl 000C                            oled_putString@string 000D  
                             _oled_writeCommand 6C70                           __size_of_oled_devInit 0078  
                       oled_putChar@station_dot 0003                          _PIN_MANAGER_Initialize 6EB6  
                                      ?_Opening 0001                             __size_of_oled_clear 001A  
                                   _cmd_message 0037                 __size_of_oled_initialDispayLine 000C  
                            ?_oled_writeCommand 0001                                   __pmediumconst 795C  
                         __size_of_oled_setFont 001C                                   ??_sendCommand 0004  
                         __size_of_oled_putChar 007C                                        ?_delayms 0001  
                           ??_oled_writeCommand 0001                                        _BAUDCON1 000FB8  
            _EUSART1_DefaultOverrunErrorHandler 000000                            _EUSART1_ErrorHandler 0030  
                       _EUSART1_SetErrorHandler 6BDE                                       _init_port 6C2E  
                                  _oled_devInit 6EF4              __end_of_oled_regulorResistorSelect 6C20  
                    _oled_regulorResistorSelect 6C14                                       _oled_init 6D42  
                                      _LATAbits 000F89                       __end_of_oled_writeCommand 6C84  
       EUSART1_SetErrorHandler@interruptHandler 0001                                        _LATBbits 000F8A  
                                      _LATCbits 000F8B                                        _LATEbits 000F8D  
                                  _oled_setFont 6CDE                                    _oled_putChar 6F6C  
                                      _PIR1bits 000F9E                         __size_of_oled_putString 0080  
                       Set_Page_Address@address 0002                         __size_of_oled_writeData 0014  
                           __end_of_sendCommand 6E0A                          _oled_initialDispayLine 6BFC  
                                    ?_init_port 0001                                     _INTCON2bits 000FF1  
                                     copy_data0 6E1E                                      ?_oled_init 0001  
                         __end_of_read_LoRA_cmd 7232                                        Opening@i 002A  
                                      __Hrparam 0000                                        __Lrparam 0000  
                              __size_of_Opening 00D8                         ??_OSCILLATOR_Initialize 0001  
                    oled_initialDispayLine@line 0002                                    _selectedFont 0057  
                   __size_of_EUSART1_Initialize 003E                                 _oled_setDisplay 6D70  
                              __size_of_delayms 0038                       ??_EUSART1_SetErrorHandler 0003  
                   _EUSART1_DefaultErrorHandler 000000                                    ??_oled_clear 000F  
                                      _get_Data 6DA0                                        __ptext10 755A  
                                      __ptext11 6DD4                                        __ptext20 6C84  
                                      __ptext12 6CAE                                        __ptext21 6C3C  
                                      __ptext13 7140                                        __ptext30 6BE8  
                                      __ptext22 6C98                                        __ptext14 6DA0  
                                      __ptext31 6BDE                                        __ptext23 6C70  
                                      __ptext15 7068                                        __ptext24 6E40  
                                      __ptext16 6FE8                                        __ptext25 6C20  
                                      __ptext17 6CC4                                        __ptext26 6EB6  
                                      __ptext18 6D1A                                        __ptext27 6CFA  
                                      __ptext19 6F6C                                        __ptext28 6E78  
                                      __ptext29 6BF2                           __end_of_init_mod_LoRa 795C  
                                 __size_of_main 0328                      __size_of_oled_writeCommand 0014  
                                _Contrast_level 0059  EUSART1_SetOverrunErrorHandler@interruptHandler 0001  
                            __end_of_oled_clear 6CDE                     __size_of_Set_Column_Address 0016  
                                      main@cont 002D                                     _sendCommand 6DD4  
                            oled_clearRow@index 000E                     _EUSART1_FramingErrorHandler 0034  
                                    _INTCONbits 000FF2                               ?_Set_Page_Address 0001  
                                   ??_init_port 0001                                     ??_oled_init 000F  
                            ??_Set_Page_Address 0002                            oled_powerControl@vol 0002  
                       ?_PIN_MANAGER_Initialize 0001          __end_of_EUSART1_SetOverrunErrorHandler 6BFC  
       __size_of_EUSART1_SetOverrunErrorHandler 000A                  _EUSART1_SetOverrunErrorHandler 6BF2  
                                    _RCSTA1bits 000FAB                         __end_of_oled_setDisplay 6DA0  
                                _oled_putString 6FE8                               oled_clearRow@page 000D  
EUSART1_SetFramingErrorHandler@interruptHandler 0001                          __size_of_EUSART1_Write 0016  
                            _eusart1RxLastError 0036                           __end_of_oled_clearRow 6D42  
                                _oled_writeData 6C84                  __end_of_PIN_MANAGER_Initialize 6EF4  
                   ?_oled_regulorResistorSelect 0001                          __end_of_oled_putString 7068  
