

Microchip MPLAB XC8 Assembler V2.32 build 20210201212658 
                                                                                               Thu Oct 28 16:13:33 2021

Microchip MPLAB XC8 C Compiler v2.32 (Free license) build 20210201212658 Og1 
     1                           	processor	18LF45K50
     2                           	fnconf	rparam,??,?,0
     3                           	pagewidth 120
     4                           	opt	flic
     5                           	psect	idataCOMRAM,global,class=CODE,delta=1,noexec
     6                           	psect	idataBANK0,global,class=CODE,delta=1,noexec
     7                           	psect	mediumconst,global,reloc=2,class=MEDIUMCONST,delta=1,noexec
     8                           	psect	cinit,global,reloc=2,class=CODE,delta=1
     9                           	psect	bssCOMRAM,global,class=COMRAM,space=1,delta=1,lowdata,noexec
    10                           	psect	dataCOMRAM,global,class=COMRAM,space=1,delta=1,lowdata,noexec
    11                           	psect	bssBANK0,global,class=BANK0,space=1,delta=1,lowdata,noexec
    12                           	psect	dataBANK0,global,class=BANK0,space=1,delta=1,lowdata,noexec
    13                           	psect	bssBANK1,global,class=BANK1,space=1,delta=1,lowdata,noexec
    14                           	psect	cstackCOMRAM,global,class=COMRAM,space=1,delta=1,lowdata,noexec
    15                           	psect	text0,global,reloc=2,class=CODE,delta=1
    16                           	psect	text1,global,reloc=2,class=CODE,delta=1
    17                           	psect	text2,global,reloc=2,class=CODE,delta=1
    18                           	psect	text3,global,reloc=2,class=CODE,delta=1
    19                           	psect	text4,global,reloc=2,class=CODE,delta=1
    20                           	psect	text5,global,reloc=2,class=CODE,delta=1
    21                           	psect	text6,global,reloc=2,class=CODE,delta=1
    22                           	psect	text7,global,reloc=2,class=CODE,delta=1
    23                           	psect	text8,global,reloc=2,class=CODE,delta=1
    24                           	psect	text9,global,reloc=2,class=CODE,delta=1
    25                           	psect	text10,global,reloc=2,class=CODE,delta=1
    26                           	psect	text11,global,reloc=2,class=CODE,delta=1
    27                           	psect	text12,global,reloc=2,class=CODE,delta=1
    28                           	psect	text13,global,reloc=2,class=CODE,delta=1
    29                           	psect	text14,global,reloc=2,class=CODE,delta=1
    30                           	psect	text15,global,reloc=2,class=CODE,delta=1
    31                           	psect	text16,global,reloc=2,class=CODE,delta=1
    32                           	psect	text17,global,reloc=2,class=CODE,delta=1
    33                           	psect	text18,global,reloc=2,class=CODE,delta=1
    34                           	psect	text19,global,reloc=2,class=CODE,delta=1
    35                           	psect	text20,global,reloc=2,class=CODE,delta=1
    36                           	psect	text21,global,reloc=2,class=CODE,delta=1
    37                           	psect	text22,global,reloc=2,class=CODE,delta=1
    38                           	psect	text23,global,reloc=2,class=CODE,delta=1
    39                           	psect	text24,global,reloc=2,class=CODE,delta=1
    40                           	psect	text25,global,reloc=2,class=CODE,delta=1
    41                           	psect	text26,global,reloc=2,class=CODE,delta=1
    42                           	psect	text27,global,reloc=2,class=CODE,delta=1
    43                           	psect	text28,global,reloc=2,class=CODE,delta=1
    44                           	psect	text29,global,reloc=2,class=CODE,delta=1
    45                           	psect	text30,global,reloc=2,class=CODE,delta=1
    46                           	psect	text31,global,reloc=2,class=CODE,delta=1
    47                           	psect	text32,global,reloc=2,class=CODE,delta=1
    48                           	psect	text33,global,reloc=2,class=CODE,delta=1
    49                           	psect	text34,global,reloc=2,class=CODE,delta=1
    50                           	psect	intsave_regs,global,class=BIGRAM,space=1,delta=1,noexec
    51                           	psect	rparam,global,class=COMRAM,space=1,delta=1,noexec
    52                           	psect	idloc,global,abs,ovrld,class=IDLOC,space=5,delta=1,noexec
    53                           	psect	config,global,abs,ovrld,class=CONFIG,space=4,delta=1,noexec
    54  0000                     
    55                           ; Version 2.35
    56                           ; Generated 05/05/2021 GMT
    57                           ; 
    58                           ; Copyright © 2021, Microchip Technology Inc. and its subsidiaries ("Microchip")
    59                           ; All rights reserved.
    60                           ; 
    61                           ; This software is developed by Microchip Technology Inc. and its subsidiaries ("Microch
      +                          ip").
    62                           ; 
    63                           ; Redistribution and use in source and binary forms, with or without modification, are
    64                           ; permitted provided that the following conditions are met:
    65                           ; 
    66                           ;     1. Redistributions of source code must retain the above copyright notice, this lis
      +                          t of
    67                           ;        conditions and the following disclaimer.
    68                           ; 
    69                           ;     2. Redistributions in binary form must reproduce the above copyright notice, this 
      +                          list
    70                           ;        of conditions and the following disclaimer in the documentation and/or other
    71                           ;        materials provided with the distribution. Publication is not required when
    72                           ;        this file is used in an embedded application.
    73                           ; 
    74                           ;     3. Microchip's name may not be used to endorse or promote products derived from th
      +                          is
    75                           ;        software without specific prior written permission.
    76                           ; 
    77                           ; THIS SOFTWARE IS PROVIDED BY MICROCHIP "AS IS" AND ANY EXPRESS OR IMPLIED WARRANTIES,
    78                           ; INCLUDING, BUT NOT LIMITED TO, THE IMPLIED WARRANTIES OF MERCHANTABILITY AND FITNESS F
      +                          OR
    79                           ; PURPOSE ARE DISCLAIMED.  IN NO EVENT SHALL MICROCHIP BE LIABLE FOR ANY DIRECT, INDIREC
      +                          T,
    80                           ; INCIDENTAL, SPECIAL, EXEMPLARY, OR CONSEQUENTIAL DAMAGES (INCLUDING BUT NOT LIMITED TO
    81                           ; PROCUREMENT OF SUBSTITUTE GOODS OR SERVICES; LOSS OF USE, DATA OR PROFITS; OR BUSINESS
    82                           ; INTERRUPTION) HOWSOEVER CAUSED AND ON ANY THEORY OF LIABILITY, WHETHER IN CONTRACT, ST
      +                          RICT
    83                           ; LIABILITY, OR TORT (INCLUDING NEGLIGENCE OR OTHERWISE) ARISING IN ANY WAY OUT OF THE U
      +                          SE OF
    84                           ; THIS SOFTWARE, EVEN IF ADVISED OF THE POSSIBILITY OF SUCH DAMAGE.
    85                           ; 
    86                           ; 
    87                           ; Code-generator required, PIC18LF45K50 Definitions
    88                           ; 
    89                           ; SFR Addresses
    90  0000                     
    91 ;; Function _EUSART1_DefaultFramingErrorHandler is unused but had its address taken
    92  0000                     
    93 ;; Function _EUSART1_DefaultOverrunErrorHandler is unused but had its address taken
    94  0000                     
    95 ;; Function _EUSART1_DefaultErrorHandler is unused but had its address taken
    96  0000                     
    97                           	psect	idataCOMRAM
    98  00678E                     __pidataCOMRAM:
    99                           	callstack 0
   100                           
   101                           ;initializer for _selectedFont
   102  00678E  63                 	db	low _OledFont0
   103  00678F  7A                 	db	high _OledFont0
   104                           
   105                           ;initializer for _Contrast_level
   106  006790  13                 	db	19
   107                           
   108                           ;initializer for _ID_Slave
   109  006791  FE                 	db	254
   110                           
   111                           ;initializer for _ID_Master
   112  006792  FF                 	db	255
   113                           
   114                           ;initializer for _buff_size
   115  006793  28                 	db	40
   116                           
   117                           	psect	idataBANK0
   118  006820                     __pidataBANK0:
   119                           	callstack 0
   120                           
   121                           ;initializer for Opening@F5481
   122  006820  20                 	db	32
   123  006821  20                 	db	32
   124  006822  20                 	db	32
   125  006823  55                 	db	85
   126  006824  4E                 	db	78
   127  006825  49                 	db	73
   128  006826  42                 	db	66
   129  006827  41                 	db	65
   130  006828  47                 	db	71
   131  006829  55                 	db	85
   132  00682A  45                 	db	69
   133  00682B  20                 	db	32
   134  00682C  20                 	db	32
   135  00682D  20                 	db	32
   136  00682E  20                 	db	32
   137  00682F  00                 	db	0
   138                           
   139                           	psect	mediumconst
   140  0079FA                     __pmediumconst:
   141                           	callstack 0
   142  0079FA  00                 	db	0
   143  0079FB                     _dp_l:
   144                           	callstack 0
   145  0079FB  0000               	dw	0
   146  0079FD  0000               	dw	0
   147  0079FF  CFDC               	dw	53212
   148  007A01  35D1               	dw	13777
   149  007A03                     __end_of_dp_l:
   150                           	callstack 0
   151  007A03                     _dp_h:
   152                           	callstack 0
   153  007A03  0000               	dw	0
   154  007A05  0000               	dw	0
   155  007A07  C000               	dw	49152
   156  007A09  3F15               	dw	16149
   157  007A0B                     __end_of_dp_h:
   158                           	callstack 0
   159  007A0B  4260               	dw	16992
   160  007A0D  0DA2               	dw	3490
   161  007A0F                     __end_of_tiny@sqrtf$F1795:
   162                           	callstack 0
   163  007A0F  A570               	dw	42352
   164  007A11  36EC               	dw	14060
   165  007A13                     __end_of_ivln2_l:
   166                           	callstack 0
   167  007A13  AA3B               	dw	43579
   168  007A15  3FB8               	dw	16312
   169  007A17                     __end_of_ivln2:
   170                           	callstack 0
   171  007A17  384F               	dw	14415
   172  007A19  3F76               	dw	16246
   173  007A1B                     __end_of_cp:
   174                           	callstack 0
   175  007A1B  AA3C               	dw	43580
   176  007A1D  3338               	dw	13112
   177  007A1F                     __end_of_ovt:
   178                           	callstack 0
   179  007A1F  BE8C               	dw	48780
   180  007A21  35BF               	dw	13759
   181  007A23                     __end_of_lg2_l:
   182                           	callstack 0
   183  007A23  7200               	dw	29184
   184  007A25  3F31               	dw	16177
   185  007A27                     __end_of_lg2_h:
   186                           	callstack 0
   187  007A27  7218               	dw	29208
   188  007A29  3F31               	dw	16177
   189  007A2B                     __end_of_lg2:
   190                           	callstack 0
   191  007A2B  BB4C               	dw	47948
   192  007A2D  3331               	dw	13105
   193  007A2F                     __end_of_P5:
   194                           	callstack 0
   195  007A2F  EA0E               	dw	59918
   196  007A31  B5DD               	dw	46557
   197  007A33                     __end_of_P4:
   198                           	callstack 0
   199  007A33  B355               	dw	45909
   200  007A35  388A               	dw	14474
   201  007A37                     __end_of_P3:
   202                           	callstack 0
   203  007A37  0B61               	dw	2913
   204  007A39  BB36               	dw	47926
   205  007A3B                     __end_of_P2:
   206                           	callstack 0
   207  007A3B  AAAB               	dw	43691
   208  007A3D  3E2A               	dw	15914
   209  007A3F                     __end_of_P1:
   210                           	callstack 0
   211  007A3F  F142               	dw	61762
   212  007A41  3E53               	dw	15955
   213  007A43                     __end_of_L6:
   214                           	callstack 0
   215  007A43  3255               	dw	12885
   216  007A45  3E6C               	dw	15980
   217  007A47                     __end_of_L5:
   218                           	callstack 0
   219  007A47  A305               	dw	41733
   220  007A49  3E8B               	dw	16011
   221  007A4B                     __end_of_L4:
   222                           	callstack 0
   223  007A4B  AAAB               	dw	43691
   224  007A4D  3EAA               	dw	16042
   225  007A4F                     __end_of_L3:
   226                           	callstack 0
   227  007A4F  6DB7               	dw	28087
   228  007A51  3EDB               	dw	16091
   229  007A53                     __end_of_L2:
   230                           	callstack 0
   231  007A53  999A               	dw	39322
   232  007A55  3F19               	dw	16153
   233  007A57                     __end_of_L1:
   234                           	callstack 0
   235  007A57  4260               	dw	16992
   236  007A59  0DA2               	dw	3490
   237  007A5B                     __end_of_tiny:
   238                           	callstack 0
   239  007A5B  F2CA               	dw	62154
   240  007A5D  7149               	dw	29001
   241  007A5F                     __end_of_huge:
   242                           	callstack 0
   243  007A5F  0000               	dw	0
   244  007A61  4B80               	dw	19328
   245  007A63                     __end_of_two24:
   246                           	callstack 0
   247  007A63                     _OledFont0:
   248                           	callstack 0
   249  007A63  00                 	db	0
   250  007A64  00                 	db	0
   251  007A65  00                 	db	0
   252  007A66  00                 	db	0
   253  007A67  00                 	db	0
   254  007A68  00                 	db	0
   255  007A69  00                 	db	0
   256  007A6A  00                 	db	0
   257  007A6B  00                 	db	0
   258  007A6C  00                 	db	0
   259  007A6D  00                 	db	0
   260  007A6E  5F                 	db	95
   261  007A6F  00                 	db	0
   262  007A70  00                 	db	0
   263  007A71  00                 	db	0
   264  007A72  00                 	db	0
   265  007A73  00                 	db	0
   266  007A74  00                 	db	0
   267  007A75  03                 	db	3
   268  007A76  00                 	db	0
   269  007A77  03                 	db	3
   270  007A78  00                 	db	0
   271  007A79  00                 	db	0
   272  007A7A  00                 	db	0
   273  007A7B  64                 	db	100
   274  007A7C  3C                 	db	60
   275  007A7D  26                 	db	38
   276  007A7E  64                 	db	100
   277  007A7F  3C                 	db	60
   278  007A80  26                 	db	38
   279  007A81  24                 	db	36
   280  007A82  00                 	db	0
   281  007A83  26                 	db	38
   282  007A84  49                 	db	73
   283  007A85  49                 	db	73
   284  007A86  7F                 	db	127
   285  007A87  49                 	db	73
   286  007A88  49                 	db	73
   287  007A89  32                 	db	50
   288  007A8A  00                 	db	0
   289  007A8B  42                 	db	66
   290  007A8C  25                 	db	37
   291  007A8D  12                 	db	18
   292  007A8E  08                 	db	8
   293  007A8F  24                 	db	36
   294  007A90  52                 	db	82
   295  007A91  21                 	db	33
   296  007A92  00                 	db	0
   297  007A93  20                 	db	32
   298  007A94  50                 	db	80
   299  007A95  4E                 	db	78
   300  007A96  55                 	db	85
   301  007A97  22                 	db	34
   302  007A98  58                 	db	88
   303  007A99  28                 	db	40
   304  007A9A  00                 	db	0
   305  007A9B  00                 	db	0
   306  007A9C  00                 	db	0
   307  007A9D  00                 	db	0
   308  007A9E  03                 	db	3
   309  007A9F  00                 	db	0
   310  007AA0  00                 	db	0
   311  007AA1  00                 	db	0
   312  007AA2  00                 	db	0
   313  007AA3  00                 	db	0
   314  007AA4  00                 	db	0
   315  007AA5  1C                 	db	28
   316  007AA6  22                 	db	34
   317  007AA7  41                 	db	65
   318  007AA8  00                 	db	0
   319  007AA9  00                 	db	0
   320  007AAA  00                 	db	0
   321  007AAB  00                 	db	0
   322  007AAC  00                 	db	0
   323  007AAD  00                 	db	0
   324  007AAE  41                 	db	65
   325  007AAF  22                 	db	34
   326  007AB0  1C                 	db	28
   327  007AB1  00                 	db	0
   328  007AB2  00                 	db	0
   329  007AB3  00                 	db	0
   330  007AB4  15                 	db	21
   331  007AB5  15                 	db	21
   332  007AB6  0E                 	db	14
   333  007AB7  0E                 	db	14
   334  007AB8  15                 	db	21
   335  007AB9  15                 	db	21
   336  007ABA  00                 	db	0
   337  007ABB  00                 	db	0
   338  007ABC  08                 	db	8
   339  007ABD  08                 	db	8
   340  007ABE  3E                 	db	62
   341  007ABF  08                 	db	8
   342  007AC0  08                 	db	8
   343  007AC1  00                 	db	0
   344  007AC2  00                 	db	0
   345  007AC3  00                 	db	0
   346  007AC4  00                 	db	0
   347  007AC5  00                 	db	0
   348  007AC6  50                 	db	80
   349  007AC7  30                 	db	48
   350  007AC8  00                 	db	0
   351  007AC9  00                 	db	0
   352  007ACA  00                 	db	0
   353  007ACB  00                 	db	0
   354  007ACC  08                 	db	8
   355  007ACD  08                 	db	8
   356  007ACE  08                 	db	8
   357  007ACF  08                 	db	8
   358  007AD0  08                 	db	8
   359  007AD1  00                 	db	0
   360  007AD2  00                 	db	0
   361  007AD3  00                 	db	0
   362  007AD4  00                 	db	0
   363  007AD5  00                 	db	0
   364  007AD6  40                 	db	64
   365  007AD7  00                 	db	0
   366  007AD8  00                 	db	0
   367  007AD9  00                 	db	0
   368  007ADA  00                 	db	0
   369  007ADB  40                 	db	64
   370  007ADC  20                 	db	32
   371  007ADD  10                 	db	16
   372  007ADE  08                 	db	8
   373  007ADF  04                 	db	4
   374  007AE0  02                 	db	2
   375  007AE1  01                 	db	1
   376  007AE2  00                 	db	0
   377  007AE3  00                 	db	0
   378  007AE4  3E                 	db	62
   379  007AE5  41                 	db	65
   380  007AE6  41                 	db	65
   381  007AE7  41                 	db	65
   382  007AE8  3E                 	db	62
   383  007AE9  00                 	db	0
   384  007AEA  00                 	db	0
   385  007AEB  00                 	db	0
   386  007AEC  00                 	db	0
   387  007AED  41                 	db	65
   388  007AEE  7F                 	db	127
   389  007AEF  40                 	db	64
   390  007AF0  00                 	db	0
   391  007AF1  00                 	db	0
   392  007AF2  00                 	db	0
   393  007AF3  00                 	db	0
   394  007AF4  42                 	db	66
   395  007AF5  61                 	db	97
   396  007AF6  51                 	db	81
   397  007AF7  49                 	db	73
   398  007AF8  6E                 	db	110
   399  007AF9  00                 	db	0
   400  007AFA  00                 	db	0
   401  007AFB  00                 	db	0
   402  007AFC  22                 	db	34
   403  007AFD  41                 	db	65
   404  007AFE  49                 	db	73
   405  007AFF  49                 	db	73
   406  007B00  36                 	db	54
   407  007B01  00                 	db	0
   408  007B02  00                 	db	0
   409  007B03  00                 	db	0
   410  007B04  18                 	db	24
   411  007B05  14                 	db	20
   412  007B06  12                 	db	18
   413  007B07  7F                 	db	127
   414  007B08  10                 	db	16
   415  007B09  00                 	db	0
   416  007B0A  00                 	db	0
   417  007B0B  00                 	db	0
   418  007B0C  27                 	db	39
   419  007B0D  49                 	db	73
   420  007B0E  49                 	db	73
   421  007B0F  49                 	db	73
   422  007B10  71                 	db	113
   423  007B11  00                 	db	0
   424  007B12  00                 	db	0
   425  007B13  00                 	db	0
   426  007B14  3C                 	db	60
   427  007B15  4A                 	db	74
   428  007B16  49                 	db	73
   429  007B17  48                 	db	72
   430  007B18  70                 	db	112
   431  007B19  00                 	db	0
   432  007B1A  00                 	db	0
   433  007B1B  00                 	db	0
   434  007B1C  43                 	db	67
   435  007B1D  21                 	db	33
   436  007B1E  11                 	db	17
   437  007B1F  0D                 	db	13
   438  007B20  03                 	db	3
   439  007B21  00                 	db	0
   440  007B22  00                 	db	0
   441  007B23  00                 	db	0
   442  007B24  36                 	db	54
   443  007B25  49                 	db	73
   444  007B26  49                 	db	73
   445  007B27  49                 	db	73
   446  007B28  36                 	db	54
   447  007B29  00                 	db	0
   448  007B2A  00                 	db	0
   449  007B2B  00                 	db	0
   450  007B2C  06                 	db	6
   451  007B2D  09                 	db	9
   452  007B2E  49                 	db	73
   453  007B2F  29                 	db	41
   454  007B30  1E                 	db	30
   455  007B31  00                 	db	0
   456  007B32  00                 	db	0
   457  007B33  00                 	db	0
   458  007B34  00                 	db	0
   459  007B35  00                 	db	0
   460  007B36  12                 	db	18
   461  007B37  00                 	db	0
   462  007B38  00                 	db	0
   463  007B39  00                 	db	0
   464  007B3A  00                 	db	0
   465  007B3B  00                 	db	0
   466  007B3C  00                 	db	0
   467  007B3D  00                 	db	0
   468  007B3E  52                 	db	82
   469  007B3F  30                 	db	48
   470  007B40  00                 	db	0
   471  007B41  00                 	db	0
   472  007B42  00                 	db	0
   473  007B43  00                 	db	0
   474  007B44  00                 	db	0
   475  007B45  08                 	db	8
   476  007B46  14                 	db	20
   477  007B47  14                 	db	20
   478  007B48  22                 	db	34
   479  007B49  00                 	db	0
   480  007B4A  00                 	db	0
   481  007B4B  00                 	db	0
   482  007B4C  14                 	db	20
   483  007B4D  14                 	db	20
   484  007B4E  14                 	db	20
   485  007B4F  14                 	db	20
   486  007B50  14                 	db	20
   487  007B51  14                 	db	20
   488  007B52  00                 	db	0
   489  007B53  00                 	db	0
   490  007B54  00                 	db	0
   491  007B55  22                 	db	34
   492  007B56  14                 	db	20
   493  007B57  14                 	db	20
   494  007B58  08                 	db	8
   495  007B59  00                 	db	0
   496  007B5A  00                 	db	0
   497  007B5B  00                 	db	0
   498  007B5C  02                 	db	2
   499  007B5D  01                 	db	1
   500  007B5E  59                 	db	89
   501  007B5F  05                 	db	5
   502  007B60  02                 	db	2
   503  007B61  00                 	db	0
   504  007B62  00                 	db	0
   505  007B63  3E                 	db	62
   506  007B64  41                 	db	65
   507  007B65  5D                 	db	93
   508  007B66  55                 	db	85
   509  007B67  4D                 	db	77
   510  007B68  51                 	db	81
   511  007B69  2E                 	db	46
   512  007B6A  00                 	db	0
   513  007B6B  40                 	db	64
   514  007B6C  7C                 	db	124
   515  007B6D  4A                 	db	74
   516  007B6E  09                 	db	9
   517  007B6F  4A                 	db	74
   518  007B70  7C                 	db	124
   519  007B71  40                 	db	64
   520  007B72  00                 	db	0
   521  007B73  41                 	db	65
   522  007B74  7F                 	db	127
   523  007B75  49                 	db	73
   524  007B76  49                 	db	73
   525  007B77  49                 	db	73
   526  007B78  49                 	db	73
   527  007B79  36                 	db	54
   528  007B7A  00                 	db	0
   529  007B7B  1C                 	db	28
   530  007B7C  22                 	db	34
   531  007B7D  41                 	db	65
   532  007B7E  41                 	db	65
   533  007B7F  41                 	db	65
   534  007B80  41                 	db	65
   535  007B81  22                 	db	34
   536  007B82  00                 	db	0
   537  007B83  41                 	db	65
   538  007B84  7F                 	db	127
   539  007B85  41                 	db	65
   540  007B86  41                 	db	65
   541  007B87  41                 	db	65
   542  007B88  22                 	db	34
   543  007B89  1C                 	db	28
   544  007B8A  00                 	db	0
   545  007B8B  41                 	db	65
   546  007B8C  7F                 	db	127
   547  007B8D  49                 	db	73
   548  007B8E  49                 	db	73
   549  007B8F  5D                 	db	93
   550  007B90  41                 	db	65
   551  007B91  63                 	db	99
   552  007B92  00                 	db	0
   553  007B93  41                 	db	65
   554  007B94  7F                 	db	127
   555  007B95  49                 	db	73
   556  007B96  09                 	db	9
   557  007B97  1D                 	db	29
   558  007B98  01                 	db	1
   559  007B99  03                 	db	3
   560  007B9A  00                 	db	0
   561  007B9B  1C                 	db	28
   562  007B9C  22                 	db	34
   563  007B9D  41                 	db	65
   564  007B9E  49                 	db	73
   565  007B9F  49                 	db	73
   566  007BA0  3A                 	db	58
   567  007BA1  08                 	db	8
   568  007BA2  00                 	db	0
   569  007BA3  41                 	db	65
   570  007BA4  7F                 	db	127
   571  007BA5  08                 	db	8
   572  007BA6  08                 	db	8
   573  007BA7  08                 	db	8
   574  007BA8  7F                 	db	127
   575  007BA9  41                 	db	65
   576  007BAA  00                 	db	0
   577  007BAB  00                 	db	0
   578  007BAC  41                 	db	65
   579  007BAD  41                 	db	65
   580  007BAE  7F                 	db	127
   581  007BAF  41                 	db	65
   582  007BB0  41                 	db	65
   583  007BB1  00                 	db	0
   584  007BB2  00                 	db	0
   585  007BB3  30                 	db	48
   586  007BB4  40                 	db	64
   587  007BB5  41                 	db	65
   588  007BB6  41                 	db	65
   589  007BB7  3F                 	db	63
   590  007BB8  01                 	db	1
   591  007BB9  01                 	db	1
   592  007BBA  00                 	db	0
   593  007BBB  41                 	db	65
   594  007BBC  7F                 	db	127
   595  007BBD  08                 	db	8
   596  007BBE  0C                 	db	12
   597  007BBF  12                 	db	18
   598  007BC0  61                 	db	97
   599  007BC1  41                 	db	65
   600  007BC2  00                 	db	0
   601  007BC3  41                 	db	65
   602  007BC4  7F                 	db	127
   603  007BC5  41                 	db	65
   604  007BC6  40                 	db	64
   605  007BC7  40                 	db	64
   606  007BC8  40                 	db	64
   607  007BC9  60                 	db	96
   608  007BCA  00                 	db	0
   609  007BCB  41                 	db	65
   610  007BCC  7F                 	db	127
   611  007BCD  42                 	db	66
   612  007BCE  0C                 	db	12
   613  007BCF  42                 	db	66
   614  007BD0  7F                 	db	127
   615  007BD1  41                 	db	65
   616  007BD2  00                 	db	0
   617  007BD3  41                 	db	65
   618  007BD4  7F                 	db	127
   619  007BD5  42                 	db	66
   620  007BD6  0C                 	db	12
   621  007BD7  11                 	db	17
   622  007BD8  7F                 	db	127
   623  007BD9  01                 	db	1
   624  007BDA  00                 	db	0
   625  007BDB  1C                 	db	28
   626  007BDC  22                 	db	34
   627  007BDD  41                 	db	65
   628  007BDE  41                 	db	65
   629  007BDF  41                 	db	65
   630  007BE0  22                 	db	34
   631  007BE1  1C                 	db	28
   632  007BE2  00                 	db	0
   633  007BE3  41                 	db	65
   634  007BE4  7F                 	db	127
   635  007BE5  49                 	db	73
   636  007BE6  09                 	db	9
   637  007BE7  09                 	db	9
   638  007BE8  09                 	db	9
   639  007BE9  06                 	db	6
   640  007BEA  00                 	db	0
   641  007BEB  0C                 	db	12
   642  007BEC  12                 	db	18
   643  007BED  21                 	db	33
   644  007BEE  21                 	db	33
   645  007BEF  61                 	db	97
   646  007BF0  52                 	db	82
   647  007BF1  4C                 	db	76
   648  007BF2  00                 	db	0
   649  007BF3  41                 	db	65
   650  007BF4  7F                 	db	127
   651  007BF5  09                 	db	9
   652  007BF6  09                 	db	9
   653  007BF7  19                 	db	25
   654  007BF8  69                 	db	105
   655  007BF9  46                 	db	70
   656  007BFA  00                 	db	0
   657  007BFB  66                 	db	102
   658  007BFC  49                 	db	73
   659  007BFD  49                 	db	73
   660  007BFE  49                 	db	73
   661  007BFF  49                 	db	73
   662  007C00  49                 	db	73
   663  007C01  33                 	db	51
   664  007C02  00                 	db	0
   665  007C03  03                 	db	3
   666  007C04  01                 	db	1
   667  007C05  41                 	db	65
   668  007C06  7F                 	db	127
   669  007C07  41                 	db	65
   670  007C08  01                 	db	1
   671  007C09  03                 	db	3
   672  007C0A  00                 	db	0
   673  007C0B  01                 	db	1
   674  007C0C  3F                 	db	63
   675  007C0D  41                 	db	65
   676  007C0E  40                 	db	64
   677  007C0F  41                 	db	65
   678  007C10  3F                 	db	63
   679  007C11  01                 	db	1
   680  007C12  00                 	db	0
   681  007C13  01                 	db	1
   682  007C14  0F                 	db	15
   683  007C15  31                 	db	49
   684  007C16  40                 	db	64
   685  007C17  31                 	db	49
   686  007C18  0F                 	db	15
   687  007C19  01                 	db	1
   688  007C1A  00                 	db	0
   689  007C1B  01                 	db	1
   690  007C1C  1F                 	db	31
   691  007C1D  61                 	db	97
   692  007C1E  14                 	db	20
   693  007C1F  61                 	db	97
   694  007C20  1F                 	db	31
   695  007C21  01                 	db	1
   696  007C22  00                 	db	0
   697  007C23  41                 	db	65
   698  007C24  41                 	db	65
   699  007C25  36                 	db	54
   700  007C26  08                 	db	8
   701  007C27  36                 	db	54
   702  007C28  41                 	db	65
   703  007C29  41                 	db	65
   704  007C2A  00                 	db	0
   705  007C2B  01                 	db	1
   706  007C2C  03                 	db	3
   707  007C2D  44                 	db	68
   708  007C2E  78                 	db	120
   709  007C2F  44                 	db	68
   710  007C30  03                 	db	3
   711  007C31  01                 	db	1
   712  007C32  00                 	db	0
   713  007C33  43                 	db	67
   714  007C34  61                 	db	97
   715  007C35  51                 	db	81
   716  007C36  49                 	db	73
   717  007C37  45                 	db	69
   718  007C38  43                 	db	67
   719  007C39  61                 	db	97
   720  007C3A  00                 	db	0
   721  007C3B  00                 	db	0
   722  007C3C  00                 	db	0
   723  007C3D  7F                 	db	127
   724  007C3E  41                 	db	65
   725  007C3F  41                 	db	65
   726  007C40  00                 	db	0
   727  007C41  00                 	db	0
   728  007C42  00                 	db	0
   729  007C43  01                 	db	1
   730  007C44  02                 	db	2
   731  007C45  04                 	db	4
   732  007C46  08                 	db	8
   733  007C47  10                 	db	16
   734  007C48  20                 	db	32
   735  007C49  40                 	db	64
   736  007C4A  00                 	db	0
   737  007C4B  00                 	db	0
   738  007C4C  00                 	db	0
   739  007C4D  41                 	db	65
   740  007C4E  41                 	db	65
   741  007C4F  7F                 	db	127
   742  007C50  00                 	db	0
   743  007C51  00                 	db	0
   744  007C52  00                 	db	0
   745  007C53  00                 	db	0
   746  007C54  04                 	db	4
   747  007C55  02                 	db	2
   748  007C56  01                 	db	1
   749  007C57  01                 	db	1
   750  007C58  02                 	db	2
   751  007C59  04                 	db	4
   752  007C5A  00                 	db	0
   753  007C5B  00                 	db	0
   754  007C5C  40                 	db	64
   755  007C5D  40                 	db	64
   756  007C5E  40                 	db	64
   757  007C5F  40                 	db	64
   758  007C60  40                 	db	64
   759  007C61  40                 	db	64
   760  007C62  00                 	db	0
   761  007C63  00                 	db	0
   762  007C64  01                 	db	1
   763  007C65  02                 	db	2
   764  007C66  00                 	db	0
   765  007C67  00                 	db	0
   766  007C68  00                 	db	0
   767  007C69  00                 	db	0
   768  007C6A  00                 	db	0
   769  007C6B  00                 	db	0
   770  007C6C  34                 	db	52
   771  007C6D  4A                 	db	74
   772  007C6E  4A                 	db	74
   773  007C6F  4A                 	db	74
   774  007C70  3C                 	db	60
   775  007C71  40                 	db	64
   776  007C72  00                 	db	0
   777  007C73  00                 	db	0
   778  007C74  41                 	db	65
   779  007C75  3F                 	db	63
   780  007C76  48                 	db	72
   781  007C77  48                 	db	72
   782  007C78  48                 	db	72
   783  007C79  30                 	db	48
   784  007C7A  00                 	db	0
   785  007C7B  00                 	db	0
   786  007C7C  3C                 	db	60
   787  007C7D  42                 	db	66
   788  007C7E  42                 	db	66
   789  007C7F  42                 	db	66
   790  007C80  24                 	db	36
   791  007C81  00                 	db	0
   792  007C82  00                 	db	0
   793  007C83  00                 	db	0
   794  007C84  30                 	db	48
   795  007C85  48                 	db	72
   796  007C86  48                 	db	72
   797  007C87  49                 	db	73
   798  007C88  3F                 	db	63
   799  007C89  40                 	db	64
   800  007C8A  00                 	db	0
   801  007C8B  00                 	db	0
   802  007C8C  3C                 	db	60
   803  007C8D  4A                 	db	74
   804  007C8E  4A                 	db	74
   805  007C8F  4A                 	db	74
   806  007C90  2C                 	db	44
   807  007C91  00                 	db	0
   808  007C92  00                 	db	0
   809  007C93  00                 	db	0
   810  007C94  00                 	db	0
   811  007C95  48                 	db	72
   812  007C96  7E                 	db	126
   813  007C97  49                 	db	73
   814  007C98  09                 	db	9
   815  007C99  00                 	db	0
   816  007C9A  00                 	db	0
   817  007C9B  00                 	db	0
   818  007C9C  26                 	db	38
   819  007C9D  49                 	db	73
   820  007C9E  49                 	db	73
   821  007C9F  49                 	db	73
   822  007CA0  3F                 	db	63
   823  007CA1  01                 	db	1
   824  007CA2  00                 	db	0
   825  007CA3  41                 	db	65
   826  007CA4  7F                 	db	127
   827  007CA5  48                 	db	72
   828  007CA6  04                 	db	4
   829  007CA7  44                 	db	68
   830  007CA8  78                 	db	120
   831  007CA9  40                 	db	64
   832  007CAA  00                 	db	0
   833  007CAB  00                 	db	0
   834  007CAC  00                 	db	0
   835  007CAD  44                 	db	68
   836  007CAE  7D                 	db	125
   837  007CAF  40                 	db	64
   838  007CB0  00                 	db	0
   839  007CB1  00                 	db	0
   840  007CB2  00                 	db	0
   841  007CB3  00                 	db	0
   842  007CB4  00                 	db	0
   843  007CB5  40                 	db	64
   844  007CB6  44                 	db	68
   845  007CB7  3D                 	db	61
   846  007CB8  00                 	db	0
   847  007CB9  00                 	db	0
   848  007CBA  00                 	db	0
   849  007CBB  41                 	db	65
   850  007CBC  7F                 	db	127
   851  007CBD  10                 	db	16
   852  007CBE  18                 	db	24
   853  007CBF  24                 	db	36
   854  007CC0  42                 	db	66
   855  007CC1  42                 	db	66
   856  007CC2  00                 	db	0
   857  007CC3  00                 	db	0
   858  007CC4  40                 	db	64
   859  007CC5  41                 	db	65
   860  007CC6  7F                 	db	127
   861  007CC7  40                 	db	64
   862  007CC8  40                 	db	64
   863  007CC9  00                 	db	0
   864  007CCA  00                 	db	0
   865  007CCB  42                 	db	66
   866  007CCC  7E                 	db	126
   867  007CCD  02                 	db	2
   868  007CCE  7C                 	db	124
   869  007CCF  02                 	db	2
   870  007CD0  7E                 	db	126
   871  007CD1  40                 	db	64
   872  007CD2  00                 	db	0
   873  007CD3  42                 	db	66
   874  007CD4  7E                 	db	126
   875  007CD5  44                 	db	68
   876  007CD6  02                 	db	2
   877  007CD7  42                 	db	66
   878  007CD8  7C                 	db	124
   879  007CD9  40                 	db	64
   880  007CDA  00                 	db	0
   881  007CDB  00                 	db	0
   882  007CDC  3C                 	db	60
   883  007CDD  42                 	db	66
   884  007CDE  42                 	db	66
   885  007CDF  42                 	db	66
   886  007CE0  3C                 	db	60
   887  007CE1  00                 	db	0
   888  007CE2  00                 	db	0
   889  007CE3  00                 	db	0
   890  007CE4  41                 	db	65
   891  007CE5  7F                 	db	127
   892  007CE6  49                 	db	73
   893  007CE7  09                 	db	9
   894  007CE8  09                 	db	9
   895  007CE9  06                 	db	6
   896  007CEA  00                 	db	0
   897  007CEB  00                 	db	0
   898  007CEC  06                 	db	6
   899  007CED  09                 	db	9
   900  007CEE  09                 	db	9
   901  007CEF  49                 	db	73
   902  007CF0  7F                 	db	127
   903  007CF1  41                 	db	65
   904  007CF2  00                 	db	0
   905  007CF3  00                 	db	0
   906  007CF4  42                 	db	66
   907  007CF5  7E                 	db	126
   908  007CF6  44                 	db	68
   909  007CF7  02                 	db	2
   910  007CF8  02                 	db	2
   911  007CF9  04                 	db	4
   912  007CFA  00                 	db	0
   913  007CFB  00                 	db	0
   914  007CFC  64                 	db	100
   915  007CFD  4A                 	db	74
   916  007CFE  4A                 	db	74
   917  007CFF  4A                 	db	74
   918  007D00  36                 	db	54
   919  007D01  00                 	db	0
   920  007D02  00                 	db	0
   921  007D03  00                 	db	0
   922  007D04  04                 	db	4
   923  007D05  3F                 	db	63
   924  007D06  44                 	db	68
   925  007D07  44                 	db	68
   926  007D08  20                 	db	32
   927  007D09  00                 	db	0
   928  007D0A  00                 	db	0
   929  007D0B  00                 	db	0
   930  007D0C  02                 	db	2
   931  007D0D  3E                 	db	62
   932  007D0E  40                 	db	64
   933  007D0F  40                 	db	64
   934  007D10  22                 	db	34
   935  007D11  7E                 	db	126
   936  007D12  40                 	db	64
   937  007D13  02                 	db	2
   938  007D14  0E                 	db	14
   939  007D15  32                 	db	50
   940  007D16  40                 	db	64
   941  007D17  32                 	db	50
   942  007D18  0E                 	db	14
   943  007D19  02                 	db	2
   944  007D1A  00                 	db	0
   945  007D1B  02                 	db	2
   946  007D1C  1E                 	db	30
   947  007D1D  62                 	db	98
   948  007D1E  18                 	db	24
   949  007D1F  62                 	db	98
   950  007D20  1E                 	db	30
   951  007D21  02                 	db	2
   952  007D22  00                 	db	0
   953  007D23  42                 	db	66
   954  007D24  62                 	db	98
   955  007D25  14                 	db	20
   956  007D26  08                 	db	8
   957  007D27  14                 	db	20
   958  007D28  62                 	db	98
   959  007D29  42                 	db	66
   960  007D2A  00                 	db	0
   961  007D2B  01                 	db	1
   962  007D2C  43                 	db	67
   963  007D2D  45                 	db	69
   964  007D2E  38                 	db	56
   965  007D2F  05                 	db	5
   966  007D30  03                 	db	3
   967  007D31  01                 	db	1
   968  007D32  00                 	db	0
   969  007D33  00                 	db	0
   970  007D34  46                 	db	70
   971  007D35  62                 	db	98
   972  007D36  52                 	db	82
   973  007D37  4A                 	db	74
   974  007D38  46                 	db	70
   975  007D39  62                 	db	98
   976  007D3A  00                 	db	0
   977  007D3B  00                 	db	0
   978  007D3C  00                 	db	0
   979  007D3D  08                 	db	8
   980  007D3E  36                 	db	54
   981  007D3F  41                 	db	65
   982  007D40  00                 	db	0
   983  007D41  00                 	db	0
   984  007D42  00                 	db	0
   985  007D43  00                 	db	0
   986  007D44  00                 	db	0
   987  007D45  00                 	db	0
   988  007D46  7F                 	db	127
   989  007D47  00                 	db	0
   990  007D48  00                 	db	0
   991  007D49  00                 	db	0
   992  007D4A  00                 	db	0
   993  007D4B  00                 	db	0
   994  007D4C  00                 	db	0
   995  007D4D  00                 	db	0
   996  007D4E  41                 	db	65
   997  007D4F  36                 	db	54
   998  007D50  08                 	db	8
   999  007D51  00                 	db	0
  1000  007D52  00                 	db	0
  1001  007D53  00                 	db	0
  1002  007D54  18                 	db	24
  1003  007D55  08                 	db	8
  1004  007D56  08                 	db	8
  1005  007D57  10                 	db	16
  1006  007D58  10                 	db	16
  1007  007D59  18                 	db	24
  1008  007D5A  00                 	db	0
  1009  007D5B  AA                 	db	170
  1010  007D5C  55                 	db	85
  1011  007D5D  AA                 	db	170
  1012  007D5E  55                 	db	85
  1013  007D5F  AA                 	db	170
  1014  007D60  55                 	db	85
  1015  007D61  AA                 	db	170
  1016  007D62  55                 	db	85
  1017  007D63                     __end_of_OledFont0:
  1018                           	callstack 0
  1019  007D63                     _bp:
  1020                           	callstack 0
  1021  007D63  0000               	dw	0
  1022  007D65  3F80               	dw	16256
  1023  007D67  0000               	dw	0
  1024  007D69  3FC0               	dw	16320
  1025  007D6B                     __end_of_bp:
  1026                           	callstack 0
  1027  007D6B  AA00               	dw	43520
  1028  007D6D  3FB8               	dw	16312
  1029  007D6F                     __end_of_ivln2_h:
  1030                           	callstack 0
  1031  007D6F  23C6               	dw	9158
  1032  007D71  B8F6               	dw	47350
  1033  007D73                     __end_of_cp_l:
  1034                           	callstack 0
  1035  007D73  4000               	dw	16384
  1036  007D75  3F76               	dw	16246
  1037  007D77                     __end_of_cp_h:
  1038                           	callstack 0
  1039  0000                     _ANSELA	set	3931
  1040  0000                     _ANSELE	set	3935
  1041  0000                     _ANSELB	set	3932
  1042  0000                     _ANSELC	set	3933
  1043  0000                     _ANSELD	set	3934
  1044  0000                     _LATCbits	set	3979
  1045  0000                     _LATBbits	set	3978
  1046  0000                     _TRISCbits	set	3988
  1047  0000                     _TRISBbits	set	3987
  1048  0000                     _LATEbits	set	3981
  1049  0000                     _TRISEbits	set	3990
  1050  0000                     _INTCONbits	set	4082
  1051  0000                     _INTCON2bits	set	4081
  1052  0000                     _WPUB	set	3973
  1053  0000                     _TRISC	set	3988
  1054  0000                     _TRISB	set	3987
  1055  0000                     _TRISA	set	3986
  1056  0000                     _TRISE	set	3990
  1057  0000                     _LATC	set	3979
  1058  0000                     _LATB	set	3978
  1059  0000                     _LATA	set	3977
  1060  0000                     _LATD	set	3980
  1061  0000                     _LATE	set	3981
  1062  0000                     _TXREG1	set	4013
  1063  0000                     _RCREG1	set	4014
  1064  0000                     _RCSTA1bits	set	4011
  1065  0000                     _TXSTA1bits	set	4012
  1066  0000                     _PIR1bits	set	3998
  1067  0000                     _SPBRGH1	set	4016
  1068  0000                     _SPBRG1	set	4015
  1069  0000                     _TXSTA1	set	4012
  1070  0000                     _RCSTA1	set	4011
  1071  0000                     _BAUDCON1	set	4024
  1072  0000                     _ACTCON	set	4021
  1073  0000                     _OSCTUNE	set	3995
  1074  0000                     _OSCCON2	set	4050
  1075  0000                     _OSCCON	set	4051
  1076  0000                     _TRISD	set	3989
  1077  0000                     _LATAbits	set	3977
  1078  0000                     _TRISAbits	set	3986
  1079  0000                     _PLLRDY	set	32407
  1080  007D77                     STR_20:
  1081  007D77  72                 	db	114	;'r'
  1082  007D78  61                 	db	97	;'a'
  1083  007D79  64                 	db	100	;'d'
  1084  007D7A  69                 	db	105	;'i'
  1085  007D7B  6F                 	db	111	;'o'
  1086  007D7C  20                 	db	32
  1087  007D7D  73                 	db	115	;'s'
  1088  007D7E  65                 	db	101	;'e'
  1089  007D7F  74                 	db	116	;'t'
  1090  007D80  20                 	db	32
  1091  007D81  66                 	db	102	;'f'
  1092  007D82  72                 	db	114	;'r'
  1093  007D83  65                 	db	101	;'e'
  1094  007D84  71                 	db	113	;'q'
  1095  007D85  20                 	db	32
  1096  007D86  39                 	db	57	;'9'
  1097  007D87  32                 	db	50	;'2'
  1098  007D88  33                 	db	51	;'3'
  1099  007D89  33                 	db	51	;'3'
  1100  007D8A  30                 	db	48	;'0'
  1101  007D8B  30                 	db	48	;'0'
  1102  007D8C  30                 	db	48	;'0'
  1103  007D8D  30                 	db	48	;'0'
  1104  007D8E  30                 	db	48	;'0'
  1105  007D8F  0D                 	db	13
  1106  007D90  0A                 	db	10
  1107  007D91  00                 	db	0
  1108  007D92                     STR_47:
  1109  007D92  73                 	db	115	;'s'
  1110  007D93  79                 	db	121	;'y'
  1111  007D94  73                 	db	115	;'s'
  1112  007D95  20                 	db	32
  1113  007D96  73                 	db	115	;'s'
  1114  007D97  65                 	db	101	;'e'
  1115  007D98  74                 	db	116	;'t'
  1116  007D99  20                 	db	32
  1117  007D9A  70                 	db	112	;'p'
  1118  007D9B  69                 	db	105	;'i'
  1119  007D9C  6E                 	db	110	;'n'
  1120  007D9D  64                 	db	100	;'d'
  1121  007D9E  69                 	db	105	;'i'
  1122  007D9F  67                 	db	103	;'g'
  1123  007DA0  20                 	db	32
  1124  007DA1  47                 	db	71	;'G'
  1125  007DA2  50                 	db	80	;'P'
  1126  007DA3  49                 	db	73	;'I'
  1127  007DA4  4F                 	db	79	;'O'
  1128  007DA5  31                 	db	49	;'1'
  1129  007DA6  30                 	db	48	;'0'
  1130  007DA7  20                 	db	32
  1131  007DA8  30                 	db	48	;'0'
  1132  007DA9  0D                 	db	13
  1133  007DAA  0A                 	db	10
  1134  007DAB  00                 	db	0
  1135  007DAC  73                 	db	115	;'s'
  1136  007DAD  79                 	db	121	;'y'
  1137  007DAE  73                 	db	115	;'s'
  1138  007DAF  20                 	db	32
  1139  007DB0  73                 	db	115	;'s'
  1140  007DB1  65                 	db	101	;'e'
  1141  007DB2  74                 	db	116	;'t'
  1142  007DB3  20                 	db	32
  1143  007DB4  70                 	db	112	;'p'
  1144  007DB5  69                 	db	105	;'i'
  1145  007DB6  6E                 	db	110	;'n'
  1146  007DB7  64                 	db	100	;'d'
  1147  007DB8  69                 	db	105	;'i'
  1148  007DB9  67                 	db	103	;'g'
  1149  007DBA  20                 	db	32
  1150  007DBB  47                 	db	71	;'G'
  1151  007DBC  50                 	db	80	;'P'
  1152  007DBD  49                 	db	73	;'I'
  1153  007DBE  4F                 	db	79	;'O'
  1154  007DBF  31                 	db	49	;'1'
  1155  007DC0  31                 	db	49	;'1'
  1156  007DC1  20                 	db	32
  1157  007DC2  30                 	db	48	;'0'
  1158  007DC3  0D                 	db	13
  1159  007DC4  0A                 	db	10
  1160  007DC5  00                 	db	0
  1161  007DC6  73                 	db	115	;'s'
  1162  007DC7  79                 	db	121	;'y'
  1163  007DC8  73                 	db	115	;'s'
  1164  007DC9  20                 	db	32
  1165  007DCA  73                 	db	115	;'s'
  1166  007DCB  65                 	db	101	;'e'
  1167  007DCC  74                 	db	116	;'t'
  1168  007DCD  20                 	db	32
  1169  007DCE  70                 	db	112	;'p'
  1170  007DCF  69                 	db	105	;'i'
  1171  007DD0  6E                 	db	110	;'n'
  1172  007DD1  64                 	db	100	;'d'
  1173  007DD2  69                 	db	105	;'i'
  1174  007DD3  67                 	db	103	;'g'
  1175  007DD4  20                 	db	32
  1176  007DD5  47                 	db	71	;'G'
  1177  007DD6  50                 	db	80	;'P'
  1178  007DD7  49                 	db	73	;'I'
  1179  007DD8  4F                 	db	79	;'O'
  1180  007DD9  31                 	db	49	;'1'
  1181  007DDA  30                 	db	48	;'0'
  1182  007DDB  20                 	db	32
  1183  007DDC  31                 	db	49	;'1'
  1184  007DDD  0D                 	db	13
  1185  007DDE  0A                 	db	10
  1186  007DDF  00                 	db	0
  1187  007DE0  73                 	db	115	;'s'
  1188  007DE1  79                 	db	121	;'y'
  1189  007DE2  73                 	db	115	;'s'
  1190  007DE3  20                 	db	32
  1191  007DE4  73                 	db	115	;'s'
  1192  007DE5  65                 	db	101	;'e'
  1193  007DE6  74                 	db	116	;'t'
  1194  007DE7  20                 	db	32
  1195  007DE8  70                 	db	112	;'p'
  1196  007DE9  69                 	db	105	;'i'
  1197  007DEA  6E                 	db	110	;'n'
  1198  007DEB  64                 	db	100	;'d'
  1199  007DEC  69                 	db	105	;'i'
  1200  007DED  67                 	db	103	;'g'
  1201  007DEE  20                 	db	32
  1202  007DEF  47                 	db	71	;'G'
  1203  007DF0  50                 	db	80	;'P'
  1204  007DF1  49                 	db	73	;'I'
  1205  007DF2  4F                 	db	79	;'O'
  1206  007DF3  31                 	db	49	;'1'
  1207  007DF4  31                 	db	49	;'1'
  1208  007DF5  20                 	db	32
  1209  007DF6  31                 	db	49	;'1'
  1210  007DF7  0D                 	db	13
  1211  007DF8  0A                 	db	10
  1212  007DF9  00                 	db	0
  1213  007DFA                     STR_28:
  1214  007DFA  72                 	db	114	;'r'
  1215  007DFB  61                 	db	97	;'a'
  1216  007DFC  64                 	db	100	;'d'
  1217  007DFD  69                 	db	105	;'i'
  1218  007DFE  6F                 	db	111	;'o'
  1219  007DFF  20                 	db	32
  1220  007E00  73                 	db	115	;'s'
  1221  007E01  65                 	db	101	;'e'
  1222  007E02  74                 	db	116	;'t'
  1223  007E03  20                 	db	32
  1224  007E04  6D                 	db	109	;'m'
  1225  007E05  6F                 	db	111	;'o'
  1226  007E06  64                 	db	100	;'d'
  1227  007E07  20                 	db	32
  1228  007E08  6C                 	db	108	;'l'
  1229  007E09  6F                 	db	111	;'o'
  1230  007E0A  72                 	db	114	;'r'
  1231  007E0B  61                 	db	97	;'a'
  1232  007E0C  0D                 	db	13
  1233  007E0D  0A                 	db	10
  1234  007E0E  00                 	db	0
  1235  007E0F                     STR_40:
  1236  007E0F  72                 	db	114	;'r'
  1237  007E10  61                 	db	97	;'a'
  1238  007E11  64                 	db	100	;'d'
  1239  007E12  69                 	db	105	;'i'
  1240  007E13  6F                 	db	111	;'o'
  1241  007E14  20                 	db	32
  1242  007E15  73                 	db	115	;'s'
  1243  007E16  65                 	db	101	;'e'
  1244  007E17  74                 	db	116	;'t'
  1245  007E18  20                 	db	32
  1246  007E19  73                 	db	115	;'s'
  1247  007E1A  66                 	db	102	;'f'
  1248  007E1B  20                 	db	32
  1249  007E1C  53                 	db	83	;'S'
  1250  007E1D  46                 	db	70	;'F'
  1251  007E1E  31                 	db	49	;'1'
  1252  007E1F  32                 	db	50	;'2'
  1253  007E20  0D                 	db	13
  1254  007E21  0A                 	db	10
  1255  007E22  00                 	db	0
  1256  007E23                     STR_44:
  1257  007E23  72                 	db	114	;'r'
  1258  007E24  61                 	db	97	;'a'
  1259  007E25  64                 	db	100	;'d'
  1260  007E26  69                 	db	105	;'i'
  1261  007E27  6F                 	db	111	;'o'
  1262  007E28  20                 	db	32
  1263  007E29  73                 	db	115	;'s'
  1264  007E2A  65                 	db	101	;'e'
  1265  007E2B  74                 	db	116	;'t'
  1266  007E2C  20                 	db	32
  1267  007E2D  73                 	db	115	;'s'
  1268  007E2E  79                 	db	121	;'y'
  1269  007E2F  6E                 	db	110	;'n'
  1270  007E30  63                 	db	99	;'c'
  1271  007E31  20                 	db	32
  1272  007E32  33                 	db	51	;'3'
  1273  007E33  34                 	db	52	;'4'
  1274  007E34  0D                 	db	13
  1275  007E35  0A                 	db	10
  1276  007E36  00                 	db	0
  1277  007E37                     STR_32:
  1278  007E37  72                 	db	114	;'r'
  1279  007E38  61                 	db	97	;'a'
  1280  007E39  64                 	db	100	;'d'
  1281  007E3A  69                 	db	105	;'i'
  1282  007E3B  6F                 	db	111	;'o'
  1283  007E3C  20                 	db	32
  1284  007E3D  73                 	db	115	;'s'
  1285  007E3E  65                 	db	101	;'e'
  1286  007E3F  74                 	db	116	;'t'
  1287  007E40  20                 	db	32
  1288  007E41  69                 	db	105	;'i'
  1289  007E42  71                 	db	113	;'q'
  1290  007E43  69                 	db	105	;'i'
  1291  007E44  20                 	db	32
  1292  007E45  6F                 	db	111	;'o'
  1293  007E46  66                 	db	102	;'f'
  1294  007E47  66                 	db	102	;'f'
  1295  007E48  0D                 	db	13
  1296  007E49  0A                 	db	10
  1297  007E4A  00                 	db	0
  1298  007E4B                     STR_16:
  1299  007E4B  72                 	db	114	;'r'
  1300  007E4C  61                 	db	97	;'a'
  1301  007E4D  64                 	db	100	;'d'
  1302  007E4E  69                 	db	105	;'i'
  1303  007E4F  6F                 	db	111	;'o'
  1304  007E50  20                 	db	32
  1305  007E51  73                 	db	115	;'s'
  1306  007E52  65                 	db	101	;'e'
  1307  007E53  74                 	db	116	;'t'
  1308  007E54  20                 	db	32
  1309  007E55  62                 	db	98	;'b'
  1310  007E56  77                 	db	119	;'w'
  1311  007E57  20                 	db	32
  1312  007E58  32                 	db	50	;'2'
  1313  007E59  35                 	db	53	;'5'
  1314  007E5A  30                 	db	48	;'0'
  1315  007E5B  0D                 	db	13
  1316  007E5C  0A                 	db	10
  1317  007E5D  00                 	db	0
  1318  007E5E                     STR_24:
  1319  007E5E  72                 	db	114	;'r'
  1320  007E5F  61                 	db	97	;'a'
  1321  007E60  64                 	db	100	;'d'
  1322  007E61  69                 	db	105	;'i'
  1323  007E62  6F                 	db	111	;'o'
  1324  007E63  20                 	db	32
  1325  007E64  73                 	db	115	;'s'
  1326  007E65  65                 	db	101	;'e'
  1327  007E66  74                 	db	116	;'t'
  1328  007E67  20                 	db	32
  1329  007E68  63                 	db	99	;'c'
  1330  007E69  72                 	db	114	;'r'
  1331  007E6A  63                 	db	99	;'c'
  1332  007E6B  20                 	db	32
  1333  007E6C  6F                 	db	111	;'o'
  1334  007E6D  6E                 	db	110	;'n'
  1335  007E6E  0D                 	db	13
  1336  007E6F  0A                 	db	10
  1337  007E70  00                 	db	0
  1338  007E71                     STR_36:
  1339  007E71  72                 	db	114	;'r'
  1340  007E72  61                 	db	97	;'a'
  1341  007E73  64                 	db	100	;'d'
  1342  007E74  69                 	db	105	;'i'
  1343  007E75  6F                 	db	111	;'o'
  1344  007E76  20                 	db	32
  1345  007E77  73                 	db	115	;'s'
  1346  007E78  65                 	db	101	;'e'
  1347  007E79  74                 	db	116	;'t'
  1348  007E7A  20                 	db	32
  1349  007E7B  77                 	db	119	;'w'
  1350  007E7C  64                 	db	100	;'d'
  1351  007E7D  74                 	db	116	;'t'
  1352  007E7E  20                 	db	32
  1353  007E7F  30                 	db	48	;'0'
  1354  007E80  0D                 	db	13
  1355  007E81  0A                 	db	10
  1356  007E82  00                 	db	0
  1357  007E83                     STR_12:
  1358  007E83  72                 	db	114	;'r'
  1359  007E84  61                 	db	97	;'a'
  1360  007E85  64                 	db	100	;'d'
  1361  007E86  69                 	db	105	;'i'
  1362  007E87  6F                 	db	111	;'o'
  1363  007E88  20                 	db	32
  1364  007E89  73                 	db	115	;'s'
  1365  007E8A  65                 	db	101	;'e'
  1366  007E8B  74                 	db	116	;'t'
  1367  007E8C  20                 	db	32
  1368  007E8D  70                 	db	112	;'p'
  1369  007E8E  77                 	db	119	;'w'
  1370  007E8F  72                 	db	114	;'r'
  1371  007E90  20                 	db	32
  1372  007E91  33                 	db	51	;'3'
  1373  007E92  0D                 	db	13
  1374  007E93  0A                 	db	10
  1375  007E94  00                 	db	0
  1376  007E95                     STR_39:
  1377  007E95  20                 	db	32
  1378  007E96  73                 	db	115	;'s'
  1379  007E97  70                 	db	112	;'p'
  1380  007E98  72                 	db	114	;'r'
  1381  007E99  65                 	db	101	;'e'
  1382  007E9A  61                 	db	97	;'a'
  1383  007E9B  64                 	db	100	;'d'
  1384  007E9C  69                 	db	105	;'i'
  1385  007E9D  6E                 	db	110	;'n'
  1386  007E9E  67                 	db	103	;'g'
  1387  007E9F  46                 	db	70	;'F'
  1388  007EA0  61                 	db	97	;'a'
  1389  007EA1  63                 	db	99	;'c'
  1390  007EA2  74                 	db	116	;'t'
  1391  007EA3  31                 	db	49	;'1'
  1392  007EA4  32                 	db	50	;'2'
  1393  007EA5  00                 	db	0
  1394  007EA6                     STR_23:
  1395  007EA6  20                 	db	32
  1396  007EA7  45                 	db	69	;'E'
  1397  007EA8  6E                 	db	110	;'n'
  1398  007EA9  61                 	db	97	;'a'
  1399  007EAA  62                 	db	98	;'b'
  1400  007EAB  6C                 	db	108	;'l'
  1401  007EAC  65                 	db	101	;'e'
  1402  007EAD  73                 	db	115	;'s'
  1403  007EAE  20                 	db	32
  1404  007EAF  74                 	db	116	;'t'
  1405  007EB0  68                 	db	104	;'h'
  1406  007EB1  65                 	db	101	;'e'
  1407  007EB2  20                 	db	32
  1408  007EB3  43                 	db	67	;'C'
  1409  007EB4  52                 	db	82	;'R'
  1410  007EB5  43                 	db	67	;'C'
  1411  007EB6  00                 	db	0
  1412  007EB7                     STR_10:
  1413  007EB7  43                 	db	67	;'C'
  1414  007EB8  6F                 	db	111	;'o'
  1415  007EB9  6E                 	db	110	;'n'
  1416  007EBA  66                 	db	102	;'f'
  1417  007EBB  69                 	db	105	;'i'
  1418  007EBC  67                 	db	103	;'g'
  1419  007EBD  20                 	db	32
  1420  007EBE  6D                 	db	109	;'m'
  1421  007EBF  6F                 	db	111	;'o'
  1422  007EC0  64                 	db	100	;'d'
  1423  007EC1  75                 	db	117	;'u'
  1424  007EC2  6C                 	db	108	;'l'
  1425  007EC3  65                 	db	101	;'e'
  1426  007EC4  20                 	db	32
  1427  007EC5  52                 	db	82	;'R'
  1428  007EC6  4E                 	db	78	;'N'
  1429  007EC7  00                 	db	0
  1430  007EC8                     STR_19:
  1431  007EC8  20                 	db	32
  1432  007EC9  46                 	db	70	;'F'
  1433  007ECA  52                 	db	82	;'R'
  1434  007ECB  45                 	db	69	;'E'
  1435  007ECC  51                 	db	81	;'Q'
  1436  007ECD  3A                 	db	58	;':'
  1437  007ECE  20                 	db	32
  1438  007ECF  39                 	db	57	;'9'
  1439  007ED0  2E                 	db	46
  1440  007ED1  32                 	db	50	;'2'
  1441  007ED2  33                 	db	51	;'3'
  1442  007ED3  33                 	db	51	;'3'
  1443  007ED4  20                 	db	32
  1444  007ED5  4D                 	db	77	;'M'
  1445  007ED6  48                 	db	72	;'H'
  1446  007ED7  5A                 	db	90	;'Z'
  1447  007ED8  00                 	db	0
  1448  007ED9                     STR_27:
  1449  007ED9  20                 	db	32
  1450  007EDA  4C                 	db	76	;'L'
  1451  007EDB  6F                 	db	111	;'o'
  1452  007EDC  52                 	db	82	;'R'
  1453  007EDD  41                 	db	65	;'A'
  1454  007EDE  20                 	db	32
  1455  007EDF  6D                 	db	109	;'m'
  1456  007EE0  6F                 	db	111	;'o'
  1457  007EE1  64                 	db	100	;'d'
  1458  007EE2  75                 	db	117	;'u'
  1459  007EE3  6C                 	db	108	;'l'
  1460  007EE4  61                 	db	97	;'a'
  1461  007EE5  74                 	db	116	;'t'
  1462  007EE6  69                 	db	105	;'i'
  1463  007EE7  6F                 	db	111	;'o'
  1464  007EE8  6E                 	db	110	;'n'
  1465  007EE9  00                 	db	0
  1466  007EEA                     STR_2:
  1467  007EEA  20                 	db	32
  1468  007EEB  4C                 	db	76	;'L'
  1469  007EEC  6F                 	db	111	;'o'
  1470  007EED  52                 	db	82	;'R'
  1471  007EEE  41                 	db	65	;'A'
  1472  007EEF  20                 	db	32
  1473  007EF0  4D                 	db	77	;'M'
  1474  007EF1  4F                 	db	79	;'O'
  1475  007EF2  54                 	db	84	;'T'
  1476  007EF3  45                 	db	69	;'E'
  1477  007EF4  20                 	db	32
  1478  007EF5  53                 	db	83	;'S'
  1479  007EF6  49                 	db	73	;'I'
  1480  007EF7  32                 	db	50	;'2'
  1481  007EF8  43                 	db	67	;'C'
  1482  007EF9  20                 	db	32
  1483  007EFA  00                 	db	0
  1484  007EFB                     STR_11:
  1485  007EFB  20                 	db	32
  1486  007EFC  50                 	db	80	;'P'
  1487  007EFD  4F                 	db	79	;'O'
  1488  007EFE  57                 	db	87	;'W'
  1489  007EFF  45                 	db	69	;'E'
  1490  007F00  52                 	db	82	;'R'
  1491  007F01  3A                 	db	58	;':'
  1492  007F02  20                 	db	32
  1493  007F03  33                 	db	51	;'3'
  1494  007F04  20                 	db	32
  1495  007F05  6F                 	db	111	;'o'
  1496  007F06  66                 	db	102	;'f'
  1497  007F07  20                 	db	32
  1498  007F08  31                 	db	49	;'1'
  1499  007F09  34                 	db	52	;'4'
  1500  007F0A  00                 	db	0
  1501  007F0B                     STR_15:
  1502  007F0B  20                 	db	32
  1503  007F0C  57                 	db	87	;'W'
  1504  007F0D  49                 	db	73	;'I'
  1505  007F0E  44                 	db	68	;'D'
  1506  007F0F  45                 	db	69	;'E'
  1507  007F10  42                 	db	66	;'B'
  1508  007F11  41                 	db	65	;'A'
  1509  007F12  4E                 	db	78	;'N'
  1510  007F13  44                 	db	68	;'D'
  1511  007F14  3A                 	db	58	;':'
  1512  007F15  20                 	db	32
  1513  007F16  32                 	db	50	;'2'
  1514  007F17  35                 	db	53	;'5'
  1515  007F18  30                 	db	48	;'0'
  1516  007F19  00                 	db	0
  1517  007F1A                     STR_31:
  1518  007F1A  20                 	db	32
  1519  007F1B  49                 	db	73	;'I'
  1520  007F1C  6E                 	db	110	;'n'
  1521  007F1D  76                 	db	118	;'v'
  1522  007F1E  65                 	db	101	;'e'
  1523  007F1F  72                 	db	114	;'r'
  1524  007F20  74                 	db	116	;'t'
  1525  007F21  20                 	db	32
  1526  007F22  49                 	db	73	;'I'
  1527  007F23  51                 	db	81	;'Q'
  1528  007F24  20                 	db	32
  1529  007F25  6F                 	db	111	;'o'
  1530  007F26  66                 	db	102	;'f'
  1531  007F27  66                 	db	102	;'f'
  1532  007F28  00                 	db	0
  1533  007F29                     STR_30:
  1534  007F29  4C                 	db	76	;'L'
  1535  007F2A  6F                 	db	111	;'o'
  1536  007F2B  52                 	db	82	;'R'
  1537  007F2C  41                 	db	65	;'A'
  1538  007F2D  20                 	db	32
  1539  007F2E  49                 	db	73	;'I'
  1540  007F2F  6E                 	db	110	;'n'
  1541  007F30  76                 	db	118	;'v'
  1542  007F31  65                 	db	101	;'e'
  1543  007F32  72                 	db	114	;'r'
  1544  007F33  73                 	db	115	;'s'
  1545  007F34  69                 	db	105	;'i'
  1546  007F35  6F                 	db	111	;'o'
  1547  007F36  6E                 	db	110	;'n'
  1548  007F37  00                 	db	0
  1549  007F38                     STR_9:
  1550  007F38  73                 	db	115	;'s'
  1551  007F39  79                 	db	121	;'y'
  1552  007F3A  73                 	db	115	;'s'
  1553  007F3B  20                 	db	32
  1554  007F3C  67                 	db	103	;'g'
  1555  007F3D  65                 	db	101	;'e'
  1556  007F3E  74                 	db	116	;'t'
  1557  007F3F  20                 	db	32
  1558  007F40  76                 	db	118	;'v'
  1559  007F41  65                 	db	101	;'e'
  1560  007F42  72                 	db	114	;'r'
  1561  007F43  0D                 	db	13
  1562  007F44  0A                 	db	10
  1563  007F45  00                 	db	0
  1564  007F46                     STR_43:
  1565  007F46  20                 	db	32
  1566  007F47  53                 	db	83	;'S'
  1567  007F48  79                 	db	121	;'y'
  1568  007F49  6E                 	db	110	;'n'
  1569  007F4A  63                 	db	99	;'c'
  1570  007F4B  20                 	db	32
  1571  007F4C  77                 	db	119	;'w'
  1572  007F4D  6F                 	db	111	;'o'
  1573  007F4E  72                 	db	114	;'r'
  1574  007F4F  64                 	db	100	;'d'
  1575  007F50  20                 	db	32
  1576  007F51  33                 	db	51	;'3'
  1577  007F52  34                 	db	52	;'4'
  1578  007F53  00                 	db	0
  1579  007F54                     STR_35:
  1580  007F54  20                 	db	32
  1581  007F55  57                 	db	87	;'W'
  1582  007F56  44                 	db	68	;'D'
  1583  007F57  54                 	db	84	;'T'
  1584  007F58  20                 	db	32
  1585  007F59  64                 	db	100	;'d'
  1586  007F5A  65                 	db	101	;'e'
  1587  007F5B  73                 	db	115	;'s'
  1588  007F5C  61                 	db	97	;'a'
  1589  007F5D  62                 	db	98	;'b'
  1590  007F5E  6C                 	db	108	;'l'
  1591  007F5F  65                 	db	101	;'e'
  1592  007F60  64                 	db	100	;'d'
  1593  007F61  00                 	db	0
  1594  007F62                     STR_6:
  1595  007F62  74                 	db	116	;'t'
  1596  007F63  72                 	db	114	;'r'
  1597  007F64  61                 	db	97	;'a'
  1598  007F65  6E                 	db	110	;'n'
  1599  007F66  73                 	db	115	;'s'
  1600  007F67  6D                 	db	109	;'m'
  1601  007F68  69                 	db	105	;'i'
  1602  007F69  73                 	db	115	;'s'
  1603  007F6A  69                 	db	105	;'i'
  1604  007F6B  6F                 	db	111	;'o'
  1605  007F6C  6E                 	db	110	;'n'
  1606  007F6D  3D                 	db	61	;'='
  1607  007F6E  48                 	db	72	;'H'
  1608  007F6F  00                 	db	0
  1609  007F70                     STR_7:
  1610  007F70  53                 	db	83	;'S'
  1611  007F71  59                 	db	89	;'Y'
  1612  007F72  53                 	db	83	;'S'
  1613  007F73  20                 	db	32
  1614  007F74  56                 	db	86	;'V'
  1615  007F75  65                 	db	101	;'e'
  1616  007F76  72                 	db	114	;'r'
  1617  007F77  73                 	db	115	;'s'
  1618  007F78  69                 	db	105	;'i'
  1619  007F79  6F                 	db	111	;'o'
  1620  007F7A  6E                 	db	110	;'n'
  1621  007F7B  3A                 	db	58	;':'
  1622  007F7C  00                 	db	0
  1623  007F7D                     STR_18:
  1624  007F7D  46                 	db	70	;'F'
  1625  007F7E  72                 	db	114	;'r'
  1626  007F7F  65                 	db	101	;'e'
  1627  007F80  71                 	db	113	;'q'
  1628  007F81  75                 	db	117	;'u'
  1629  007F82  65                 	db	101	;'e'
  1630  007F83  6E                 	db	110	;'n'
  1631  007F84  63                 	db	99	;'c'
  1632  007F85  79                 	db	121	;'y'
  1633  007F86  20                 	db	32
  1634  007F87  46                 	db	70	;'F'
  1635  007F88  51                 	db	81	;'Q'
  1636  007F89  00                 	db	0
  1637  007F8A                     STR_38:
  1638  007F8A  53                 	db	83	;'S'
  1639  007F8B  50                 	db	80	;'P'
  1640  007F8C  52                 	db	82	;'R'
  1641  007F8D  2E                 	db	46
  1642  007F8E  20                 	db	32
  1643  007F8F  46                 	db	70	;'F'
  1644  007F90  61                 	db	97	;'a'
  1645  007F91  63                 	db	99	;'c'
  1646  007F92  74                 	db	116	;'t'
  1647  007F93  6F                 	db	111	;'o'
  1648  007F94  72                 	db	114	;'r'
  1649  007F95  00                 	db	0
  1650  007F96                     STR_5:
  1651  007F96  6D                 	db	109	;'m'
  1652  007F97  61                 	db	97	;'a'
  1653  007F98  63                 	db	99	;'c'
  1654  007F99  20                 	db	32
  1655  007F9A  70                 	db	112	;'p'
  1656  007F9B  61                 	db	97	;'a'
  1657  007F9C  75                 	db	117	;'u'
  1658  007F9D  73                 	db	115	;'s'
  1659  007F9E  65                 	db	101	;'e'
  1660  007F9F  0D                 	db	13
  1661  007FA0  0A                 	db	10
  1662  007FA1  00                 	db	0
  1663  007FA2                     STR_22:
  1664  007FA2  43                 	db	67	;'C'
  1665  007FA3  4F                 	db	79	;'O'
  1666  007FA4  44                 	db	68	;'D'
  1667  007FA5  45                 	db	69	;'E'
  1668  007FA6  20                 	db	32
  1669  007FA7  45                 	db	69	;'E'
  1670  007FA8  52                 	db	82	;'R'
  1671  007FA9  52                 	db	82	;'R'
  1672  007FAA  4F                 	db	79	;'O'
  1673  007FAB  52                 	db	82	;'R'
  1674  007FAC  00                 	db	0
  1675  007FAD                     STR_3:
  1676  007FAD  3E                 	db	62	;'>'
  1677  007FAE  3E                 	db	62	;'>'
  1678  007FAF  57                 	db	87	;'W'
  1679  007FB0  65                 	db	101	;'e'
  1680  007FB1  6C                 	db	108	;'l'
  1681  007FB2  63                 	db	99	;'c'
  1682  007FB3  6F                 	db	111	;'o'
  1683  007FB4  6D                 	db	109	;'m'
  1684  007FB5  65                 	db	101	;'e'
  1685  007FB6  21                 	db	33
  1686  007FB7  00                 	db	0
  1687  007FB8                     STR_49:
  1688  007FB8  72                 	db	114	;'r'
  1689  007FB9  61                 	db	97	;'a'
  1690  007FBA  64                 	db	100	;'d'
  1691  007FBB  69                 	db	105	;'i'
  1692  007FBC  6F                 	db	111	;'o'
  1693  007FBD  20                 	db	32
  1694  007FBE  74                 	db	116	;'t'
  1695  007FBF  78                 	db	120	;'x'
  1696  007FC0  20                 	db	32
  1697  007FC1  00                 	db	0
  1698  007FC2                     STR_26:
  1699  007FC2  4C                 	db	76	;'L'
  1700  007FC3  6F                 	db	111	;'o'
  1701  007FC4  52                 	db	82	;'R'
  1702  007FC5  41                 	db	65	;'A'
  1703  007FC6  20                 	db	32
  1704  007FC7  4D                 	db	77	;'M'
  1705  007FC8  4F                 	db	79	;'O'
  1706  007FC9  44                 	db	68	;'D'
  1707  007FCA  45                 	db	69	;'E'
  1708  007FCB  00                 	db	0
  1709  007FCC                     STR_42:
  1710  007FCC  4C                 	db	76	;'L'
  1711  007FCD  6F                 	db	111	;'o'
  1712  007FCE  52                 	db	82	;'R'
  1713  007FCF  41                 	db	65	;'A'
  1714  007FD0  20                 	db	32
  1715  007FD1  53                 	db	83	;'S'
  1716  007FD2  79                 	db	121	;'y'
  1717  007FD3  6E                 	db	110	;'n'
  1718  007FD4  63                 	db	99	;'c'
  1719  007FD5  00                 	db	0
  1720  007FD6  4C                 	db	76	;'L'
  1721  007FD7  45                 	db	69	;'E'
  1722  007FD8  44                 	db	68	;'D'
  1723  007FD9  20                 	db	32
  1724  007FDA  54                 	db	84	;'T'
  1725  007FDB  65                 	db	101	;'e'
  1726  007FDC  73                 	db	115	;'s'
  1727  007FDD  74                 	db	116	;'t'
  1728  007FDE  3A                 	db	58	;':'
  1729  007FDF  00                 	db	0
  1730  007FE0                     STR_4:
  1731  007FE0  4D                 	db	77	;'M'
  1732  007FE1  41                 	db	65	;'A'
  1733  007FE2  43                 	db	67	;'C'
  1734  007FE3  20                 	db	32
  1735  007FE4  50                 	db	80	;'P'
  1736  007FE5  41                 	db	65	;'A'
  1737  007FE6  55                 	db	85	;'U'
  1738  007FE7  53                 	db	83	;'S'
  1739  007FE8  45                 	db	69	;'E'
  1740  007FE9  00                 	db	0
  1741  007FEA                     STR_34:
  1742  007FEA  4C                 	db	76	;'L'
  1743  007FEB  6F                 	db	111	;'o'
  1744  007FEC  52                 	db	82	;'R'
  1745  007FED  41                 	db	65	;'A'
  1746  007FEE  20                 	db	32
  1747  007FEF  57                 	db	87	;'W'
  1748  007FF0  44                 	db	68	;'D'
  1749  007FF1  54                 	db	84	;'T'
  1750  007FF2  00                 	db	0
  1751  007FF3                     STR_14:
  1752  007FF3  42                 	db	66	;'B'
  1753  007FF4  61                 	db	97	;'a'
  1754  007FF5  6E                 	db	110	;'n'
  1755  007FF6  64                 	db	100	;'d'
  1756  007FF7  20                 	db	32
  1757  007FF8  42                 	db	66	;'B'
  1758  007FF9  57                 	db	87	;'W'
  1759  007FFA  00                 	db	0
  1760  007FFB                     STR_8:
  1761  007FFB  3E                 	db	62	;'>'
  1762  007FFC  3E                 	db	62	;'>'
  1763  007FFD  00                 	db	0
  1764  007FFE  00                 	db	0	; dummy byte at the end
  1765  0000                     
  1766                           ; #config settings
  1767                           
  1768                           	psect	cinit
  1769  006A98                     __pcinit:
  1770                           	callstack 0
  1771  006A98                     start_initialization:
  1772                           	callstack 0
  1773  006A98                     __initialization:
  1774                           	callstack 0
  1775                           
  1776                           ; Initialize objects allocated to BANK0 (16 bytes)
  1777                           ; load TBLPTR registers with __pidataBANK0
  1778  006A98  0E20               	movlw	low __pidataBANK0
  1779  006A9A  6EF6               	movwf	tblptrl,c
  1780  006A9C  0E68               	movlw	high __pidataBANK0
  1781  006A9E  6EF7               	movwf	tblptrh,c
  1782  006AA0  0E00               	movlw	low (__pidataBANK0 shr (0+16))
  1783  006AA2  6EF8               	movwf	tblptru,c
  1784  006AA4  EE00  F0E3         	lfsr	0,__pdataBANK0
  1785  006AA8  EE10 F010          	lfsr	1,16
  1786  006AAC                     copy_data0:
  1787  006AAC  0009               	tblrd		*+
  1788  006AAE  CFF5 FFEE          	movff	tablat,postinc0
  1789  006AB2  50E5               	movf	postdec1,w,c
  1790  006AB4  50E1               	movf	fsr1l,w,c
  1791  006AB6  E1FA               	bnz	copy_data0
  1792                           
  1793                           ; Initialize objects allocated to COMRAM (6 bytes)
  1794                           ; load TBLPTR registers with __pidataCOMRAM
  1795  006AB8  0E8E               	movlw	low __pidataCOMRAM
  1796  006ABA  6EF6               	movwf	tblptrl,c
  1797  006ABC  0E67               	movlw	high __pidataCOMRAM
  1798  006ABE  6EF7               	movwf	tblptrh,c
  1799  006AC0  0E00               	movlw	low (__pidataCOMRAM shr (0+16))
  1800  006AC2  6EF8               	movwf	tblptru,c
  1801  006AC4  EE00  F05A         	lfsr	0,__pdataCOMRAM
  1802  006AC8  EE10 F006          	lfsr	1,6
  1803  006ACC                     copy_data1:
  1804  006ACC  0009               	tblrd		*+
  1805  006ACE  CFF5 FFEE          	movff	tablat,postinc0
  1806  006AD2  50E5               	movf	postdec1,w,c
  1807  006AD4  50E1               	movf	fsr1l,w,c
  1808  006AD6  E1FA               	bnz	copy_data1
  1809                           
  1810                           ; Clear objects allocated to BANK1 (108 bytes)
  1811  006AD8  EE01  F000         	lfsr	0,__pbssBANK1
  1812  006ADC  0E6C               	movlw	108
  1813  006ADE                     clear_0:
  1814  006ADE  6AEE               	clrf	postinc0,c
  1815  006AE0  06E8               	decf	wreg,f,c
  1816  006AE2  E1FD               	bnz	clear_0
  1817                           
  1818                           ; Clear objects allocated to BANK0 (131 bytes)
  1819  006AE4  EE00  F060         	lfsr	0,__pbssBANK0
  1820  006AE8  0E83               	movlw	131
  1821  006AEA                     clear_1:
  1822  006AEA  6AEE               	clrf	postinc0,c
  1823  006AEC  06E8               	decf	wreg,f,c
  1824  006AEE  E1FD               	bnz	clear_1
  1825                           
  1826                           ; Clear objects allocated to COMRAM (9 bytes)
  1827  006AF0  EE00  F051         	lfsr	0,__pbssCOMRAM
  1828  006AF4  0E09               	movlw	9
  1829  006AF6                     clear_2:
  1830  006AF6  6AEE               	clrf	postinc0,c
  1831  006AF8  06E8               	decf	wreg,f,c
  1832  006AFA  E1FD               	bnz	clear_2
  1833  006AFC                     end_of_initialization:
  1834                           	callstack 0
  1835  006AFC                     __end_of__initialization:
  1836                           	callstack 0
  1837  006AFC  0E00               	movlw	low (__Lmediumconst shr (0+16))
  1838  006AFE  6EF8               	movwf	tblptru,c
  1839  006B00  0100               	movlb	0
  1840  006B02  EF29  F037         	goto	_main	;jump to C main() function
  1841                           
  1842                           	psect	bssCOMRAM
  1843  000051                     __pbssCOMRAM:
  1844                           	callstack 0
  1845  000051                     _EUSART1_ErrorHandler:
  1846                           	callstack 0
  1847  000051                     	ds	2
  1848  000053                     _EUSART1_OverrunErrorHandler:
  1849                           	callstack 0
  1850  000053                     	ds	2
  1851  000055                     _EUSART1_FramingErrorHandler:
  1852                           	callstack 0
  1853  000055                     	ds	2
  1854  000057                     _length:
  1855                           	callstack 0
  1856  000057                     	ds	2
  1857  000059                     _eusart1RxLastError:
  1858                           	callstack 0
  1859  000059                     	ds	1
  1860                           
  1861                           	psect	dataCOMRAM
  1862  00005A                     __pdataCOMRAM:
  1863                           	callstack 0
  1864  00005A                     _selectedFont:
  1865                           	callstack 0
  1866  00005A                     	ds	2
  1867  00005C                     _Contrast_level:
  1868                           	callstack 0
  1869  00005C                     	ds	1
  1870  00005D                     _ID_Slave:
  1871                           	callstack 0
  1872  00005D                     	ds	1
  1873  00005E                     _ID_Master:
  1874                           	callstack 0
  1875  00005E                     	ds	1
  1876  00005F                     _buff_size:
  1877                           	callstack 0
  1878  00005F                     	ds	1
  1879                           
  1880                           	psect	bssBANK0
  1881  000060                     __pbssBANK0:
  1882                           	callstack 0
  1883  000060                     _DataSP:
  1884                           	callstack 0
  1885  000060                     	ds	20
  1886  000074                     _DataTime:
  1887                           	callstack 0
  1888  000074                     	ds	9
  1889  00007D                     fabsf@F465:
  1890                           	callstack 0
  1891  00007D                     	ds	4
  1892  000081                     _errno:
  1893                           	callstack 0
  1894  000081                     	ds	2
  1895  000083                     _log:
  1896                           	callstack 0
  1897  000083                     	ds	2
  1898  000085                     _cmd_message:
  1899                           	callstack 0
  1900  000085                     	ds	40
  1901  0000AD                     _hexa:
  1902                           	callstack 0
  1903  0000AD                     	ds	34
  1904  0000CF                     _auxiliary:
  1905                           	callstack 0
  1906  0000CF                     	ds	20
  1907                           
  1908                           	psect	dataBANK0
  1909  0000E3                     __pdataBANK0:
  1910                           	callstack 0
  1911  0000E3                     Opening@F5481:
  1912                           	callstack 0
  1913  0000E3                     	ds	16
  1914                           
  1915                           	psect	bssBANK1
  1916  000100                     __pbssBANK1:
  1917                           	callstack 0
  1918  000100                     _int_to_hex:
  1919                           	callstack 0
  1920  000100                     	ds	68
  1921  000144                     _LoRA_RX_data:
  1922                           	callstack 0
  1923  000144                     	ds	40
  1924                           
  1925                           	psect	cstackCOMRAM
  1926  000001                     __pcstackCOMRAM:
  1927                           	callstack 0
  1928  000001                     ?_Len:
  1929                           	callstack 0
  1930  000001                     EUSART1_Write@txData:
  1931                           	callstack 0
  1932  000001                     oled_writeCommand@command:
  1933                           	callstack 0
  1934  000001                     oled_writeData@data:
  1935                           	callstack 0
  1936  000001                     EUSART1_SetFramingErrorHandler@interruptHandler:
  1937                           	callstack 0
  1938  000001                     EUSART1_SetOverrunErrorHandler@interruptHandler:
  1939                           	callstack 0
  1940  000001                     EUSART1_SetErrorHandler@interruptHandler:
  1941                           	callstack 0
  1942  000001                     oled_setFont@font:
  1943                           	callstack 0
  1944  000001                     Len@Data:
  1945                           	callstack 0
  1946                           
  1947                           ; 2 bytes @ 0x0
  1948  000001                     	ds	1
  1949  000002                     Set_Page_Address@address:
  1950                           	callstack 0
  1951  000002                     Set_Column_Address@address:
  1952                           	callstack 0
  1953  000002                     oled_setDisplay@displayType:
  1954                           	callstack 0
  1955  000002                     oled_setContrastControlRegister@mod:
  1956                           	callstack 0
  1957  000002                     oled_initialDispayLine@line:
  1958                           	callstack 0
  1959  000002                     oled_powerControl@vol:
  1960                           	callstack 0
  1961  000002                     oled_regulorResistorSelect@r:
  1962                           	callstack 0
  1963  000002                     sendCommand@String:
  1964                           	callstack 0
  1965  000002                     Read_LoRA_cmd@Flag:
  1966                           	callstack 0
  1967                           
  1968                           ; 2 bytes @ 0x1
  1969  000002                     	ds	1
  1970  000003                     ??_oled_devInit:
  1971  000003                     oled_putChar@station_dot:
  1972                           	callstack 0
  1973  000003                     Len@L:
  1974                           	callstack 0
  1975                           
  1976                           ; 2 bytes @ 0x2
  1977  000003                     	ds	1
  1978  000004                     oled_putChar@start_page:
  1979                           	callstack 0
  1980  000004                     Read_LoRA_cmd@i:
  1981                           	callstack 0
  1982                           
  1983                           ; 2 bytes @ 0x3
  1984  000004                     	ds	1
  1985  000005                     ??_oled_putChar:
  1986  000005                     DATAtoHEXA@datahex:
  1987                           	callstack 0
  1988                           
  1989                           ; 8 bytes @ 0x4
  1990  000005                     	ds	6
  1991  00000B                     oled_putChar@k:
  1992                           	callstack 0
  1993                           
  1994                           ; 1 bytes @ 0xA
  1995  00000B                     	ds	1
  1996  00000C                     oled_putChar@index:
  1997                           	callstack 0
  1998                           
  1999                           ; 1 bytes @ 0xB
  2000  00000C                     	ds	1
  2001  00000D                     oled_clearRow@page:
  2002                           	callstack 0
  2003  00000D                     oled_putString@string:
  2004                           	callstack 0
  2005  00000D                     DATAtoHEXA@Type:
  2006                           	callstack 0
  2007                           
  2008                           ; 2 bytes @ 0xC
  2009  00000D                     	ds	1
  2010  00000E                     oled_clearRow@index:
  2011                           	callstack 0
  2012                           
  2013                           ; 1 bytes @ 0xD
  2014  00000E                     	ds	1
  2015  00000F                     ??_DATAtoHEXA:
  2016  00000F                     oled_putString@station_dot:
  2017                           	callstack 0
  2018                           
  2019                           ; 1 bytes @ 0xE
  2020  00000F                     	ds	1
  2021  000010                     oled_putString@start_page:
  2022                           	callstack 0
  2023                           
  2024                           ; 1 bytes @ 0xF
  2025  000010                     	ds	1
  2026  000011                     oled_putString@index:
  2027                           	callstack 0
  2028                           
  2029                           ; 1 bytes @ 0x10
  2030  000011                     	ds	1
  2031  000012                     ??_Init_mod_LoRa:
  2032  000012                     ??_Opening:
  2033                           
  2034                           ; 1 bytes @ 0x11
  2035  000012                     	ds	5
  2036  000017                     DATAtoHEXA@residue:
  2037                           	callstack 0
  2038                           
  2039                           ; 2 bytes @ 0x16
  2040  000017                     	ds	2
  2041  000019                     DATAtoHEXA@condition:
  2042                           	callstack 0
  2043  000019                     Opening@aux:
  2044                           	callstack 0
  2045                           
  2046                           ; 16 bytes @ 0x18
  2047  000019                     	ds	2
  2048  00001B                     DATAtoHEXA@result:
  2049                           	callstack 0
  2050                           
  2051                           ; 8 bytes @ 0x1A
  2052  00001B                     	ds	8
  2053  000023                     DATAtoHEXA@i:
  2054                           	callstack 0
  2055                           
  2056                           ; 2 bytes @ 0x22
  2057  000023                     	ds	2
  2058  000025                     DATAtoHEXA@j:
  2059                           	callstack 0
  2060                           
  2061                           ; 2 bytes @ 0x24
  2062  000025                     	ds	2
  2063  000027                     DATAtoHEXA@k:
  2064                           	callstack 0
  2065                           
  2066                           ; 2 bytes @ 0x26
  2067  000027                     	ds	2
  2068  000029                     Opening@size:
  2069                           	callstack 0
  2070  000029                     Send_Data_Pakect@IDRecibeMsg:
  2071                           	callstack 0
  2072                           
  2073                           ; 1 bytes @ 0x28
  2074  000029                     	ds	1
  2075  00002A                     Opening@i:
  2076                           	callstack 0
  2077  00002A                     Send_Data_Pakect@TypeCommand:
  2078                           	callstack 0
  2079                           
  2080                           ; 1 bytes @ 0x29
  2081  00002A                     	ds	1
  2082  00002B                     Send_Data_Pakect@MeasuredData:
  2083                           	callstack 0
  2084                           
  2085                           ; 8 bytes @ 0x2A
  2086  00002B                     	ds	8
  2087  000033                     ??_Send_Data_Pakect:
  2088                           
  2089                           ; 1 bytes @ 0x32
  2090  000033                     	ds	10
  2091  00003D                     Send_Data_Pakect@ChecksumAUX:
  2092                           	callstack 0
  2093                           
  2094                           ; 8 bytes @ 0x3C
  2095  00003D                     	ds	8
  2096  000045                     Send_Data_Pakect@IDSendMsg:
  2097                           	callstack 0
  2098                           
  2099                           ; 1 bytes @ 0x44
  2100  000045                     	ds	1
  2101  000046                     Send_Data_Pakect@i:
  2102                           	callstack 0
  2103                           
  2104                           ; 1 bytes @ 0x45
  2105  000046                     	ds	1
  2106  000047                     Send_Data_Pakect@j:
  2107                           	callstack 0
  2108                           
  2109                           ; 1 bytes @ 0x46
  2110  000047                     	ds	1
  2111  000048                     ??_main:
  2112                           
  2113                           ; 1 bytes @ 0x47
  2114  000048                     	ds	2
  2115  00004A                     main@ID_Master:
  2116                           	callstack 0
  2117                           
  2118                           ; 1 bytes @ 0x49
  2119  00004A                     	ds	1
  2120  00004B                     main@Type_comm:
  2121                           	callstack 0
  2122                           
  2123                           ; 1 bytes @ 0x4A
  2124  00004B                     	ds	1
  2125  00004C                     main@Date:
  2126                           	callstack 0
  2127                           
  2128                           ; 4 bytes @ 0x4B
  2129  00004C                     	ds	4
  2130  000050                     main@ID_Slave:
  2131                           	callstack 0
  2132                           
  2133                           ; 1 bytes @ 0x4F
  2134  000050                     	ds	1
  2135                           
  2136 ;;
  2137 ;;Main: autosize = 0, tempsize = 2, incstack = 0, save=0
  2138 ;;
  2139 ;; *************** function _main *****************
  2140 ;; Defined at:
  2141 ;;		line 72 in file "main.c"
  2142 ;; Parameters:    Size  Location     Type
  2143 ;;		None
  2144 ;; Auto vars:     Size  Location     Type
  2145 ;;  Date            4   75[COMRAM] unsigned long 
  2146 ;;  time            4    0        unsigned long 
  2147 ;;  cont            2    0        unsigned short 
  2148 ;;  ID_Slave        1   79[COMRAM] unsigned char 
  2149 ;;  Type_comm       1   74[COMRAM] unsigned char 
  2150 ;;  ID_Master       1   73[COMRAM] unsigned char 
  2151 ;;  inmediate       1    0        unsigned char 
  2152 ;;  dataType        1    0        unsigned char 
  2153 ;; Return value:  Size  Location     Type
  2154 ;;                  1    wreg      void 
  2155 ;; Registers used:
  2156 ;;		wreg, fsr0l, fsr0h, fsr1l, fsr1h, fsr2l, fsr2h, status,2, status,0, tblptrl, tblptrh, tblptru, prodl, prodh, cstack
  2157 ;; Tracked objects:
  2158 ;;		On entry : 0/0
  2159 ;;		On exit  : 0/0
  2160 ;;		Unchanged: 0/0
  2161 ;; Data sizes:     COMRAM   BANK0   BANK1   BANK2   BANK3   BANK4   BANK5   BANK6   BANK7
  2162 ;;      Params:         0       0       0       0       0       0       0       0       0
  2163 ;;      Locals:         7       0       0       0       0       0       0       0       0
  2164 ;;      Temps:          2       0       0       0       0       0       0       0       0
  2165 ;;      Totals:         9       0       0       0       0       0       0       0       0
  2166 ;;Total ram usage:        9 bytes
  2167 ;; Hardware stack levels required when called: 6
  2168 ;; This function calls:
  2169 ;;		_Init_mod_LoRa
  2170 ;;		_Opening
  2171 ;;		_Read_LoRA_cmd
  2172 ;;		_SYSTEM_Initialize
  2173 ;;		_Send_Data_Pakect
  2174 ;;		_init_port
  2175 ;;		_oled_clear
  2176 ;;		_oled_init
  2177 ;;		_oled_putString
  2178 ;;		_sendCommand
  2179 ;; This function is called by:
  2180 ;;		Startup code after reset
  2181 ;; This function uses a non-reentrant model
  2182 ;;
  2183                           
  2184                           	psect	text0
  2185  006E52                     __ptext0:
  2186                           	callstack 0
  2187  006E52                     _main:
  2188                           	callstack 25
  2189  006E52                     
  2190                           ;main.c: 77:     SYSTEM_Initialize();
  2191  006E52  ECEB  F033         	call	_SYSTEM_Initialize	;wreg free
  2192  006E56                     
  2193                           ;main.c: 78:     init_port();
  2194  006E56  ECF9  F033         	call	_init_port	;wreg free
  2195  006E5A                     
  2196                           ;main.c: 79:     _delay((unsigned long)((200)*(48000000/4000.0)));
  2197  006E5A  0E0D               	movlw	13
  2198  006E5C  6E49               	movwf	(??_main+1)^0,c
  2199  006E5E  0E2D               	movlw	45
  2200  006E60  6E48               	movwf	??_main^0,c
  2201  006E62  0ED8               	movlw	216
  2202  006E64                     u4417:
  2203  006E64  2EE8               	decfsz	wreg,f,c
  2204  006E66  D7FE               	bra	u4417
  2205  006E68  2E48               	decfsz	??_main^0,f,c
  2206  006E6A  D7FC               	bra	u4417
  2207  006E6C  2E49               	decfsz	(??_main+1)^0,f,c
  2208  006E6E  D7FA               	bra	u4417
  2209  006E70                     
  2210                           ;main.c: 80:     oled_init();
  2211  006E70  EC95  F034         	call	_oled_init	;wreg free
  2212  006E74                     
  2213                           ;main.c: 81:     Opening();
  2214  006E74  EC3D  F036         	call	_Opening	;wreg free
  2215  006E78                     
  2216                           ;main.c: 82:     Init_mod_LoRa();
  2217  006E78  ECAE  F03A         	call	_Init_mod_LoRa	;wreg free
  2218  006E7C                     
  2219                           ;main.c: 83:     oled_clear();
  2220  006E7C  EC42  F034         	call	_oled_clear	;wreg free
  2221  006E80                     
  2222                           ;main.c: 88:     uint8_t ID_Master = 255;
  2223  006E80  684A               	setf	main@ID_Master^0,c
  2224  006E82                     
  2225                           ;main.c: 89:     uint8_t ID_Slave = 254;
  2226  006E82  0EFE               	movlw	254
  2227  006E84  6E50               	movwf	main@ID_Slave^0,c
  2228  006E86                     
  2229                           ;main.c: 90:     uint8_t Type_comm = 4;
  2230  006E86  0E04               	movlw	4
  2231  006E88  6E4B               	movwf	main@Type_comm^0,c
  2232  006E8A                     
  2233                           ;main.c: 95:     uint32_t Date = 31122021;
  2234  006E8A  0E65               	movlw	101
  2235  006E8C  6E4C               	movwf	main@Date^0,c
  2236  006E8E  0EE2               	movlw	226
  2237  006E90  6E4D               	movwf	(main@Date+1)^0,c
  2238  006E92  0EDA               	movlw	218
  2239  006E94  6E4E               	movwf	(main@Date+2)^0,c
  2240  006E96  0E01               	movlw	1
  2241  006E98  6E4F               	movwf	(main@Date+3)^0,c
  2242  006E9A                     
  2243                           ;main.c: 96:     oled_putString("MAC PAUSE",0,0);
  2244  006E9A  0EE0               	movlw	low STR_4
  2245  006E9C  6E0D               	movwf	oled_putString@string^0,c
  2246  006E9E  0E7F               	movlw	high STR_4
  2247  006EA0  6E0E               	movwf	(oled_putString@string+1)^0,c
  2248  006EA2  0E00               	movlw	0
  2249  006EA4  6E0F               	movwf	oled_putString@station_dot^0,c
  2250  006EA6  0E00               	movlw	0
  2251  006EA8  6E10               	movwf	oled_putString@start_page^0,c
  2252  006EAA  ECFD  F035         	call	_oled_putString	;wreg free
  2253  006EAE                     
  2254                           ;main.c: 97:     sendCommand("mac pause\r\n");
  2255  006EAE  0E96               	movlw	low STR_5
  2256  006EB0  6E02               	movwf	sendCommand@String^0,c
  2257  006EB2  0E7F               	movlw	high STR_5
  2258  006EB4  6E03               	movwf	(sendCommand@String+1)^0,c
  2259  006EB6  EC1D  F035         	call	_sendCommand	;wreg free
  2260  006EBA                     
  2261                           ;main.c: 98:     Read_LoRA_cmd();
  2262  006EBA  ECA9  F036         	call	_Read_LoRA_cmd	;wreg free
  2263  006EBE                     
  2264                           ;main.c: 99:     oled_putString(cmd_message,0,1);
  2265  006EBE  0E85               	movlw	low _cmd_message
  2266  006EC0  6E0D               	movwf	oled_putString@string^0,c
  2267  006EC2  0E00               	movlw	high _cmd_message
  2268  006EC4  6E0E               	movwf	(oled_putString@string+1)^0,c
  2269  006EC6  0E00               	movlw	0
  2270  006EC8  6E0F               	movwf	oled_putString@station_dot^0,c
  2271  006ECA  0E01               	movlw	1
  2272  006ECC  6E10               	movwf	oled_putString@start_page^0,c
  2273  006ECE  ECFD  F035         	call	_oled_putString	;wreg free
  2274  006ED2                     
  2275                           ;main.c: 100:     _delay((unsigned long)((1000)*(48000000/4000.0)));
  2276  006ED2  0E3D               	movlw	61
  2277  006ED4  6E49               	movwf	(??_main+1)^0,c
  2278  006ED6  0EE1               	movlw	225
  2279  006ED8  6E48               	movwf	??_main^0,c
  2280  006EDA  0E40               	movlw	64
  2281  006EDC                     u4427:
  2282  006EDC  2EE8               	decfsz	wreg,f,c
  2283  006EDE  D7FE               	bra	u4427
  2284  006EE0  2E48               	decfsz	??_main^0,f,c
  2285  006EE2  D7FC               	bra	u4427
  2286  006EE4  2E49               	decfsz	(??_main+1)^0,f,c
  2287  006EE6  D7FA               	bra	u4427
  2288  006EE8                     
  2289                           ;main.c: 101:      oled_clear();
  2290  006EE8  EC42  F034         	call	_oled_clear	;wreg free
  2291  006EEC                     
  2292                           ;main.c: 102:     oled_putString("transmision=H",0,0);
  2293  006EEC  0E62               	movlw	low STR_6
  2294  006EEE  6E0D               	movwf	oled_putString@string^0,c
  2295  006EF0  0E7F               	movlw	high STR_6
  2296  006EF2  6E0E               	movwf	(oled_putString@string+1)^0,c
  2297  006EF4  0E00               	movlw	0
  2298  006EF6  6E0F               	movwf	oled_putString@station_dot^0,c
  2299  006EF8  0E00               	movlw	0
  2300  006EFA  6E10               	movwf	oled_putString@start_page^0,c
  2301  006EFC  ECFD  F035         	call	_oled_putString	;wreg free
  2302  006F00                     l3750:
  2303                           
  2304                           ;main.c: 105:     {;main.c: 108:         Send_Data_Pakect(ID_Slave,ID_Slave,Type_comm,Da
      +                          te);
  2305  006F00  C050  F029         	movff	main@ID_Slave,Send_Data_Pakect@IDRecibeMsg
  2306  006F04  C04B  F02A         	movff	main@Type_comm,Send_Data_Pakect@TypeCommand
  2307  006F08  504C               	movf	main@Date^0,w,c
  2308  006F0A  6E2B               	movwf	Send_Data_Pakect@MeasuredData^0,c
  2309  006F0C  504D               	movf	(main@Date+1)^0,w,c
  2310  006F0E  6E2C               	movwf	(Send_Data_Pakect@MeasuredData+1)^0,c
  2311  006F10  504E               	movf	(main@Date+2)^0,w,c
  2312  006F12  6E2D               	movwf	(Send_Data_Pakect@MeasuredData+2)^0,c
  2313  006F14  504F               	movf	(main@Date+3)^0,w,c
  2314  006F16  6E2E               	movwf	(Send_Data_Pakect@MeasuredData+3)^0,c
  2315  006F18  6A2F               	clrf	(Send_Data_Pakect@MeasuredData+4)^0,c
  2316  006F1A  6A30               	clrf	(Send_Data_Pakect@MeasuredData+5)^0,c
  2317  006F1C  6A31               	clrf	(Send_Data_Pakect@MeasuredData+6)^0,c
  2318  006F1E  6A32               	clrf	(Send_Data_Pakect@MeasuredData+7)^0,c
  2319  006F20  5050               	movf	main@ID_Slave^0,w,c
  2320  006F22  ECC0  F037         	call	_Send_Data_Pakect
  2321  006F26                     
  2322                           ;main.c: 109:         _delay((unsigned long)((1000)*(48000000/4000.0)));
  2323  006F26  0E3D               	movlw	61
  2324  006F28  6E49               	movwf	(??_main+1)^0,c
  2325  006F2A  0EE1               	movlw	225
  2326  006F2C  6E48               	movwf	??_main^0,c
  2327  006F2E  0E40               	movlw	64
  2328  006F30                     u4437:
  2329  006F30  2EE8               	decfsz	wreg,f,c
  2330  006F32  D7FE               	bra	u4437
  2331  006F34  2E48               	decfsz	??_main^0,f,c
  2332  006F36  D7FC               	bra	u4437
  2333  006F38  2E49               	decfsz	(??_main+1)^0,f,c
  2334  006F3A  D7FA               	bra	u4437
  2335  006F3C                     
  2336                           ;main.c: 110:         Send_Data_Pakect(ID_Master,ID_Slave,3,Date);
  2337  006F3C  C050  F029         	movff	main@ID_Slave,Send_Data_Pakect@IDRecibeMsg
  2338  006F40  0E03               	movlw	3
  2339  006F42  6E2A               	movwf	Send_Data_Pakect@TypeCommand^0,c
  2340  006F44  504C               	movf	main@Date^0,w,c
  2341  006F46  6E2B               	movwf	Send_Data_Pakect@MeasuredData^0,c
  2342  006F48  504D               	movf	(main@Date+1)^0,w,c
  2343  006F4A  6E2C               	movwf	(Send_Data_Pakect@MeasuredData+1)^0,c
  2344  006F4C  504E               	movf	(main@Date+2)^0,w,c
  2345  006F4E  6E2D               	movwf	(Send_Data_Pakect@MeasuredData+2)^0,c
  2346  006F50  504F               	movf	(main@Date+3)^0,w,c
  2347  006F52  6E2E               	movwf	(Send_Data_Pakect@MeasuredData+3)^0,c
  2348  006F54  6A2F               	clrf	(Send_Data_Pakect@MeasuredData+4)^0,c
  2349  006F56  6A30               	clrf	(Send_Data_Pakect@MeasuredData+5)^0,c
  2350  006F58  6A31               	clrf	(Send_Data_Pakect@MeasuredData+6)^0,c
  2351  006F5A  6A32               	clrf	(Send_Data_Pakect@MeasuredData+7)^0,c
  2352  006F5C  504A               	movf	main@ID_Master^0,w,c
  2353  006F5E  ECC0  F037         	call	_Send_Data_Pakect
  2354  006F62                     
  2355                           ;main.c: 111:          _delay((unsigned long)((1000)*(48000000/4000.0)));
  2356  006F62  0E3D               	movlw	61
  2357  006F64  6E49               	movwf	(??_main+1)^0,c
  2358  006F66  0EE1               	movlw	225
  2359  006F68  6E48               	movwf	??_main^0,c
  2360  006F6A  0E40               	movlw	64
  2361  006F6C                     u4447:
  2362  006F6C  2EE8               	decfsz	wreg,f,c
  2363  006F6E  D7FE               	bra	u4447
  2364  006F70  2E48               	decfsz	??_main^0,f,c
  2365  006F72  D7FC               	bra	u4447
  2366  006F74  2E49               	decfsz	(??_main+1)^0,f,c
  2367  006F76  D7FA               	bra	u4447
  2368  006F78  EF80  F037         	goto	l3750
  2369  006F7C  EF00  F000         	goto	start
  2370  006F80                     __end_of_main:
  2371                           	callstack 0
  2372                           
  2373 ;; *************** function _oled_init *****************
  2374 ;; Defined at:
  2375 ;;		line 366 in file "SSD1306oLED.c"
  2376 ;; Parameters:    Size  Location     Type
  2377 ;;		None
  2378 ;; Auto vars:     Size  Location     Type
  2379 ;;		None
  2380 ;; Return value:  Size  Location     Type
  2381 ;;                  1    wreg      void 
  2382 ;; Registers used:
  2383 ;;		wreg, status,2, status,0, tblptrl, tblptrh, tblptru, prodl, prodh, cstack
  2384 ;; Tracked objects:
  2385 ;;		On entry : 0/0
  2386 ;;		On exit  : 0/0
  2387 ;;		Unchanged: 0/0
  2388 ;; Data sizes:     COMRAM   BANK0   BANK1   BANK2   BANK3   BANK4   BANK5   BANK6   BANK7
  2389 ;;      Params:         0       0       0       0       0       0       0       0       0
  2390 ;;      Locals:         0       0       0       0       0       0       0       0       0
  2391 ;;      Temps:          0       0       0       0       0       0       0       0       0
  2392 ;;      Totals:         0       0       0       0       0       0       0       0       0
  2393 ;;Total ram usage:        0 bytes
  2394 ;; Hardware stack levels used: 1
  2395 ;; Hardware stack levels required when called: 5
  2396 ;; This function calls:
  2397 ;;		_oled_clear
  2398 ;;		_oled_devInit
  2399 ;;		_oled_setDisplay
  2400 ;;		_oled_setFont
  2401 ;; This function is called by:
  2402 ;;		_main
  2403 ;; This function uses a non-reentrant model
  2404 ;;
  2405                           
  2406                           	psect	text1
  2407  00692A                     __ptext1:
  2408                           	callstack 0
  2409  00692A                     _oled_init:
  2410                           	callstack 25
  2411  00692A                     
  2412                           ;SSD1306oLED.c: 369:     TRISEbits.TRISE2 = 0;
  2413  00692A  9496               	bcf	150,2,c	;volatile
  2414                           
  2415                           ;SSD1306oLED.c: 370:     LATEbits.LATE2 = 1;
  2416  00692C  848D               	bsf	141,2,c	;volatile
  2417                           
  2418                           ;SSD1306oLED.c: 371:     TRISBbits.TRISB2 = 0;
  2419  00692E  9493               	bcf	147,2,c	;volatile
  2420                           
  2421                           ;SSD1306oLED.c: 372:     TRISBbits.TRISB3 = 0;
  2422  006930  9693               	bcf	147,3,c	;volatile
  2423                           
  2424                           ;SSD1306oLED.c: 373:     TRISBbits.TRISB4 = 0;
  2425  006932  9893               	bcf	147,4,c	;volatile
  2426                           
  2427                           ;SSD1306oLED.c: 374:     TRISCbits.TRISC0 = 0;
  2428  006934  9094               	bcf	148,0,c	;volatile
  2429                           
  2430                           ;SSD1306oLED.c: 375:     TRISCbits.TRISC1 = 0;
  2431  006936  9294               	bcf	148,1,c	;volatile
  2432                           
  2433                           ;SSD1306oLED.c: 377:     LATBbits.LATB3 = 1;
  2434  006938  868A               	bsf	138,3,c	;volatile
  2435                           
  2436                           ;SSD1306oLED.c: 379:     LATBbits.LATB4 = 0;
  2437  00693A  988A               	bcf	138,4,c	;volatile
  2438  00693C                     
  2439                           ;SSD1306oLED.c: 381:     oled_devInit();
  2440  00693C  EC83  F035         	call	_oled_devInit	;wreg free
  2441  006940                     
  2442                           ;SSD1306oLED.c: 383:     oled_setDisplay(Inverse);
  2443  006940  0E01               	movlw	1
  2444  006942  ECAC  F034         	call	_oled_setDisplay
  2445  006946                     
  2446                           ;SSD1306oLED.c: 384:     oled_setFont(OledFont0);
  2447  006946  0E63               	movlw	low _OledFont0
  2448  006948  6E01               	movwf	oled_setFont@font^0,c
  2449  00694A  0E7A               	movlw	high _OledFont0
  2450  00694C  6E02               	movwf	(oled_setFont@font+1)^0,c
  2451  00694E  EC4F  F034         	call	_oled_setFont	;wreg free
  2452  006952                     
  2453                           ;SSD1306oLED.c: 385:     oled_clear();
  2454  006952  EC42  F034         	call	_oled_clear	;wreg free
  2455  006956  0012               	return		;funcret
  2456  006958                     __end_of_oled_init:
  2457                           	callstack 0
  2458                           
  2459 ;; *************** function _oled_setFont *****************
  2460 ;; Defined at:
  2461 ;;		line 256 in file "SSD1306oLED.c"
  2462 ;; Parameters:    Size  Location     Type
  2463 ;;  font            2    0[COMRAM] PTR const unsigned char 
  2464 ;;		 -> OledFont0(768), 
  2465 ;; Auto vars:     Size  Location     Type
  2466 ;;		None
  2467 ;; Return value:  Size  Location     Type
  2468 ;;                  1    wreg      void 
  2469 ;; Registers used:
  2470 ;;		wreg, status,2, status,0
  2471 ;; Tracked objects:
  2472 ;;		On entry : 0/0
  2473 ;;		On exit  : 0/0
  2474 ;;		Unchanged: 0/0
  2475 ;; Data sizes:     COMRAM   BANK0   BANK1   BANK2   BANK3   BANK4   BANK5   BANK6   BANK7
  2476 ;;      Params:         2       0       0       0       0       0       0       0       0
  2477 ;;      Locals:         0       0       0       0       0       0       0       0       0
  2478 ;;      Temps:          0       0       0       0       0       0       0       0       0
  2479 ;;      Totals:         2       0       0       0       0       0       0       0       0
  2480 ;;Total ram usage:        2 bytes
  2481 ;; Hardware stack levels used: 1
  2482 ;; This function calls:
  2483 ;;		Nothing
  2484 ;; This function is called by:
  2485 ;;		_oled_init
  2486 ;; This function uses a non-reentrant model
  2487 ;;
  2488                           
  2489                           	psect	text2
  2490  00689E                     __ptext2:
  2491                           	callstack 0
  2492  00689E                     _oled_setFont:
  2493                           	callstack 29
  2494  00689E                     
  2495                           ;SSD1306oLED.c: 256: void oled_setFont(const uint8_t *font);SSD1306oLED.c: 257: {;SSD130
      +                          6oLED.c: 258:     if(font!=0)
  2496  00689E  5001               	movf	oled_setFont@font^0,w,c
  2497  0068A0  1002               	iorwf	(oled_setFont@font+1)^0,w,c
  2498  0068A2  B4D8               	btfsc	status,2,c
  2499  0068A4  EF56  F034         	goto	u1431
  2500  0068A8  EF58  F034         	goto	u1430
  2501  0068AC                     u1431:
  2502  0068AC  EF5C  F034         	goto	l358
  2503  0068B0                     u1430:
  2504  0068B0                     
  2505                           ;SSD1306oLED.c: 259:     {;SSD1306oLED.c: 260:         selectedFont=font;
  2506  0068B0  C001  F05A         	movff	oled_setFont@font,_selectedFont
  2507  0068B4  C002  F05B         	movff	oled_setFont@font+1,_selectedFont+1
  2508  0068B8                     l358:
  2509  0068B8  0012               	return		;funcret
  2510  0068BA                     __end_of_oled_setFont:
  2511                           	callstack 0
  2512                           
  2513 ;; *************** function _oled_setDisplay *****************
  2514 ;; Defined at:
  2515 ;;		line 411 in file "SSD1306oLED.c"
  2516 ;; Parameters:    Size  Location     Type
  2517 ;;  displayType     1    wreg     enum E4838
  2518 ;; Auto vars:     Size  Location     Type
  2519 ;;  displayType     1    1[COMRAM] enum E4838
  2520 ;; Return value:  Size  Location     Type
  2521 ;;                  1    wreg      void 
  2522 ;; Registers used:
  2523 ;;		wreg, status,2, cstack
  2524 ;; Tracked objects:
  2525 ;;		On entry : 0/0
  2526 ;;		On exit  : 0/0
  2527 ;;		Unchanged: 0/0
  2528 ;; Data sizes:     COMRAM   BANK0   BANK1   BANK2   BANK3   BANK4   BANK5   BANK6   BANK7
  2529 ;;      Params:         0       0       0       0       0       0       0       0       0
  2530 ;;      Locals:         1       0       0       0       0       0       0       0       0
  2531 ;;      Temps:          0       0       0       0       0       0       0       0       0
  2532 ;;      Totals:         1       0       0       0       0       0       0       0       0
  2533 ;;Total ram usage:        1 bytes
  2534 ;; Hardware stack levels used: 1
  2535 ;; Hardware stack levels required when called: 1
  2536 ;; This function calls:
  2537 ;;		_oled_writeCommand
  2538 ;; This function is called by:
  2539 ;;		_oled_init
  2540 ;; This function uses a non-reentrant model
  2541 ;;
  2542                           
  2543                           	psect	text3
  2544  006958                     __ptext3:
  2545                           	callstack 0
  2546  006958                     _oled_setDisplay:
  2547                           	callstack 28
  2548                           
  2549                           ;incstack = 0
  2550                           ;oled_setDisplay@displayType stored from wreg
  2551  006958  6E02               	movwf	oled_setDisplay@displayType^0,c
  2552  00695A                     
  2553                           ;SSD1306oLED.c: 411: void oled_setDisplay (oLED_DisplayMode_t displayType);SSD1306oLED.c
      +                          : 412: {;SSD1306oLED.c: 413:     if (displayType == Normal)
  2554  00695A  5002               	movf	oled_setDisplay@displayType^0,w,c
  2555  00695C  A4D8               	btfss	status,2,c
  2556  00695E  EFB3  F034         	goto	u1441
  2557  006962  EFB5  F034         	goto	u1440
  2558  006966                     u1441:
  2559  006966  EFBD  F034         	goto	l2742
  2560  00696A                     u1440:
  2561  00696A                     
  2562                           ;SSD1306oLED.c: 414:     {;SSD1306oLED.c: 415:         oled_writeCommand(0xa0);
  2563  00696A  0EA0               	movlw	160
  2564  00696C  EC18  F034         	call	_oled_writeCommand
  2565                           
  2566                           ;SSD1306oLED.c: 416:         oled_writeCommand(0xc8);
  2567  006970  0EC8               	movlw	200
  2568  006972  EC18  F034         	call	_oled_writeCommand
  2569                           
  2570                           ;SSD1306oLED.c: 417:     }
  2571  006976  EFC3  F034         	goto	l400
  2572  00697A                     l2742:
  2573                           
  2574                           ;SSD1306oLED.c: 419:     {;SSD1306oLED.c: 420:         oled_writeCommand(0xa1);
  2575  00697A  0EA1               	movlw	161
  2576  00697C  EC18  F034         	call	_oled_writeCommand
  2577                           
  2578                           ;SSD1306oLED.c: 421:         oled_writeCommand(0xc0);
  2579  006980  0EC0               	movlw	192
  2580  006982  EC18  F034         	call	_oled_writeCommand
  2581  006986                     l400:
  2582  006986  0012               	return		;funcret
  2583  006988                     __end_of_oled_setDisplay:
  2584                           	callstack 0
  2585                           
  2586 ;; *************** function _oled_devInit *****************
  2587 ;; Defined at:
  2588 ;;		line 388 in file "SSD1306oLED.c"
  2589 ;; Parameters:    Size  Location     Type
  2590 ;;		None
  2591 ;; Auto vars:     Size  Location     Type
  2592 ;;		None
  2593 ;; Return value:  Size  Location     Type
  2594 ;;                  1    wreg      void 
  2595 ;; Registers used:
  2596 ;;		wreg, status,2, status,0, cstack
  2597 ;; Tracked objects:
  2598 ;;		On entry : 0/0
  2599 ;;		On exit  : 0/0
  2600 ;;		Unchanged: 0/0
  2601 ;; Data sizes:     COMRAM   BANK0   BANK1   BANK2   BANK3   BANK4   BANK5   BANK6   BANK7
  2602 ;;      Params:         0       0       0       0       0       0       0       0       0
  2603 ;;      Locals:         0       0       0       0       0       0       0       0       0
  2604 ;;      Temps:          1       0       0       0       0       0       0       0       0
  2605 ;;      Totals:         1       0       0       0       0       0       0       0       0
  2606 ;;Total ram usage:        1 bytes
  2607 ;; Hardware stack levels used: 1
  2608 ;; Hardware stack levels required when called: 2
  2609 ;; This function calls:
  2610 ;;		_oled_initialDispayLine
  2611 ;;		_oled_powerControl
  2612 ;;		_oled_regulorResistorSelect
  2613 ;;		_oled_setContrastControlRegister
  2614 ;;		_oled_writeCommand
  2615 ;; This function is called by:
  2616 ;;		_oled_init
  2617 ;; This function uses a non-reentrant model
  2618 ;;
  2619                           
  2620                           	psect	text4
  2621  006B06                     __ptext4:
  2622                           	callstack 0
  2623  006B06                     _oled_devInit:
  2624                           	callstack 27
  2625  006B06                     
  2626                           ;SSD1306oLED.c: 390:     oled_writeCommand(0xe2);
  2627  006B06  0EE2               	movlw	226
  2628  006B08  EC18  F034         	call	_oled_writeCommand
  2629  006B0C                     
  2630                           ;SSD1306oLED.c: 391:     LATBbits.LATB2=1;
  2631  006B0C  848A               	bsf	138,2,c	;volatile
  2632  006B0E                     
  2633                           ;SSD1306oLED.c: 392:     _delay((unsigned long)((200)*(48000000/4000000.0)));
  2634  006B0E  0E04               	movlw	4
  2635  006B10  6E03               	movwf	??_oled_devInit^0,c
  2636  006B12  0E1C               	movlw	28
  2637  006B14                     u4457:
  2638  006B14  2EE8               	decfsz	wreg,f,c
  2639  006B16  D7FE               	bra	u4457
  2640  006B18  2E03               	decfsz	??_oled_devInit^0,f,c
  2641  006B1A  D7FC               	bra	u4457
  2642  006B1C  D000               	nop2	
  2643  006B1E                     
  2644                           ;SSD1306oLED.c: 393:     LATBbits.LATB2=0;
  2645  006B1E  948A               	bcf	138,2,c	;volatile
  2646  006B20                     
  2647                           ;SSD1306oLED.c: 394:     _delay((unsigned long)((2000)*(48000000/4000000.0)));
  2648  006B20  0E20               	movlw	32
  2649  006B22  6E03               	movwf	??_oled_devInit^0,c
  2650  006B24  0E2A               	movlw	42
  2651  006B26                     u4467:
  2652  006B26  2EE8               	decfsz	wreg,f,c
  2653  006B28  D7FE               	bra	u4467
  2654  006B2A  2E03               	decfsz	??_oled_devInit^0,f,c
  2655  006B2C  D7FC               	bra	u4467
  2656  006B2E                     
  2657                           ;SSD1306oLED.c: 395:     LATBbits.LATB2=1;
  2658  006B2E  848A               	bsf	138,2,c	;volatile
  2659  006B30                     
  2660                           ;SSD1306oLED.c: 396:     _delay((unsigned long)((1000)*(48000000/4000000.0)));
  2661  006B30  0E10               	movlw	16
  2662  006B32  6E03               	movwf	??_oled_devInit^0,c
  2663  006B34  0E94               	movlw	148
  2664  006B36                     u4477:
  2665  006B36  2EE8               	decfsz	wreg,f,c
  2666  006B38  D7FE               	bra	u4477
  2667  006B3A  2E03               	decfsz	??_oled_devInit^0,f,c
  2668  006B3C  D7FC               	bra	u4477
  2669  006B3E  D000               	nop2	
  2670  006B40                     
  2671                           ;SSD1306oLED.c: 398:     oled_writeCommand(0xa1);
  2672  006B40  0EA1               	movlw	161
  2673  006B42  EC18  F034         	call	_oled_writeCommand
  2674  006B46                     
  2675                           ;SSD1306oLED.c: 399:     oled_writeCommand(0xc0);
  2676  006B46  0EC0               	movlw	192
  2677  006B48  EC18  F034         	call	_oled_writeCommand
  2678  006B4C                     
  2679                           ;SSD1306oLED.c: 400:     oled_writeCommand(0xa3);
  2680  006B4C  0EA3               	movlw	163
  2681  006B4E  EC18  F034         	call	_oled_writeCommand
  2682  006B52                     
  2683                           ;SSD1306oLED.c: 401:     oled_powerControl(0x07);
  2684  006B52  0E07               	movlw	7
  2685  006B54  ECDF  F033         	call	_oled_powerControl
  2686  006B58                     
  2687                           ;SSD1306oLED.c: 402:     oled_regulorResistorSelect(0x05);
  2688  006B58  0E05               	movlw	5
  2689  006B5A  ECE5  F033         	call	_oled_regulorResistorSelect
  2690  006B5E                     
  2691                           ;SSD1306oLED.c: 403:     oled_setContrastControlRegister(Contrast_level);
  2692  006B5E  0E13               	movlw	19
  2693  006B60  EC08  F034         	call	_oled_setContrastControlRegister
  2694  006B64                     
  2695                           ;SSD1306oLED.c: 404:     oled_initialDispayLine(0x00);
  2696  006B64  0E00               	movlw	0
  2697  006B66  ECD9  F033         	call	_oled_initialDispayLine
  2698  006B6A                     
  2699                           ;SSD1306oLED.c: 405:     oled_writeCommand(0xF8);
  2700  006B6A  0EF8               	movlw	248
  2701  006B6C  EC18  F034         	call	_oled_writeCommand
  2702  006B70                     
  2703                           ;SSD1306oLED.c: 406:     oled_writeCommand(0x00);
  2704  006B70  0E00               	movlw	0
  2705  006B72  EC18  F034         	call	_oled_writeCommand
  2706  006B76                     
  2707                           ;SSD1306oLED.c: 407:     oled_writeCommand(0xaf);
  2708  006B76  0EAF               	movlw	175
  2709  006B78  EC18  F034         	call	_oled_writeCommand
  2710  006B7C  0012               	return		;funcret
  2711  006B7E                     __end_of_oled_devInit:
  2712                           	callstack 0
  2713                           
  2714 ;; *************** function _oled_setContrastControlRegister *****************
  2715 ;; Defined at:
  2716 ;;		line 454 in file "SSD1306oLED.c"
  2717 ;; Parameters:    Size  Location     Type
  2718 ;;  mod             1    wreg     unsigned char 
  2719 ;; Auto vars:     Size  Location     Type
  2720 ;;  mod             1    1[COMRAM] unsigned char 
  2721 ;; Return value:  Size  Location     Type
  2722 ;;                  1    wreg      void 
  2723 ;; Registers used:
  2724 ;;		wreg, status,2, cstack
  2725 ;; Tracked objects:
  2726 ;;		On entry : 0/0
  2727 ;;		On exit  : 0/0
  2728 ;;		Unchanged: 0/0
  2729 ;; Data sizes:     COMRAM   BANK0   BANK1   BANK2   BANK3   BANK4   BANK5   BANK6   BANK7
  2730 ;;      Params:         0       0       0       0       0       0       0       0       0
  2731 ;;      Locals:         1       0       0       0       0       0       0       0       0
  2732 ;;      Temps:          0       0       0       0       0       0       0       0       0
  2733 ;;      Totals:         1       0       0       0       0       0       0       0       0
  2734 ;;Total ram usage:        1 bytes
  2735 ;; Hardware stack levels used: 1
  2736 ;; Hardware stack levels required when called: 1
  2737 ;; This function calls:
  2738 ;;		_oled_writeCommand
  2739 ;; This function is called by:
  2740 ;;		_oled_devInit
  2741 ;; This function uses a non-reentrant model
  2742 ;;
  2743                           
  2744                           	psect	text5
  2745  006810                     __ptext5:
  2746                           	callstack 0
  2747  006810                     _oled_setContrastControlRegister:
  2748                           	callstack 27
  2749                           
  2750                           ;incstack = 0
  2751                           ;oled_setContrastControlRegister@mod stored from wreg
  2752  006810  6E02               	movwf	oled_setContrastControlRegister@mod^0,c
  2753  006812                     
  2754                           ;SSD1306oLED.c: 454: void oled_setContrastControlRegister(uint8_t mod);SSD1306oLED.c: 45
      +                          5: {;SSD1306oLED.c: 456:     oled_writeCommand(0x81);
  2755  006812  0E81               	movlw	129
  2756  006814  EC18  F034         	call	_oled_writeCommand
  2757  006818                     
  2758                           ;SSD1306oLED.c: 457:     oled_writeCommand(mod);
  2759  006818  5002               	movf	oled_setContrastControlRegister@mod^0,w,c
  2760  00681A  EC18  F034         	call	_oled_writeCommand
  2761  00681E  0012               	return		;funcret
  2762  006820                     __end_of_oled_setContrastControlRegister:
  2763                           	callstack 0
  2764                           
  2765 ;; *************** function _oled_regulorResistorSelect *****************
  2766 ;; Defined at:
  2767 ;;		line 482 in file "SSD1306oLED.c"
  2768 ;; Parameters:    Size  Location     Type
  2769 ;;  r               1    wreg     unsigned char 
  2770 ;; Auto vars:     Size  Location     Type
  2771 ;;  r               1    1[COMRAM] unsigned char 
  2772 ;; Return value:  Size  Location     Type
  2773 ;;                  1    wreg      void 
  2774 ;; Registers used:
  2775 ;;		wreg, status,2, status,0, cstack
  2776 ;; Tracked objects:
  2777 ;;		On entry : 0/0
  2778 ;;		On exit  : 0/0
  2779 ;;		Unchanged: 0/0
  2780 ;; Data sizes:     COMRAM   BANK0   BANK1   BANK2   BANK3   BANK4   BANK5   BANK6   BANK7
  2781 ;;      Params:         0       0       0       0       0       0       0       0       0
  2782 ;;      Locals:         1       0       0       0       0       0       0       0       0
  2783 ;;      Temps:          0       0       0       0       0       0       0       0       0
  2784 ;;      Totals:         1       0       0       0       0       0       0       0       0
  2785 ;;Total ram usage:        1 bytes
  2786 ;; Hardware stack levels used: 1
  2787 ;; Hardware stack levels required when called: 1
  2788 ;; This function calls:
  2789 ;;		_oled_writeCommand
  2790 ;; This function is called by:
  2791 ;;		_oled_devInit
  2792 ;; This function uses a non-reentrant model
  2793 ;;
  2794                           
  2795                           	psect	text6
  2796  0067CA                     __ptext6:
  2797                           	callstack 0
  2798  0067CA                     _oled_regulorResistorSelect:
  2799                           	callstack 27
  2800                           
  2801                           ;incstack = 0
  2802                           ;oled_regulorResistorSelect@r stored from wreg
  2803  0067CA  6E02               	movwf	oled_regulorResistorSelect@r^0,c
  2804  0067CC                     
  2805                           ;SSD1306oLED.c: 482: void oled_regulorResistorSelect(uint8_t r);SSD1306oLED.c: 483: {;SS
      +                          D1306oLED.c: 484:     oled_writeCommand((0x20|r));
  2806  0067CC  5002               	movf	oled_regulorResistorSelect@r^0,w,c
  2807  0067CE  0920               	iorlw	32
  2808  0067D0  EC18  F034         	call	_oled_writeCommand
  2809  0067D4  0012               	return		;funcret
  2810  0067D6                     __end_of_oled_regulorResistorSelect:
  2811                           	callstack 0
  2812                           
  2813 ;; *************** function _oled_powerControl *****************
  2814 ;; Defined at:
  2815 ;;		line 469 in file "SSD1306oLED.c"
  2816 ;; Parameters:    Size  Location     Type
  2817 ;;  vol             1    wreg     unsigned char 
  2818 ;; Auto vars:     Size  Location     Type
  2819 ;;  vol             1    1[COMRAM] unsigned char 
  2820 ;; Return value:  Size  Location     Type
  2821 ;;                  1    wreg      void 
  2822 ;; Registers used:
  2823 ;;		wreg, status,2, status,0, cstack
  2824 ;; Tracked objects:
  2825 ;;		On entry : 0/0
  2826 ;;		On exit  : 0/0
  2827 ;;		Unchanged: 0/0
  2828 ;; Data sizes:     COMRAM   BANK0   BANK1   BANK2   BANK3   BANK4   BANK5   BANK6   BANK7
  2829 ;;      Params:         0       0       0       0       0       0       0       0       0
  2830 ;;      Locals:         1       0       0       0       0       0       0       0       0
  2831 ;;      Temps:          0       0       0       0       0       0       0       0       0
  2832 ;;      Totals:         1       0       0       0       0       0       0       0       0
  2833 ;;Total ram usage:        1 bytes
  2834 ;; Hardware stack levels used: 1
  2835 ;; Hardware stack levels required when called: 1
  2836 ;; This function calls:
  2837 ;;		_oled_writeCommand
  2838 ;; This function is called by:
  2839 ;;		_oled_devInit
  2840 ;; This function uses a non-reentrant model
  2841 ;;
  2842                           
  2843                           	psect	text7
  2844  0067BE                     __ptext7:
  2845                           	callstack 0
  2846  0067BE                     _oled_powerControl:
  2847                           	callstack 27
  2848                           
  2849                           ;incstack = 0
  2850                           ;oled_powerControl@vol stored from wreg
  2851  0067BE  6E02               	movwf	oled_powerControl@vol^0,c
  2852  0067C0                     
  2853                           ;SSD1306oLED.c: 469: void oled_powerControl(uint8_t vol);SSD1306oLED.c: 470: {;SSD1306oL
      +                          ED.c: 471:     oled_writeCommand((0x28|vol));
  2854  0067C0  5002               	movf	oled_powerControl@vol^0,w,c
  2855  0067C2  0928               	iorlw	40
  2856  0067C4  EC18  F034         	call	_oled_writeCommand
  2857  0067C8  0012               	return		;funcret
  2858  0067CA                     __end_of_oled_powerControl:
  2859                           	callstack 0
  2860                           
  2861 ;; *************** function _oled_initialDispayLine *****************
  2862 ;; Defined at:
  2863 ;;		line 462 in file "SSD1306oLED.c"
  2864 ;; Parameters:    Size  Location     Type
  2865 ;;  line            1    wreg     unsigned char 
  2866 ;; Auto vars:     Size  Location     Type
  2867 ;;  line            1    1[COMRAM] unsigned char 
  2868 ;; Return value:  Size  Location     Type
  2869 ;;                  1    wreg      void 
  2870 ;; Registers used:
  2871 ;;		wreg, status,2, status,0, cstack
  2872 ;; Tracked objects:
  2873 ;;		On entry : 0/0
  2874 ;;		On exit  : 0/0
  2875 ;;		Unchanged: 0/0
  2876 ;; Data sizes:     COMRAM   BANK0   BANK1   BANK2   BANK3   BANK4   BANK5   BANK6   BANK7
  2877 ;;      Params:         0       0       0       0       0       0       0       0       0
  2878 ;;      Locals:         1       0       0       0       0       0       0       0       0
  2879 ;;      Temps:          0       0       0       0       0       0       0       0       0
  2880 ;;      Totals:         1       0       0       0       0       0       0       0       0
  2881 ;;Total ram usage:        1 bytes
  2882 ;; Hardware stack levels used: 1
  2883 ;; Hardware stack levels required when called: 1
  2884 ;; This function calls:
  2885 ;;		_oled_writeCommand
  2886 ;; This function is called by:
  2887 ;;		_oled_devInit
  2888 ;; This function uses a non-reentrant model
  2889 ;;
  2890                           
  2891                           	psect	text8
  2892  0067B2                     __ptext8:
  2893                           	callstack 0
  2894  0067B2                     _oled_initialDispayLine:
  2895                           	callstack 27
  2896                           
  2897                           ;incstack = 0
  2898                           ;oled_initialDispayLine@line stored from wreg
  2899  0067B2  6E02               	movwf	oled_initialDispayLine@line^0,c
  2900  0067B4                     
  2901                           ;SSD1306oLED.c: 462: void oled_initialDispayLine(uint8_t line);SSD1306oLED.c: 463: {;SSD
      +                          1306oLED.c: 464:     line|=0x40;
  2902  0067B4  8C02               	bsf	oled_initialDispayLine@line^0,6,c
  2903  0067B6                     
  2904                           ;SSD1306oLED.c: 465:     oled_writeCommand(line);
  2905  0067B6  5002               	movf	oled_initialDispayLine@line^0,w,c
  2906  0067B8  EC18  F034         	call	_oled_writeCommand
  2907  0067BC  0012               	return		;funcret
  2908  0067BE                     __end_of_oled_initialDispayLine:
  2909                           	callstack 0
  2910                           
  2911 ;; *************** function _init_port *****************
  2912 ;; Defined at:
  2913 ;;		line 20 in file "main.c"
  2914 ;; Parameters:    Size  Location     Type
  2915 ;;		None
  2916 ;; Auto vars:     Size  Location     Type
  2917 ;;		None
  2918 ;; Return value:  Size  Location     Type
  2919 ;;                  1    wreg      void 
  2920 ;; Registers used:
  2921 ;;		wreg, status,2
  2922 ;; Tracked objects:
  2923 ;;		On entry : 0/0
  2924 ;;		On exit  : 0/0
  2925 ;;		Unchanged: 0/0
  2926 ;; Data sizes:     COMRAM   BANK0   BANK1   BANK2   BANK3   BANK4   BANK5   BANK6   BANK7
  2927 ;;      Params:         0       0       0       0       0       0       0       0       0
  2928 ;;      Locals:         0       0       0       0       0       0       0       0       0
  2929 ;;      Temps:          0       0       0       0       0       0       0       0       0
  2930 ;;      Totals:         0       0       0       0       0       0       0       0       0
  2931 ;;Total ram usage:        0 bytes
  2932 ;; Hardware stack levels used: 1
  2933 ;; This function calls:
  2934 ;;		Nothing
  2935 ;; This function is called by:
  2936 ;;		_main
  2937 ;; This function uses a non-reentrant model
  2938 ;;
  2939                           
  2940                           	psect	text9
  2941  0067F2                     __ptext9:
  2942                           	callstack 0
  2943  0067F2                     _init_port:
  2944                           	callstack 30
  2945  0067F2                     
  2946                           ;main.c: 22:     TRISAbits.TRISA7 = 0;
  2947  0067F2  9E92               	bcf	146,7,c	;volatile
  2948                           
  2949                           ;main.c: 23:     LATAbits.LATA7 = 0;
  2950  0067F4  9E89               	bcf	137,7,c	;volatile
  2951                           
  2952                           ;main.c: 25:     TRISAbits.TRISA6 = 0;
  2953  0067F6  9C92               	bcf	146,6,c	;volatile
  2954                           
  2955                           ;main.c: 26:     LATAbits.LATA6 = 0;
  2956  0067F8  9C89               	bcf	137,6,c	;volatile
  2957  0067FA                     
  2958                           ;main.c: 28:     TRISD = 0b00000000;
  2959  0067FA  0E00               	movlw	0
  2960  0067FC  6E95               	movwf	149,c	;volatile
  2961  0067FE  0012               	return		;funcret
  2962  006800                     __end_of_init_port:
  2963                           	callstack 0
  2964                           
  2965 ;; *************** function _Send_Data_Pakect *****************
  2966 ;; Defined at:
  2967 ;;		line 438 in file "serial_protocolo.c"
  2968 ;; Parameters:    Size  Location     Type
  2969 ;;  IDSendMsg       1    wreg     unsigned char 
  2970 ;;  IDRecibeMsg     1   40[COMRAM] unsigned char 
  2971 ;;  TypeCommand     1   41[COMRAM] unsigned char 
  2972 ;;  MeasuredData    8   42[COMRAM] unsigned long long 
  2973 ;; Auto vars:     Size  Location     Type
  2974 ;;  IDSendMsg       1   68[COMRAM] unsigned char 
  2975 ;;  ChecksumAUX     8   60[COMRAM] unsigned long long 
  2976 ;;  j               1   70[COMRAM] unsigned char 
  2977 ;;  i               1   69[COMRAM] unsigned char 
  2978 ;; Return value:  Size  Location     Type
  2979 ;;                  1    wreg      void 
  2980 ;; Registers used:
  2981 ;;		wreg, fsr0l, fsr0h, fsr1l, fsr1h, fsr2l, fsr2h, status,2, status,0, tblptrl, tblptrh, tblptru, prodl, prodh, cstack
  2982 ;; Tracked objects:
  2983 ;;		On entry : 0/0
  2984 ;;		On exit  : 0/0
  2985 ;;		Unchanged: 0/0
  2986 ;; Data sizes:     COMRAM   BANK0   BANK1   BANK2   BANK3   BANK4   BANK5   BANK6   BANK7
  2987 ;;      Params:        10       0       0       0       0       0       0       0       0
  2988 ;;      Locals:        11       0       0       0       0       0       0       0       0
  2989 ;;      Temps:         10       0       0       0       0       0       0       0       0
  2990 ;;      Totals:        31       0       0       0       0       0       0       0       0
  2991 ;;Total ram usage:       31 bytes
  2992 ;; Hardware stack levels used: 1
  2993 ;; Hardware stack levels required when called: 4
  2994 ;; This function calls:
  2995 ;;		_DATAtoHEXA
  2996 ;;		_Endline
  2997 ;;		_Read_LoRA_cmd
  2998 ;;		_oled_putChar
  2999 ;;		_oled_putString
  3000 ;;		_sendCommand
  3001 ;; This function is called by:
  3002 ;;		_main
  3003 ;; This function uses a non-reentrant model
  3004 ;;
  3005                           
  3006                           	psect	text10
  3007  006F80                     __ptext10:
  3008                           	callstack 0
  3009  006F80                     _Send_Data_Pakect:
  3010                           	callstack 26
  3011                           
  3012                           ;incstack = 0
  3013                           ;Send_Data_Pakect@IDSendMsg stored from wreg
  3014  006F80  6E45               	movwf	Send_Data_Pakect@IDSendMsg^0,c
  3015  006F82                     
  3016                           ;serial_protocolo.c: 438:  void Send_Data_Pakect(uint8_t IDSendMsg, uint8_t IDRecibeMsg,
      +                           uint8_t TypeCommand, uint64_t MeasuredData);serial_protocolo.c: 439:  {;serial_protocol
      +                          o.c: 457:     uint64_t ChecksumAUX = IDSendMsg+IDRecibeMsg+TypeCommand+MeasuredData;
  3017  006F82  5029               	movf	Send_Data_Pakect@IDRecibeMsg^0,w,c
  3018  006F84  C045  F033         	movff	Send_Data_Pakect@IDSendMsg,??_Send_Data_Pakect
  3019  006F88  6A34               	clrf	(??_Send_Data_Pakect+1)^0,c
  3020  006F8A  2633               	addwf	??_Send_Data_Pakect^0,f,c
  3021  006F8C  0E00               	movlw	0
  3022  006F8E  2234               	addwfc	(??_Send_Data_Pakect+1)^0,f,c
  3023  006F90  502A               	movf	Send_Data_Pakect@TypeCommand^0,w,c
  3024  006F92  2433               	addwf	??_Send_Data_Pakect^0,w,c
  3025  006F94  6E35               	movwf	(??_Send_Data_Pakect+2)^0,c
  3026  006F96  0E00               	movlw	0
  3027  006F98  2034               	addwfc	(??_Send_Data_Pakect+1)^0,w,c
  3028  006F9A  6E36               	movwf	(??_Send_Data_Pakect+3)^0,c
  3029  006F9C  6A37               	clrf	(??_Send_Data_Pakect+4)^0,c
  3030  006F9E  BE36               	btfsc	(??_Send_Data_Pakect+3)^0,7,c
  3031  006FA0  0637               	decf	(??_Send_Data_Pakect+4)^0,f,c
  3032  006FA2  5037               	movf	(??_Send_Data_Pakect+4)^0,w,c
  3033  006FA4  6E38               	movwf	(??_Send_Data_Pakect+5)^0,c
  3034  006FA6  5037               	movf	(??_Send_Data_Pakect+4)^0,w,c
  3035  006FA8  6E39               	movwf	(??_Send_Data_Pakect+6)^0,c
  3036  006FAA  5037               	movf	(??_Send_Data_Pakect+4)^0,w,c
  3037  006FAC  6E3A               	movwf	(??_Send_Data_Pakect+7)^0,c
  3038  006FAE  5037               	movf	(??_Send_Data_Pakect+4)^0,w,c
  3039  006FB0  6E3B               	movwf	(??_Send_Data_Pakect+8)^0,c
  3040  006FB2  5037               	movf	(??_Send_Data_Pakect+4)^0,w,c
  3041  006FB4  6E3C               	movwf	(??_Send_Data_Pakect+9)^0,c
  3042  006FB6  502B               	movf	Send_Data_Pakect@MeasuredData^0,w,c
  3043  006FB8  2435               	addwf	(??_Send_Data_Pakect+2)^0,w,c
  3044  006FBA  6E3D               	movwf	Send_Data_Pakect@ChecksumAUX^0,c
  3045  006FBC  502C               	movf	(Send_Data_Pakect@MeasuredData+1)^0,w,c
  3046  006FBE  2036               	addwfc	(??_Send_Data_Pakect+3)^0,w,c
  3047  006FC0  6E3E               	movwf	(Send_Data_Pakect@ChecksumAUX+1)^0,c
  3048  006FC2  502D               	movf	(Send_Data_Pakect@MeasuredData+2)^0,w,c
  3049  006FC4  2037               	addwfc	(??_Send_Data_Pakect+4)^0,w,c
  3050  006FC6  6E3F               	movwf	(Send_Data_Pakect@ChecksumAUX+2)^0,c
  3051  006FC8  502E               	movf	(Send_Data_Pakect@MeasuredData+3)^0,w,c
  3052  006FCA  2038               	addwfc	(??_Send_Data_Pakect+5)^0,w,c
  3053  006FCC  6E40               	movwf	(Send_Data_Pakect@ChecksumAUX+3)^0,c
  3054  006FCE  502F               	movf	(Send_Data_Pakect@MeasuredData+4)^0,w,c
  3055  006FD0  2039               	addwfc	(??_Send_Data_Pakect+6)^0,w,c
  3056  006FD2  6E41               	movwf	(Send_Data_Pakect@ChecksumAUX+4)^0,c
  3057  006FD4  5030               	movf	(Send_Data_Pakect@MeasuredData+5)^0,w,c
  3058  006FD6  203A               	addwfc	(??_Send_Data_Pakect+7)^0,w,c
  3059  006FD8  6E42               	movwf	(Send_Data_Pakect@ChecksumAUX+5)^0,c
  3060  006FDA  5031               	movf	(Send_Data_Pakect@MeasuredData+6)^0,w,c
  3061  006FDC  203B               	addwfc	(??_Send_Data_Pakect+8)^0,w,c
  3062  006FDE  6E43               	movwf	(Send_Data_Pakect@ChecksumAUX+6)^0,c
  3063  006FE0  5032               	movf	(Send_Data_Pakect@MeasuredData+7)^0,w,c
  3064  006FE2  203C               	addwfc	(??_Send_Data_Pakect+9)^0,w,c
  3065  006FE4  6E44               	movwf	(Send_Data_Pakect@ChecksumAUX+7)^0,c
  3066  006FE6                     
  3067                           ;serial_protocolo.c: 458:     DATAtoHEXA(IDSendMsg,1);
  3068  006FE6  5045               	movf	Send_Data_Pakect@IDSendMsg^0,w,c
  3069  006FE8  6E05               	movwf	DATAtoHEXA@datahex^0,c
  3070  006FEA  6A06               	clrf	(DATAtoHEXA@datahex+1)^0,c
  3071  006FEC  6A07               	clrf	(DATAtoHEXA@datahex+2)^0,c
  3072  006FEE  6A08               	clrf	(DATAtoHEXA@datahex+3)^0,c
  3073  006FF0  6A09               	clrf	(DATAtoHEXA@datahex+4)^0,c
  3074  006FF2  6A0A               	clrf	(DATAtoHEXA@datahex+5)^0,c
  3075  006FF4  6A0B               	clrf	(DATAtoHEXA@datahex+6)^0,c
  3076  006FF6  6A0C               	clrf	(DATAtoHEXA@datahex+7)^0,c
  3077  006FF8  0E00               	movlw	0
  3078  006FFA  6E0E               	movwf	(DATAtoHEXA@Type+1)^0,c
  3079  006FFC  0E01               	movlw	1
  3080  006FFE  6E0D               	movwf	DATAtoHEXA@Type^0,c
  3081  007000  ECC8  F038         	call	_DATAtoHEXA	;wreg free
  3082  007004                     
  3083                           ;serial_protocolo.c: 459:     DATAtoHEXA(IDRecibeMsg,2);
  3084  007004  5029               	movf	Send_Data_Pakect@IDRecibeMsg^0,w,c
  3085  007006  6E05               	movwf	DATAtoHEXA@datahex^0,c
  3086  007008  6A06               	clrf	(DATAtoHEXA@datahex+1)^0,c
  3087  00700A  6A07               	clrf	(DATAtoHEXA@datahex+2)^0,c
  3088  00700C  6A08               	clrf	(DATAtoHEXA@datahex+3)^0,c
  3089  00700E  6A09               	clrf	(DATAtoHEXA@datahex+4)^0,c
  3090  007010  6A0A               	clrf	(DATAtoHEXA@datahex+5)^0,c
  3091  007012  6A0B               	clrf	(DATAtoHEXA@datahex+6)^0,c
  3092  007014  6A0C               	clrf	(DATAtoHEXA@datahex+7)^0,c
  3093  007016  0E00               	movlw	0
  3094  007018  6E0E               	movwf	(DATAtoHEXA@Type+1)^0,c
  3095  00701A  0E02               	movlw	2
  3096  00701C  6E0D               	movwf	DATAtoHEXA@Type^0,c
  3097  00701E  ECC8  F038         	call	_DATAtoHEXA	;wreg free
  3098  007022                     
  3099                           ;serial_protocolo.c: 460:     DATAtoHEXA(TypeCommand,3);
  3100  007022  502A               	movf	Send_Data_Pakect@TypeCommand^0,w,c
  3101  007024  6E05               	movwf	DATAtoHEXA@datahex^0,c
  3102  007026  6A06               	clrf	(DATAtoHEXA@datahex+1)^0,c
  3103  007028  6A07               	clrf	(DATAtoHEXA@datahex+2)^0,c
  3104  00702A  6A08               	clrf	(DATAtoHEXA@datahex+3)^0,c
  3105  00702C  6A09               	clrf	(DATAtoHEXA@datahex+4)^0,c
  3106  00702E  6A0A               	clrf	(DATAtoHEXA@datahex+5)^0,c
  3107  007030  6A0B               	clrf	(DATAtoHEXA@datahex+6)^0,c
  3108  007032  6A0C               	clrf	(DATAtoHEXA@datahex+7)^0,c
  3109  007034  0E00               	movlw	0
  3110  007036  6E0E               	movwf	(DATAtoHEXA@Type+1)^0,c
  3111  007038  0E03               	movlw	3
  3112  00703A  6E0D               	movwf	DATAtoHEXA@Type^0,c
  3113  00703C  ECC8  F038         	call	_DATAtoHEXA	;wreg free
  3114  007040                     
  3115                           ;serial_protocolo.c: 461:     DATAtoHEXA(MeasuredData,4);
  3116  007040  C02B  F005         	movff	Send_Data_Pakect@MeasuredData,DATAtoHEXA@datahex
  3117  007044  C02C  F006         	movff	Send_Data_Pakect@MeasuredData+1,DATAtoHEXA@datahex+1
  3118  007048  C02D  F007         	movff	Send_Data_Pakect@MeasuredData+2,DATAtoHEXA@datahex+2
  3119  00704C  C02E  F008         	movff	Send_Data_Pakect@MeasuredData+3,DATAtoHEXA@datahex+3
  3120  007050  C02F  F009         	movff	Send_Data_Pakect@MeasuredData+4,DATAtoHEXA@datahex+4
  3121  007054  C030  F00A         	movff	Send_Data_Pakect@MeasuredData+5,DATAtoHEXA@datahex+5
  3122  007058  C031  F00B         	movff	Send_Data_Pakect@MeasuredData+6,DATAtoHEXA@datahex+6
  3123  00705C  C032  F00C         	movff	Send_Data_Pakect@MeasuredData+7,DATAtoHEXA@datahex+7
  3124  007060  0E00               	movlw	0
  3125  007062  6E0E               	movwf	(DATAtoHEXA@Type+1)^0,c
  3126  007064  0E04               	movlw	4
  3127  007066  6E0D               	movwf	DATAtoHEXA@Type^0,c
  3128  007068  ECC8  F038         	call	_DATAtoHEXA	;wreg free
  3129  00706C                     
  3130                           ;serial_protocolo.c: 462:     DATAtoHEXA(ChecksumAUX,5);
  3131  00706C  C03D  F005         	movff	Send_Data_Pakect@ChecksumAUX,DATAtoHEXA@datahex
  3132  007070  C03E  F006         	movff	Send_Data_Pakect@ChecksumAUX+1,DATAtoHEXA@datahex+1
  3133  007074  C03F  F007         	movff	Send_Data_Pakect@ChecksumAUX+2,DATAtoHEXA@datahex+2
  3134  007078  C040  F008         	movff	Send_Data_Pakect@ChecksumAUX+3,DATAtoHEXA@datahex+3
  3135  00707C  C041  F009         	movff	Send_Data_Pakect@ChecksumAUX+4,DATAtoHEXA@datahex+4
  3136  007080  C042  F00A         	movff	Send_Data_Pakect@ChecksumAUX+5,DATAtoHEXA@datahex+5
  3137  007084  C043  F00B         	movff	Send_Data_Pakect@ChecksumAUX+6,DATAtoHEXA@datahex+6
  3138  007088  C044  F00C         	movff	Send_Data_Pakect@ChecksumAUX+7,DATAtoHEXA@datahex+7
  3139  00708C  0E00               	movlw	0
  3140  00708E  6E0E               	movwf	(DATAtoHEXA@Type+1)^0,c
  3141  007090  0E05               	movlw	5
  3142  007092  6E0D               	movwf	DATAtoHEXA@Type^0,c
  3143  007094  ECC8  F038         	call	_DATAtoHEXA	;wreg free
  3144  007098                     
  3145                           ;serial_protocolo.c: 463:     sendCommand("radio tx ");
  3146  007098  0EB8               	movlw	low STR_49
  3147  00709A  6E02               	movwf	sendCommand@String^0,c
  3148  00709C  0E7F               	movlw	high STR_49
  3149  00709E  6E03               	movwf	(sendCommand@String+1)^0,c
  3150  0070A0  EC1D  F035         	call	_sendCommand	;wreg free
  3151  0070A4                     
  3152                           ;serial_protocolo.c: 464:     sendCommand(hexa);
  3153  0070A4  0EAD               	movlw	low _hexa
  3154  0070A6  6E02               	movwf	sendCommand@String^0,c
  3155  0070A8  0E00               	movlw	high _hexa
  3156  0070AA  6E03               	movwf	(sendCommand@String+1)^0,c
  3157  0070AC  EC1D  F035         	call	_sendCommand	;wreg free
  3158  0070B0                     
  3159                           ;serial_protocolo.c: 465:     Endline();
  3160  0070B0  ECF2  F033         	call	_Endline	;wreg free
  3161  0070B4                     
  3162                           ;serial_protocolo.c: 466:     Read_LoRA_cmd();
  3163  0070B4  ECA9  F036         	call	_Read_LoRA_cmd	;wreg free
  3164  0070B8                     
  3165                           ;serial_protocolo.c: 467:     oled_putString(cmd_message,0,1);
  3166  0070B8  0E85               	movlw	low _cmd_message
  3167  0070BA  6E0D               	movwf	oled_putString@string^0,c
  3168  0070BC  0E00               	movlw	high _cmd_message
  3169  0070BE  6E0E               	movwf	(oled_putString@string+1)^0,c
  3170  0070C0  0E00               	movlw	0
  3171  0070C2  6E0F               	movwf	oled_putString@station_dot^0,c
  3172  0070C4  0E01               	movlw	1
  3173  0070C6  6E10               	movwf	oled_putString@start_page^0,c
  3174  0070C8  ECFD  F035         	call	_oled_putString	;wreg free
  3175  0070CC                     
  3176                           ;serial_protocolo.c: 468:     uint8_t j = 0,i=0;
  3177  0070CC  0E00               	movlw	0
  3178  0070CE  6E47               	movwf	Send_Data_Pakect@j^0,c
  3179  0070D0                     
  3180                           ;serial_protocolo.c: 469:     while(hexa[j]!='\0')
  3181  0070D0  EF9A  F038         	goto	l3058
  3182  0070D4                     l3046:
  3183                           
  3184                           ;serial_protocolo.c: 470:     {;serial_protocolo.c: 471:         if(j<=15)
  3185  0070D4  0E10               	movlw	16
  3186  0070D6  6047               	cpfslt	Send_Data_Pakect@j^0,c
  3187  0070D8  EF70  F038         	goto	u1651
  3188  0070DC  EF72  F038         	goto	u1650
  3189  0070E0                     u1651:
  3190  0070E0  EF89  F038         	goto	l3052
  3191  0070E4                     u1650:
  3192  0070E4                     
  3193                           ;serial_protocolo.c: 472:         {;serial_protocolo.c: 473:             oled_putChar(he
      +                          xa[j],j,2);
  3194  0070E4  C047  F003         	movff	Send_Data_Pakect@j,oled_putChar@station_dot
  3195  0070E8  0E02               	movlw	2
  3196  0070EA  6E04               	movwf	oled_putChar@start_page^0,c
  3197  0070EC  0EAD               	movlw	low _hexa
  3198  0070EE  2447               	addwf	Send_Data_Pakect@j^0,w,c
  3199  0070F0  6ED9               	movwf	fsr2l,c
  3200  0070F2  6ADA               	clrf	fsr2h,c
  3201  0070F4  0E00               	movlw	high _hexa
  3202  0070F6  22DA               	addwfc	fsr2h,f,c
  3203  0070F8  50DF               	movf	indf2,w,c
  3204  0070FA  ECBF  F035         	call	_oled_putChar
  3205  0070FE                     l3050:
  3206                           
  3207                           ;serial_protocolo.c: 474:             _delay((unsigned long)((10)*(48000000/4000.0)));
  3208  0070FE  0E9C               	movlw	156
  3209  007100  6E33               	movwf	??_Send_Data_Pakect^0,c
  3210  007102  0ED7               	movlw	215
  3211  007104                     u4487:
  3212  007104  2EE8               	decfsz	wreg,f,c
  3213  007106  D7FE               	bra	u4487
  3214  007108  2E33               	decfsz	??_Send_Data_Pakect^0,f,c
  3215  00710A  D7FC               	bra	u4487
  3216  00710C  F000               	nop	
  3217                           
  3218                           ;serial_protocolo.c: 475:         }
  3219  00710E  EF99  F038         	goto	l3056
  3220  007112                     l3052:
  3221                           
  3222                           ;serial_protocolo.c: 477:         {;serial_protocolo.c: 478:             oled_putChar(he
      +                          xa[j],j-16,3);
  3223  007112  5047               	movf	Send_Data_Pakect@j^0,w,c
  3224  007114  0FF0               	addlw	240
  3225  007116  6E03               	movwf	oled_putChar@station_dot^0,c
  3226  007118  0E03               	movlw	3
  3227  00711A  6E04               	movwf	oled_putChar@start_page^0,c
  3228  00711C  0EAD               	movlw	low _hexa
  3229  00711E  2447               	addwf	Send_Data_Pakect@j^0,w,c
  3230  007120  6ED9               	movwf	fsr2l,c
  3231  007122  6ADA               	clrf	fsr2h,c
  3232  007124  0E00               	movlw	high _hexa
  3233  007126  22DA               	addwfc	fsr2h,f,c
  3234  007128  50DF               	movf	indf2,w,c
  3235  00712A  ECBF  F035         	call	_oled_putChar
  3236  00712E  EF7F  F038         	goto	l3050
  3237  007132                     l3056:
  3238                           
  3239                           ;serial_protocolo.c: 481:         j++;
  3240  007132  2A47               	incf	Send_Data_Pakect@j^0,f,c
  3241  007134                     l3058:
  3242                           
  3243                           ;serial_protocolo.c: 469:     while(hexa[j]!='\0')
  3244  007134  0EAD               	movlw	low _hexa
  3245  007136  2447               	addwf	Send_Data_Pakect@j^0,w,c
  3246  007138  6ED9               	movwf	fsr2l,c
  3247  00713A  6ADA               	clrf	fsr2h,c
  3248  00713C  0E00               	movlw	high _hexa
  3249  00713E  22DA               	addwfc	fsr2h,f,c
  3250  007140  50DF               	movf	indf2,w,c
  3251  007142  A4D8               	btfss	status,2,c
  3252  007144  EFA6  F038         	goto	u1661
  3253  007148  EFA8  F038         	goto	u1660
  3254  00714C                     u1661:
  3255  00714C  EF6A  F038         	goto	l3046
  3256  007150                     u1660:
  3257  007150                     
  3258                           ;serial_protocolo.c: 484:     for(i = 0 ;i<34;i++ )
  3259  007150  0E00               	movlw	0
  3260  007152  6E46               	movwf	Send_Data_Pakect@i^0,c
  3261  007154                     l3066:
  3262                           
  3263                           ;serial_protocolo.c: 485:     {;serial_protocolo.c: 486:     int_to_hex[i] = 0;
  3264  007154  5046               	movf	Send_Data_Pakect@i^0,w,c
  3265  007156  0D02               	mullw	2
  3266  007158  0E00               	movlw	low _int_to_hex
  3267  00715A  24F3               	addwf	243,w,c
  3268  00715C  6ED9               	movwf	fsr2l,c
  3269  00715E  0E01               	movlw	high _int_to_hex
  3270  007160  20F4               	addwfc	prodh,w,c
  3271  007162  6EDA               	movwf	fsr2h,c
  3272  007164  0E00               	movlw	0
  3273  007166  6EDE               	movwf	postinc2,c
  3274  007168  0E00               	movlw	0
  3275  00716A  6EDD               	movwf	postdec2,c
  3276  00716C                     
  3277                           ;serial_protocolo.c: 487:     hexa[i] = 0;
  3278  00716C  0EAD               	movlw	low _hexa
  3279  00716E  2446               	addwf	Send_Data_Pakect@i^0,w,c
  3280  007170  6ED9               	movwf	fsr2l,c
  3281  007172  6ADA               	clrf	fsr2h,c
  3282  007174  0E00               	movlw	high _hexa
  3283  007176  22DA               	addwfc	fsr2h,f,c
  3284  007178  0E00               	movlw	0
  3285  00717A  6EDF               	movwf	indf2,c
  3286  00717C                     
  3287                           ;serial_protocolo.c: 488:     }
  3288  00717C  2A46               	incf	Send_Data_Pakect@i^0,f,c
  3289  00717E  0E21               	movlw	33
  3290  007180  6446               	cpfsgt	Send_Data_Pakect@i^0,c
  3291  007182  EFC5  F038         	goto	u1671
  3292  007186  EFC7  F038         	goto	u1670
  3293  00718A                     u1671:
  3294  00718A  EFAA  F038         	goto	l3066
  3295  00718E                     u1670:
  3296  00718E  0012               	return		;funcret
  3297  007190                     __end_of_Send_Data_Pakect:
  3298                           	callstack 0
  3299                           
  3300 ;; *************** function _Endline *****************
  3301 ;; Defined at:
  3302 ;;		line 113 in file "LoRa_RN2903A.c"
  3303 ;; Parameters:    Size  Location     Type
  3304 ;;		None
  3305 ;; Auto vars:     Size  Location     Type
  3306 ;;		None
  3307 ;; Return value:  Size  Location     Type
  3308 ;;                  1    wreg      void 
  3309 ;; Registers used:
  3310 ;;		wreg, cstack
  3311 ;; Tracked objects:
  3312 ;;		On entry : 0/0
  3313 ;;		On exit  : 0/0
  3314 ;;		Unchanged: 0/0
  3315 ;; Data sizes:     COMRAM   BANK0   BANK1   BANK2   BANK3   BANK4   BANK5   BANK6   BANK7
  3316 ;;      Params:         0       0       0       0       0       0       0       0       0
  3317 ;;      Locals:         0       0       0       0       0       0       0       0       0
  3318 ;;      Temps:          0       0       0       0       0       0       0       0       0
  3319 ;;      Totals:         0       0       0       0       0       0       0       0       0
  3320 ;;Total ram usage:        0 bytes
  3321 ;; Hardware stack levels used: 1
  3322 ;; Hardware stack levels required when called: 1
  3323 ;; This function calls:
  3324 ;;		_EUSART1_Write
  3325 ;; This function is called by:
  3326 ;;		_Send_Data_Pakect
  3327 ;; This function uses a non-reentrant model
  3328 ;;
  3329                           
  3330                           	psect	text11
  3331  0067E4                     __ptext11:
  3332                           	callstack 0
  3333  0067E4                     _Endline:
  3334                           	callstack 28
  3335  0067E4                     
  3336                           ;LoRa_RN2903A.c: 115:     EUSART1_Write(0x0D);
  3337  0067E4  0E0D               	movlw	13
  3338  0067E6  EC37  F034         	call	_EUSART1_Write
  3339                           
  3340                           ;LoRa_RN2903A.c: 116:     EUSART1_Write(0x0A);
  3341  0067EA  0E0A               	movlw	10
  3342  0067EC  EC37  F034         	call	_EUSART1_Write
  3343  0067F0  0012               	return		;funcret
  3344  0067F2                     __end_of_Endline:
  3345                           	callstack 0
  3346                           
  3347 ;; *************** function _DATAtoHEXA *****************
  3348 ;; Defined at:
  3349 ;;		line 40 in file "serial_protocolo.c"
  3350 ;; Parameters:    Size  Location     Type
  3351 ;;  datahex         8    4[COMRAM] unsigned long long 
  3352 ;;  Type            2   12[COMRAM] int 
  3353 ;; Auto vars:     Size  Location     Type
  3354 ;;  j               2   36[COMRAM] int 
  3355 ;;  result          8   26[COMRAM] unsigned long long 
  3356 ;;  k               2   38[COMRAM] int 
  3357 ;;  i               2   34[COMRAM] int 
  3358 ;;  condition       2   24[COMRAM] int 
  3359 ;;  residue         2   22[COMRAM] int 
  3360 ;;  leng            2    0        int 
  3361 ;; Return value:  Size  Location     Type
  3362 ;;                  1    wreg      void 
  3363 ;; Registers used:
  3364 ;;		wreg, fsr1l, fsr1h, fsr2l, fsr2h, status,2, status,0, cstack
  3365 ;; Tracked objects:
  3366 ;;		On entry : 0/0
  3367 ;;		On exit  : 0/0
  3368 ;;		Unchanged: 0/0
  3369 ;; Data sizes:     COMRAM   BANK0   BANK1   BANK2   BANK3   BANK4   BANK5   BANK6   BANK7
  3370 ;;      Params:        10       0       0       0       0       0       0       0       0
  3371 ;;      Locals:        18       0       0       0       0       0       0       0       0
  3372 ;;      Temps:          8       0       0       0       0       0       0       0       0
  3373 ;;      Totals:        36       0       0       0       0       0       0       0       0
  3374 ;;Total ram usage:       36 bytes
  3375 ;; Hardware stack levels used: 1
  3376 ;; Hardware stack levels required when called: 1
  3377 ;; This function calls:
  3378 ;;		_Len
  3379 ;; This function is called by:
  3380 ;;		_Send_Data_Pakect
  3381 ;; This function uses a non-reentrant model
  3382 ;;
  3383                           
  3384                           	psect	text12
  3385  007190                     __ptext12:
  3386                           	callstack 0
  3387  007190                     _DATAtoHEXA:
  3388                           	callstack 28
  3389  007190                     
  3390                           ;serial_protocolo.c: 40: void DATAtoHEXA(uint64_t datahex, int Type);serial_protocolo.c:
      +                           41: {;serial_protocolo.c: 56:     int i = 0,k = 0,condition=0,leng = 0,residue = 0;
  3391  007190  0E00               	movlw	0
  3392  007192  6E24               	movwf	(DATAtoHEXA@i+1)^0,c
  3393  007194  0E00               	movlw	0
  3394  007196  6E23               	movwf	DATAtoHEXA@i^0,c
  3395  007198  0E00               	movlw	0
  3396  00719A  6E28               	movwf	(DATAtoHEXA@k+1)^0,c
  3397  00719C  0E00               	movlw	0
  3398  00719E  6E27               	movwf	DATAtoHEXA@k^0,c
  3399  0071A0  0E00               	movlw	0
  3400  0071A2  6E1A               	movwf	(DATAtoHEXA@condition+1)^0,c
  3401  0071A4  0E00               	movlw	0
  3402  0071A6  6E19               	movwf	DATAtoHEXA@condition^0,c
  3403  0071A8  0E00               	movlw	0
  3404  0071AA  6E18               	movwf	(DATAtoHEXA@residue+1)^0,c
  3405  0071AC  0E00               	movlw	0
  3406  0071AE  6E17               	movwf	DATAtoHEXA@residue^0,c
  3407  0071B0                     
  3408                           ;serial_protocolo.c: 57:     uint64_t result;;serial_protocolo.c: 59:     if(Type == 1)
  3409  0071B0  040D               	decf	DATAtoHEXA@Type^0,w,c
  3410  0071B2  100E               	iorwf	(DATAtoHEXA@Type+1)^0,w,c
  3411  0071B4  A4D8               	btfss	status,2,c
  3412  0071B6  EFDF  F038         	goto	u1451
  3413  0071BA  EFE1  F038         	goto	u1450
  3414  0071BE                     u1451:
  3415  0071BE  EFEF  F038         	goto	l2750
  3416  0071C2                     u1450:
  3417  0071C2                     
  3418                           ;serial_protocolo.c: 60:     {;serial_protocolo.c: 61:         i = 0;
  3419  0071C2  0E00               	movlw	0
  3420  0071C4  6E24               	movwf	(DATAtoHEXA@i+1)^0,c
  3421  0071C6  0E00               	movlw	0
  3422  0071C8  6E23               	movwf	DATAtoHEXA@i^0,c
  3423                           
  3424                           ;serial_protocolo.c: 62:         k = 0;
  3425  0071CA  0E00               	movlw	0
  3426  0071CC  6E28               	movwf	(DATAtoHEXA@k+1)^0,c
  3427  0071CE  0E00               	movlw	0
  3428  0071D0  6E27               	movwf	DATAtoHEXA@k^0,c
  3429                           
  3430                           ;serial_protocolo.c: 63:        condition = 0;
  3431  0071D2  0E00               	movlw	0
  3432  0071D4  6E1A               	movwf	(DATAtoHEXA@condition+1)^0,c
  3433  0071D6  0E00               	movlw	0
  3434  0071D8  6E19               	movwf	DATAtoHEXA@condition^0,c
  3435                           
  3436                           ;serial_protocolo.c: 64:     }
  3437  0071DA  EF4F  F039         	goto	l2766
  3438  0071DE                     l2750:
  3439  0071DE  0E02               	movlw	2
  3440  0071E0  180D               	xorwf	DATAtoHEXA@Type^0,w,c
  3441  0071E2  100E               	iorwf	(DATAtoHEXA@Type+1)^0,w,c
  3442  0071E4  A4D8               	btfss	status,2,c
  3443  0071E6  EFF7  F038         	goto	u1461
  3444  0071EA  EFF9  F038         	goto	u1460
  3445  0071EE                     u1461:
  3446  0071EE  EF07  F039         	goto	l2754
  3447  0071F2                     u1460:
  3448  0071F2                     
  3449                           ;serial_protocolo.c: 66:     {;serial_protocolo.c: 67:          i = 2;
  3450  0071F2  0E00               	movlw	0
  3451  0071F4  6E24               	movwf	(DATAtoHEXA@i+1)^0,c
  3452  0071F6  0E02               	movlw	2
  3453  0071F8  6E23               	movwf	DATAtoHEXA@i^0,c
  3454                           
  3455                           ;serial_protocolo.c: 68:          k = 2;
  3456  0071FA  0E00               	movlw	0
  3457  0071FC  6E28               	movwf	(DATAtoHEXA@k+1)^0,c
  3458  0071FE  0E02               	movlw	2
  3459  007200  6E27               	movwf	DATAtoHEXA@k^0,c
  3460                           
  3461                           ;serial_protocolo.c: 69:          condition = 2;
  3462  007202  0E00               	movlw	0
  3463  007204  6E1A               	movwf	(DATAtoHEXA@condition+1)^0,c
  3464  007206  0E02               	movlw	2
  3465  007208  6E19               	movwf	DATAtoHEXA@condition^0,c
  3466                           
  3467                           ;serial_protocolo.c: 70:     }
  3468  00720A  EF4F  F039         	goto	l2766
  3469  00720E                     l2754:
  3470  00720E  0E03               	movlw	3
  3471  007210  180D               	xorwf	DATAtoHEXA@Type^0,w,c
  3472  007212  100E               	iorwf	(DATAtoHEXA@Type+1)^0,w,c
  3473  007214  A4D8               	btfss	status,2,c
  3474  007216  EF0F  F039         	goto	u1471
  3475  00721A  EF11  F039         	goto	u1470
  3476  00721E                     u1471:
  3477  00721E  EF1F  F039         	goto	l2758
  3478  007222                     u1470:
  3479  007222                     
  3480                           ;serial_protocolo.c: 72:     {;serial_protocolo.c: 73:          i = 4;
  3481  007222  0E00               	movlw	0
  3482  007224  6E24               	movwf	(DATAtoHEXA@i+1)^0,c
  3483  007226  0E04               	movlw	4
  3484  007228  6E23               	movwf	DATAtoHEXA@i^0,c
  3485                           
  3486                           ;serial_protocolo.c: 74:          k = 4;
  3487  00722A  0E00               	movlw	0
  3488  00722C  6E28               	movwf	(DATAtoHEXA@k+1)^0,c
  3489  00722E  0E04               	movlw	4
  3490  007230  6E27               	movwf	DATAtoHEXA@k^0,c
  3491                           
  3492                           ;serial_protocolo.c: 75:         condition = 4;
  3493  007232  0E00               	movlw	0
  3494  007234  6E1A               	movwf	(DATAtoHEXA@condition+1)^0,c
  3495  007236  0E04               	movlw	4
  3496  007238  6E19               	movwf	DATAtoHEXA@condition^0,c
  3497                           
  3498                           ;serial_protocolo.c: 76:     }
  3499  00723A  EF4F  F039         	goto	l2766
  3500  00723E                     l2758:
  3501  00723E  0E04               	movlw	4
  3502  007240  180D               	xorwf	DATAtoHEXA@Type^0,w,c
  3503  007242  100E               	iorwf	(DATAtoHEXA@Type+1)^0,w,c
  3504  007244  A4D8               	btfss	status,2,c
  3505  007246  EF27  F039         	goto	u1481
  3506  00724A  EF29  F039         	goto	u1480
  3507  00724E                     u1481:
  3508  00724E  EF37  F039         	goto	l2762
  3509  007252                     u1480:
  3510  007252                     
  3511                           ;serial_protocolo.c: 78:     {;serial_protocolo.c: 79:         i = 6;
  3512  007252  0E00               	movlw	0
  3513  007254  6E24               	movwf	(DATAtoHEXA@i+1)^0,c
  3514  007256  0E06               	movlw	6
  3515  007258  6E23               	movwf	DATAtoHEXA@i^0,c
  3516                           
  3517                           ;serial_protocolo.c: 80:         k = 6;
  3518  00725A  0E00               	movlw	0
  3519  00725C  6E28               	movwf	(DATAtoHEXA@k+1)^0,c
  3520  00725E  0E06               	movlw	6
  3521  007260  6E27               	movwf	DATAtoHEXA@k^0,c
  3522                           
  3523                           ;serial_protocolo.c: 81:        condition = 6;
  3524  007262  0E00               	movlw	0
  3525  007264  6E1A               	movwf	(DATAtoHEXA@condition+1)^0,c
  3526  007266  0E06               	movlw	6
  3527  007268  6E19               	movwf	DATAtoHEXA@condition^0,c
  3528                           
  3529                           ;serial_protocolo.c: 82:     }
  3530  00726A  EF4F  F039         	goto	l2766
  3531  00726E                     l2762:
  3532  00726E  0E05               	movlw	5
  3533  007270  180D               	xorwf	DATAtoHEXA@Type^0,w,c
  3534  007272  100E               	iorwf	(DATAtoHEXA@Type+1)^0,w,c
  3535  007274  A4D8               	btfss	status,2,c
  3536  007276  EF3F  F039         	goto	u1491
  3537  00727A  EF41  F039         	goto	u1490
  3538  00727E                     u1491:
  3539  00727E  EF4F  F039         	goto	l473
  3540  007282                     u1490:
  3541  007282                     
  3542                           ;serial_protocolo.c: 84:     {;serial_protocolo.c: 85:         i = length;
  3543  007282  C057  F023         	movff	_length,DATAtoHEXA@i
  3544  007286  C058  F024         	movff	_length+1,DATAtoHEXA@i+1
  3545                           
  3546                           ;serial_protocolo.c: 86:         k = length;
  3547  00728A  C057  F027         	movff	_length,DATAtoHEXA@k
  3548  00728E  C058  F028         	movff	_length+1,DATAtoHEXA@k+1
  3549                           
  3550                           ;serial_protocolo.c: 87:         condition = length;
  3551  007292  C057  F019         	movff	_length,DATAtoHEXA@condition
  3552  007296  C058  F01A         	movff	_length+1,DATAtoHEXA@condition+1
  3553  00729A  EF4F  F039         	goto	l2766
  3554  00729E                     l473:
  3555  00729E                     l2766:
  3556                           
  3557                           ;serial_protocolo.c: 109:     {;serial_protocolo.c: 110:         residue = datahex%16;
  3558  00729E  0E0F               	movlw	15
  3559  0072A0  1405               	andwf	DATAtoHEXA@datahex^0,w,c
  3560  0072A2  6E17               	movwf	DATAtoHEXA@residue^0,c
  3561  0072A4  6A18               	clrf	(DATAtoHEXA@residue+1)^0,c
  3562                           
  3563                           ;serial_protocolo.c: 111:         result = datahex/16;
  3564  0072A6  C005  F00F         	movff	DATAtoHEXA@datahex,??_DATAtoHEXA
  3565  0072AA  C006  F010         	movff	DATAtoHEXA@datahex+1,??_DATAtoHEXA+1
  3566  0072AE  C007  F011         	movff	DATAtoHEXA@datahex+2,??_DATAtoHEXA+2
  3567  0072B2  C008  F012         	movff	DATAtoHEXA@datahex+3,??_DATAtoHEXA+3
  3568  0072B6  C009  F013         	movff	DATAtoHEXA@datahex+4,??_DATAtoHEXA+4
  3569  0072BA  C00A  F014         	movff	DATAtoHEXA@datahex+5,??_DATAtoHEXA+5
  3570  0072BE  C00B  F015         	movff	DATAtoHEXA@datahex+6,??_DATAtoHEXA+6
  3571  0072C2  C00C  F016         	movff	DATAtoHEXA@datahex+7,??_DATAtoHEXA+7
  3572  0072C6  0E05               	movlw	5
  3573  0072C8  EF6F  F039         	goto	u1500
  3574  0072CC                     u1505:
  3575  0072CC  90D8               	bcf	status,0,c
  3576  0072CE  3216               	rrcf	(??_DATAtoHEXA+7)^0,f,c
  3577  0072D0  3215               	rrcf	(??_DATAtoHEXA+6)^0,f,c
  3578  0072D2  3214               	rrcf	(??_DATAtoHEXA+5)^0,f,c
  3579  0072D4  3213               	rrcf	(??_DATAtoHEXA+4)^0,f,c
  3580  0072D6  3212               	rrcf	(??_DATAtoHEXA+3)^0,f,c
  3581  0072D8  3211               	rrcf	(??_DATAtoHEXA+2)^0,f,c
  3582  0072DA  3210               	rrcf	(??_DATAtoHEXA+1)^0,f,c
  3583  0072DC  320F               	rrcf	??_DATAtoHEXA^0,f,c
  3584  0072DE                     u1500:
  3585  0072DE  2EE8               	decfsz	wreg,f,c
  3586  0072E0  EF66  F039         	goto	u1505
  3587  0072E4  C00F  F01B         	movff	??_DATAtoHEXA,DATAtoHEXA@result
  3588  0072E8  C010  F01C         	movff	??_DATAtoHEXA+1,DATAtoHEXA@result+1
  3589  0072EC  C011  F01D         	movff	??_DATAtoHEXA+2,DATAtoHEXA@result+2
  3590  0072F0  C012  F01E         	movff	??_DATAtoHEXA+3,DATAtoHEXA@result+3
  3591  0072F4  C013  F01F         	movff	??_DATAtoHEXA+4,DATAtoHEXA@result+4
  3592  0072F8  C014  F020         	movff	??_DATAtoHEXA+5,DATAtoHEXA@result+5
  3593  0072FC  C015  F021         	movff	??_DATAtoHEXA+6,DATAtoHEXA@result+6
  3594  007300  C016  F022         	movff	??_DATAtoHEXA+7,DATAtoHEXA@result+7
  3595  007304                     
  3596                           ;serial_protocolo.c: 112:         int_to_hex[i] = residue;
  3597  007304  90D8               	bcf	status,0,c
  3598  007306  3423               	rlcf	DATAtoHEXA@i^0,w,c
  3599  007308  6ED9               	movwf	fsr2l,c
  3600  00730A  3424               	rlcf	(DATAtoHEXA@i+1)^0,w,c
  3601  00730C  6EDA               	movwf	fsr2h,c
  3602  00730E  0E00               	movlw	low _int_to_hex
  3603  007310  26D9               	addwf	fsr2l,f,c
  3604  007312  0E01               	movlw	high _int_to_hex
  3605  007314  22DA               	addwfc	fsr2h,f,c
  3606  007316  C017  FFDE         	movff	DATAtoHEXA@residue,postinc2
  3607  00731A  C018  FFDD         	movff	DATAtoHEXA@residue+1,postdec2
  3608  00731E                     
  3609                           ;serial_protocolo.c: 113:         datahex = result;
  3610  00731E  C01B  F005         	movff	DATAtoHEXA@result,DATAtoHEXA@datahex
  3611  007322  C01C  F006         	movff	DATAtoHEXA@result+1,DATAtoHEXA@datahex+1
  3612  007326  C01D  F007         	movff	DATAtoHEXA@result+2,DATAtoHEXA@datahex+2
  3613  00732A  C01E  F008         	movff	DATAtoHEXA@result+3,DATAtoHEXA@datahex+3
  3614  00732E  C01F  F009         	movff	DATAtoHEXA@result+4,DATAtoHEXA@datahex+4
  3615  007332  C020  F00A         	movff	DATAtoHEXA@result+5,DATAtoHEXA@datahex+5
  3616  007336  C021  F00B         	movff	DATAtoHEXA@result+6,DATAtoHEXA@datahex+6
  3617  00733A  C022  F00C         	movff	DATAtoHEXA@result+7,DATAtoHEXA@datahex+7
  3618  00733E                     
  3619                           ;serial_protocolo.c: 114:         i++;
  3620  00733E  4A23               	infsnz	DATAtoHEXA@i^0,f,c
  3621  007340  2A24               	incf	(DATAtoHEXA@i+1)^0,f,c
  3622  007342                     
  3623                           ;serial_protocolo.c: 115:     } while (result >15);
  3624  007342  5022               	movf	(DATAtoHEXA@result+7)^0,w,c
  3625  007344  1021               	iorwf	(DATAtoHEXA@result+6)^0,w,c
  3626  007346  1020               	iorwf	(DATAtoHEXA@result+5)^0,w,c
  3627  007348  101F               	iorwf	(DATAtoHEXA@result+4)^0,w,c
  3628  00734A  101E               	iorwf	(DATAtoHEXA@result+3)^0,w,c
  3629  00734C  101D               	iorwf	(DATAtoHEXA@result+2)^0,w,c
  3630  00734E  101C               	iorwf	(DATAtoHEXA@result+1)^0,w,c
  3631  007350  E107               	bnz	u1511
  3632  007352  0E10               	movlw	16
  3633  007354  5C1B               	subwf	DATAtoHEXA@result^0,w,c
  3634  007356  B0D8               	btfsc	status,0,c
  3635  007358  EFB0  F039         	goto	u1511
  3636  00735C  EFB2  F039         	goto	u1510
  3637  007360                     u1511:
  3638  007360  EF4F  F039         	goto	l2766
  3639  007364                     u1510:
  3640  007364                     
  3641                           ;serial_protocolo.c: 117:     int_to_hex[i] = (int)result;
  3642  007364  90D8               	bcf	status,0,c
  3643  007366  3423               	rlcf	DATAtoHEXA@i^0,w,c
  3644  007368  6ED9               	movwf	fsr2l,c
  3645  00736A  3424               	rlcf	(DATAtoHEXA@i+1)^0,w,c
  3646  00736C  6EDA               	movwf	fsr2h,c
  3647  00736E  0E00               	movlw	low _int_to_hex
  3648  007370  26D9               	addwf	fsr2l,f,c
  3649  007372  0E01               	movlw	high _int_to_hex
  3650  007374  22DA               	addwfc	fsr2h,f,c
  3651  007376  C01B  FFDE         	movff	DATAtoHEXA@result,postinc2
  3652  00737A  C01C  FFDD         	movff	DATAtoHEXA@result+1,postdec2
  3653  00737E                     
  3654                           ;serial_protocolo.c: 119:     for (int j = i; j>=condition;j--)
  3655  00737E  C023  F025         	movff	DATAtoHEXA@i,DATAtoHEXA@j
  3656  007382  C024  F026         	movff	DATAtoHEXA@i+1,DATAtoHEXA@j+1
  3657  007386  EF8A  F03A         	goto	l2810
  3658  00738A                     l2780:
  3659                           
  3660                           ;serial_protocolo.c: 120:     {;serial_protocolo.c: 121:         if(int_to_hex[j]==10)
  3661  00738A  90D8               	bcf	status,0,c
  3662  00738C  3425               	rlcf	DATAtoHEXA@j^0,w,c
  3663  00738E  6ED9               	movwf	fsr2l,c
  3664  007390  3426               	rlcf	(DATAtoHEXA@j+1)^0,w,c
  3665  007392  6EDA               	movwf	fsr2h,c
  3666  007394  0E00               	movlw	low _int_to_hex
  3667  007396  26D9               	addwf	fsr2l,f,c
  3668  007398  0E01               	movlw	high _int_to_hex
  3669  00739A  22DA               	addwfc	fsr2h,f,c
  3670  00739C  0E0A               	movlw	10
  3671  00739E  18DE               	xorwf	postinc2,w,c
  3672  0073A0  10DE               	iorwf	postinc2,w,c
  3673  0073A2  A4D8               	btfss	status,2,c
  3674  0073A4  EFD6  F039         	goto	u1521
  3675  0073A8  EFD8  F039         	goto	u1520
  3676  0073AC                     u1521:
  3677  0073AC  EFE2  F039         	goto	l2784
  3678  0073B0                     u1520:
  3679  0073B0                     
  3680                           ;serial_protocolo.c: 122:         {;serial_protocolo.c: 123:             hexa[k] = 'A';
  3681  0073B0  0EAD               	movlw	low _hexa
  3682  0073B2  2427               	addwf	DATAtoHEXA@k^0,w,c
  3683  0073B4  6ED9               	movwf	fsr2l,c
  3684  0073B6  0E00               	movlw	high _hexa
  3685  0073B8  2028               	addwfc	(DATAtoHEXA@k+1)^0,w,c
  3686  0073BA  6EDA               	movwf	fsr2h,c
  3687  0073BC  0E41               	movlw	65
  3688  0073BE  6EDF               	movwf	indf2,c
  3689                           
  3690                           ;serial_protocolo.c: 124:         }
  3691  0073C0  EF85  F03A         	goto	l2806
  3692  0073C4                     l2784:
  3693  0073C4  90D8               	bcf	status,0,c
  3694  0073C6  3425               	rlcf	DATAtoHEXA@j^0,w,c
  3695  0073C8  6ED9               	movwf	fsr2l,c
  3696  0073CA  3426               	rlcf	(DATAtoHEXA@j+1)^0,w,c
  3697  0073CC  6EDA               	movwf	fsr2h,c
  3698  0073CE  0E00               	movlw	low _int_to_hex
  3699  0073D0  26D9               	addwf	fsr2l,f,c
  3700  0073D2  0E01               	movlw	high _int_to_hex
  3701  0073D4  22DA               	addwfc	fsr2h,f,c
  3702  0073D6  0E0B               	movlw	11
  3703  0073D8  18DE               	xorwf	postinc2,w,c
  3704  0073DA  10DE               	iorwf	postinc2,w,c
  3705  0073DC  A4D8               	btfss	status,2,c
  3706  0073DE  EFF3  F039         	goto	u1531
  3707  0073E2  EFF5  F039         	goto	u1530
  3708  0073E6                     u1531:
  3709  0073E6  EFFF  F039         	goto	l2788
  3710  0073EA                     u1530:
  3711  0073EA                     
  3712                           ;serial_protocolo.c: 126:         {;serial_protocolo.c: 127:             hexa[k] = 'B';
  3713  0073EA  0EAD               	movlw	low _hexa
  3714  0073EC  2427               	addwf	DATAtoHEXA@k^0,w,c
  3715  0073EE  6ED9               	movwf	fsr2l,c
  3716  0073F0  0E00               	movlw	high _hexa
  3717  0073F2  2028               	addwfc	(DATAtoHEXA@k+1)^0,w,c
  3718  0073F4  6EDA               	movwf	fsr2h,c
  3719  0073F6  0E42               	movlw	66
  3720  0073F8  6EDF               	movwf	indf2,c
  3721                           
  3722                           ;serial_protocolo.c: 128:         }
  3723  0073FA  EF85  F03A         	goto	l2806
  3724  0073FE                     l2788:
  3725  0073FE  90D8               	bcf	status,0,c
  3726  007400  3425               	rlcf	DATAtoHEXA@j^0,w,c
  3727  007402  6ED9               	movwf	fsr2l,c
  3728  007404  3426               	rlcf	(DATAtoHEXA@j+1)^0,w,c
  3729  007406  6EDA               	movwf	fsr2h,c
  3730  007408  0E00               	movlw	low _int_to_hex
  3731  00740A  26D9               	addwf	fsr2l,f,c
  3732  00740C  0E01               	movlw	high _int_to_hex
  3733  00740E  22DA               	addwfc	fsr2h,f,c
  3734  007410  0E0C               	movlw	12
  3735  007412  18DE               	xorwf	postinc2,w,c
  3736  007414  10DE               	iorwf	postinc2,w,c
  3737  007416  A4D8               	btfss	status,2,c
  3738  007418  EF10  F03A         	goto	u1541
  3739  00741C  EF12  F03A         	goto	u1540
  3740  007420                     u1541:
  3741  007420  EF1C  F03A         	goto	l2792
  3742  007424                     u1540:
  3743  007424                     
  3744                           ;serial_protocolo.c: 130:         {;serial_protocolo.c: 131:             hexa[k] = 'C';
  3745  007424  0EAD               	movlw	low _hexa
  3746  007426  2427               	addwf	DATAtoHEXA@k^0,w,c
  3747  007428  6ED9               	movwf	fsr2l,c
  3748  00742A  0E00               	movlw	high _hexa
  3749  00742C  2028               	addwfc	(DATAtoHEXA@k+1)^0,w,c
  3750  00742E  6EDA               	movwf	fsr2h,c
  3751  007430  0E43               	movlw	67
  3752  007432  6EDF               	movwf	indf2,c
  3753                           
  3754                           ;serial_protocolo.c: 132:         }
  3755  007434  EF85  F03A         	goto	l2806
  3756  007438                     l2792:
  3757  007438  90D8               	bcf	status,0,c
  3758  00743A  3425               	rlcf	DATAtoHEXA@j^0,w,c
  3759  00743C  6ED9               	movwf	fsr2l,c
  3760  00743E  3426               	rlcf	(DATAtoHEXA@j+1)^0,w,c
  3761  007440  6EDA               	movwf	fsr2h,c
  3762  007442  0E00               	movlw	low _int_to_hex
  3763  007444  26D9               	addwf	fsr2l,f,c
  3764  007446  0E01               	movlw	high _int_to_hex
  3765  007448  22DA               	addwfc	fsr2h,f,c
  3766  00744A  0E0D               	movlw	13
  3767  00744C  18DE               	xorwf	postinc2,w,c
  3768  00744E  10DE               	iorwf	postinc2,w,c
  3769  007450  A4D8               	btfss	status,2,c
  3770  007452  EF2D  F03A         	goto	u1551
  3771  007456  EF2F  F03A         	goto	u1550
  3772  00745A                     u1551:
  3773  00745A  EF39  F03A         	goto	l2796
  3774  00745E                     u1550:
  3775  00745E                     
  3776                           ;serial_protocolo.c: 134:         {;serial_protocolo.c: 135:             hexa[k] = 'D';
  3777  00745E  0EAD               	movlw	low _hexa
  3778  007460  2427               	addwf	DATAtoHEXA@k^0,w,c
  3779  007462  6ED9               	movwf	fsr2l,c
  3780  007464  0E00               	movlw	high _hexa
  3781  007466  2028               	addwfc	(DATAtoHEXA@k+1)^0,w,c
  3782  007468  6EDA               	movwf	fsr2h,c
  3783  00746A  0E44               	movlw	68
  3784  00746C  6EDF               	movwf	indf2,c
  3785                           
  3786                           ;serial_protocolo.c: 136:         }
  3787  00746E  EF85  F03A         	goto	l2806
  3788  007472                     l2796:
  3789  007472  90D8               	bcf	status,0,c
  3790  007474  3425               	rlcf	DATAtoHEXA@j^0,w,c
  3791  007476  6ED9               	movwf	fsr2l,c
  3792  007478  3426               	rlcf	(DATAtoHEXA@j+1)^0,w,c
  3793  00747A  6EDA               	movwf	fsr2h,c
  3794  00747C  0E00               	movlw	low _int_to_hex
  3795  00747E  26D9               	addwf	fsr2l,f,c
  3796  007480  0E01               	movlw	high _int_to_hex
  3797  007482  22DA               	addwfc	fsr2h,f,c
  3798  007484  0E0E               	movlw	14
  3799  007486  18DE               	xorwf	postinc2,w,c
  3800  007488  10DE               	iorwf	postinc2,w,c
  3801  00748A  A4D8               	btfss	status,2,c
  3802  00748C  EF4A  F03A         	goto	u1561
  3803  007490  EF4C  F03A         	goto	u1560
  3804  007494                     u1561:
  3805  007494  EF56  F03A         	goto	l2800
  3806  007498                     u1560:
  3807  007498                     
  3808                           ;serial_protocolo.c: 138:         {;serial_protocolo.c: 139:             hexa[k] = 'E';
  3809  007498  0EAD               	movlw	low _hexa
  3810  00749A  2427               	addwf	DATAtoHEXA@k^0,w,c
  3811  00749C  6ED9               	movwf	fsr2l,c
  3812  00749E  0E00               	movlw	high _hexa
  3813  0074A0  2028               	addwfc	(DATAtoHEXA@k+1)^0,w,c
  3814  0074A2  6EDA               	movwf	fsr2h,c
  3815  0074A4  0E45               	movlw	69
  3816  0074A6  6EDF               	movwf	indf2,c
  3817                           
  3818                           ;serial_protocolo.c: 140:         }
  3819  0074A8  EF85  F03A         	goto	l2806
  3820  0074AC                     l2800:
  3821  0074AC  90D8               	bcf	status,0,c
  3822  0074AE  3425               	rlcf	DATAtoHEXA@j^0,w,c
  3823  0074B0  6ED9               	movwf	fsr2l,c
  3824  0074B2  3426               	rlcf	(DATAtoHEXA@j+1)^0,w,c
  3825  0074B4  6EDA               	movwf	fsr2h,c
  3826  0074B6  0E00               	movlw	low _int_to_hex
  3827  0074B8  26D9               	addwf	fsr2l,f,c
  3828  0074BA  0E01               	movlw	high _int_to_hex
  3829  0074BC  22DA               	addwfc	fsr2h,f,c
  3830  0074BE  0E0F               	movlw	15
  3831  0074C0  18DE               	xorwf	postinc2,w,c
  3832  0074C2  10DE               	iorwf	postinc2,w,c
  3833  0074C4  A4D8               	btfss	status,2,c
  3834  0074C6  EF67  F03A         	goto	u1571
  3835  0074CA  EF69  F03A         	goto	u1570
  3836  0074CE                     u1571:
  3837  0074CE  EF73  F03A         	goto	l2804
  3838  0074D2                     u1570:
  3839  0074D2                     
  3840                           ;serial_protocolo.c: 142:         {;serial_protocolo.c: 143:             hexa[k] = 'F';
  3841  0074D2  0EAD               	movlw	low _hexa
  3842  0074D4  2427               	addwf	DATAtoHEXA@k^0,w,c
  3843  0074D6  6ED9               	movwf	fsr2l,c
  3844  0074D8  0E00               	movlw	high _hexa
  3845  0074DA  2028               	addwfc	(DATAtoHEXA@k+1)^0,w,c
  3846  0074DC  6EDA               	movwf	fsr2h,c
  3847  0074DE  0E46               	movlw	70
  3848  0074E0  6EDF               	movwf	indf2,c
  3849                           
  3850                           ;serial_protocolo.c: 144:         }
  3851  0074E2  EF85  F03A         	goto	l2806
  3852  0074E6                     l2804:
  3853                           
  3854                           ;serial_protocolo.c: 146:         {;serial_protocolo.c: 148:             hexa[k] = (char
      +                          ) int_to_hex[j] +'0';
  3855  0074E6  0EAD               	movlw	low _hexa
  3856  0074E8  2427               	addwf	DATAtoHEXA@k^0,w,c
  3857  0074EA  6ED9               	movwf	fsr2l,c
  3858  0074EC  0E00               	movlw	high _hexa
  3859  0074EE  2028               	addwfc	(DATAtoHEXA@k+1)^0,w,c
  3860  0074F0  6EDA               	movwf	fsr2h,c
  3861  0074F2  90D8               	bcf	status,0,c
  3862  0074F4  3425               	rlcf	DATAtoHEXA@j^0,w,c
  3863  0074F6  6EE1               	movwf	fsr1l,c
  3864  0074F8  3426               	rlcf	(DATAtoHEXA@j+1)^0,w,c
  3865  0074FA  6EE2               	movwf	fsr1h,c
  3866  0074FC  0E00               	movlw	low _int_to_hex
  3867  0074FE  26E1               	addwf	fsr1l,f,c
  3868  007500  0E01               	movlw	high _int_to_hex
  3869  007502  22E2               	addwfc	fsr1h,f,c
  3870  007504  50E7               	movf	indf1,w,c
  3871  007506  0F30               	addlw	48
  3872  007508  6EDF               	movwf	indf2,c
  3873  00750A                     l2806:
  3874                           
  3875                           ;serial_protocolo.c: 150:         k++;
  3876  00750A  4A27               	infsnz	DATAtoHEXA@k^0,f,c
  3877  00750C  2A28               	incf	(DATAtoHEXA@k+1)^0,f,c
  3878  00750E                     
  3879                           ;serial_protocolo.c: 151:     }
  3880  00750E  0625               	decf	DATAtoHEXA@j^0,f,c
  3881  007510  A0D8               	btfss	status,0,c
  3882  007512  0626               	decf	(DATAtoHEXA@j+1)^0,f,c
  3883  007514                     l2810:
  3884  007514  5019               	movf	DATAtoHEXA@condition^0,w,c
  3885  007516  5C25               	subwf	DATAtoHEXA@j^0,w,c
  3886  007518  5026               	movf	(DATAtoHEXA@j+1)^0,w,c
  3887  00751A  0A80               	xorlw	128
  3888  00751C  6E0F               	movwf	??_DATAtoHEXA^0,c
  3889  00751E  501A               	movf	(DATAtoHEXA@condition+1)^0,w,c
  3890  007520  0A80               	xorlw	128
  3891  007522  580F               	subwfb	??_DATAtoHEXA^0,w,c
  3892  007524  B0D8               	btfsc	status,0,c
  3893  007526  EF97  F03A         	goto	u1581
  3894  00752A  EF99  F03A         	goto	u1580
  3895  00752E                     u1581:
  3896  00752E  EFC5  F039         	goto	l2780
  3897  007532                     u1580:
  3898  007532                     
  3899                           ;serial_protocolo.c: 154:     if(Type == 4)
  3900  007532  0E04               	movlw	4
  3901  007534  180D               	xorwf	DATAtoHEXA@Type^0,w,c
  3902  007536  100E               	iorwf	(DATAtoHEXA@Type+1)^0,w,c
  3903  007538  A4D8               	btfss	status,2,c
  3904  00753A  EFA1  F03A         	goto	u1591
  3905  00753E  EFA3  F03A         	goto	u1590
  3906  007542                     u1591:
  3907  007542  EFAD  F03A         	goto	l497
  3908  007546                     u1590:
  3909  007546                     
  3910                           ;serial_protocolo.c: 155:     {;serial_protocolo.c: 156:         length = Len(hexa);
  3911  007546  0EAD               	movlw	low _hexa
  3912  007548  6E01               	movwf	Len@Data^0,c
  3913  00754A  0E00               	movlw	high _hexa
  3914  00754C  6E02               	movwf	(Len@Data+1)^0,c
  3915  00754E  ECC4  F034         	call	_Len	;wreg free
  3916  007552  C001  F057         	movff	?_Len,_length
  3917  007556  C002  F058         	movff	?_Len+1,_length+1
  3918  00755A                     l497:
  3919  00755A  0012               	return		;funcret
  3920  00755C                     __end_of_DATAtoHEXA:
  3921                           	callstack 0
  3922                           
  3923 ;; *************** function _Len *****************
  3924 ;; Defined at:
  3925 ;;		line 24 in file "serial_protocolo.c"
  3926 ;; Parameters:    Size  Location     Type
  3927 ;;  Data            2    0[COMRAM] PTR unsigned char 
  3928 ;;		 -> auxiliary(20), hexa(34), 
  3929 ;; Auto vars:     Size  Location     Type
  3930 ;;  L               2    2[COMRAM] int 
  3931 ;; Return value:  Size  Location     Type
  3932 ;;                  2    0[COMRAM] int 
  3933 ;; Registers used:
  3934 ;;		wreg, fsr2l, fsr2h, status,2, status,0
  3935 ;; Tracked objects:
  3936 ;;		On entry : 0/0
  3937 ;;		On exit  : 0/0
  3938 ;;		Unchanged: 0/0
  3939 ;; Data sizes:     COMRAM   BANK0   BANK1   BANK2   BANK3   BANK4   BANK5   BANK6   BANK7
  3940 ;;      Params:         2       0       0       0       0       0       0       0       0
  3941 ;;      Locals:         2       0       0       0       0       0       0       0       0
  3942 ;;      Temps:          0       0       0       0       0       0       0       0       0
  3943 ;;      Totals:         4       0       0       0       0       0       0       0       0
  3944 ;;Total ram usage:        4 bytes
  3945 ;; Hardware stack levels used: 1
  3946 ;; This function calls:
  3947 ;;		Nothing
  3948 ;; This function is called by:
  3949 ;;		_DATAtoHEXA
  3950 ;;		_HEXAtoDATA
  3951 ;;		_Decode_Data_Pakect
  3952 ;; This function uses a non-reentrant model
  3953 ;;
  3954                           
  3955                           	psect	text13
  3956  006988                     __ptext13:
  3957                           	callstack 0
  3958  006988                     _Len:
  3959                           	callstack 28
  3960  006988                     
  3961                           ;serial_protocolo.c: 24: int Len(char *Data);serial_protocolo.c: 25: {;serial_protocolo.
      +                          c: 26:     int L = 0;
  3962  006988  0E00               	movlw	0
  3963  00698A  6E04               	movwf	(Len@L+1)^0,c
  3964  00698C  0E00               	movlw	0
  3965  00698E  6E03               	movwf	Len@L^0,c
  3966                           
  3967                           ;serial_protocolo.c: 27:     while(Data[L]!='\0')
  3968  006990  EFCC  F034         	goto	l2616
  3969  006994                     l2614:
  3970                           
  3971                           ;serial_protocolo.c: 28:     {;serial_protocolo.c: 29:         L++;
  3972  006994  4A03               	infsnz	Len@L^0,f,c
  3973  006996  2A04               	incf	(Len@L+1)^0,f,c
  3974  006998                     l2616:
  3975                           
  3976                           ;serial_protocolo.c: 27:     while(Data[L]!='\0')
  3977  006998  5003               	movf	Len@L^0,w,c
  3978  00699A  2401               	addwf	Len@Data^0,w,c
  3979  00699C  6ED9               	movwf	fsr2l,c
  3980  00699E  5004               	movf	(Len@L+1)^0,w,c
  3981  0069A0  2002               	addwfc	(Len@Data+1)^0,w,c
  3982  0069A2  6EDA               	movwf	fsr2h,c
  3983  0069A4  50DF               	movf	indf2,w,c
  3984  0069A6  A4D8               	btfss	status,2,c
  3985  0069A8  EFD8  F034         	goto	u1291
  3986  0069AC  EFDA  F034         	goto	u1290
  3987  0069B0                     u1291:
  3988  0069B0  EFCA  F034         	goto	l2614
  3989  0069B4                     u1290:
  3990  0069B4                     
  3991                           ;serial_protocolo.c: 31:     return L;
  3992  0069B4  C003  F001         	movff	Len@L,?_Len
  3993  0069B8  C004  F002         	movff	Len@L+1,?_Len+1
  3994  0069BC  0012               	return		;funcret
  3995  0069BE                     __end_of_Len:
  3996                           	callstack 0
  3997                           
  3998 ;; *************** function _SYSTEM_Initialize *****************
  3999 ;; Defined at:
  4000 ;;		line 50 in file "mcc_generated_files/mcc.c"
  4001 ;; Parameters:    Size  Location     Type
  4002 ;;		None
  4003 ;; Auto vars:     Size  Location     Type
  4004 ;;		None
  4005 ;; Return value:  Size  Location     Type
  4006 ;;                  1    wreg      void 
  4007 ;; Registers used:
  4008 ;;		wreg, status,2, status,0, cstack
  4009 ;; Tracked objects:
  4010 ;;		On entry : 0/0
  4011 ;;		On exit  : 0/0
  4012 ;;		Unchanged: 0/0
  4013 ;; Data sizes:     COMRAM   BANK0   BANK1   BANK2   BANK3   BANK4   BANK5   BANK6   BANK7
  4014 ;;      Params:         0       0       0       0       0       0       0       0       0
  4015 ;;      Locals:         0       0       0       0       0       0       0       0       0
  4016 ;;      Temps:          0       0       0       0       0       0       0       0       0
  4017 ;;      Totals:         0       0       0       0       0       0       0       0       0
  4018 ;;Total ram usage:        0 bytes
  4019 ;; Hardware stack levels used: 1
  4020 ;; Hardware stack levels required when called: 2
  4021 ;; This function calls:
  4022 ;;		_EUSART1_Initialize
  4023 ;;		_OSCILLATOR_Initialize
  4024 ;;		_PIN_MANAGER_Initialize
  4025 ;; This function is called by:
  4026 ;;		_main
  4027 ;; This function uses a non-reentrant model
  4028 ;;
  4029                           
  4030                           	psect	text14
  4031  0067D6                     __ptext14:
  4032                           	callstack 0
  4033  0067D6                     _SYSTEM_Initialize:
  4034                           	callstack 28
  4035  0067D6                     
  4036                           ;mcc_generated_files/mcc.c: 53:     PIN_MANAGER_Initialize();
  4037  0067D6  ECFE  F034         	call	_PIN_MANAGER_Initialize	;wreg free
  4038                           
  4039                           ;mcc_generated_files/mcc.c: 54:     OSCILLATOR_Initialize();
  4040  0067DA  EC5D  F034         	call	_OSCILLATOR_Initialize	;wreg free
  4041  0067DE                     
  4042                           ;mcc_generated_files/mcc.c: 55:     EUSART1_Initialize();
  4043  0067DE  ECDF  F034         	call	_EUSART1_Initialize	;wreg free
  4044  0067E2  0012               	return		;funcret
  4045  0067E4                     __end_of_SYSTEM_Initialize:
  4046                           	callstack 0
  4047                           
  4048 ;; *************** function _PIN_MANAGER_Initialize *****************
  4049 ;; Defined at:
  4050 ;;		line 55 in file "mcc_generated_files/pin_manager.c"
  4051 ;; Parameters:    Size  Location     Type
  4052 ;;		None
  4053 ;; Auto vars:     Size  Location     Type
  4054 ;;		None
  4055 ;; Return value:  Size  Location     Type
  4056 ;;                  1    wreg      void 
  4057 ;; Registers used:
  4058 ;;		wreg, status,2
  4059 ;; Tracked objects:
  4060 ;;		On entry : 0/0
  4061 ;;		On exit  : 0/0
  4062 ;;		Unchanged: 0/0
  4063 ;; Data sizes:     COMRAM   BANK0   BANK1   BANK2   BANK3   BANK4   BANK5   BANK6   BANK7
  4064 ;;      Params:         0       0       0       0       0       0       0       0       0
  4065 ;;      Locals:         0       0       0       0       0       0       0       0       0
  4066 ;;      Temps:          0       0       0       0       0       0       0       0       0
  4067 ;;      Totals:         0       0       0       0       0       0       0       0       0
  4068 ;;Total ram usage:        0 bytes
  4069 ;; Hardware stack levels used: 1
  4070 ;; This function calls:
  4071 ;;		Nothing
  4072 ;; This function is called by:
  4073 ;;		_SYSTEM_Initialize
  4074 ;; This function uses a non-reentrant model
  4075 ;;
  4076                           
  4077                           	psect	text15
  4078  0069FC                     __ptext15:
  4079                           	callstack 0
  4080  0069FC                     _PIN_MANAGER_Initialize:
  4081                           	callstack 29
  4082  0069FC                     
  4083                           ;mcc_generated_files/pin_manager.c: 60:     LATE = 0x00;
  4084  0069FC  0E00               	movlw	0
  4085  0069FE  6E8D               	movwf	141,c	;volatile
  4086                           
  4087                           ;mcc_generated_files/pin_manager.c: 61:     LATD = 0x00;
  4088  006A00  0E00               	movlw	0
  4089  006A02  6E8C               	movwf	140,c	;volatile
  4090                           
  4091                           ;mcc_generated_files/pin_manager.c: 62:     LATA = 0x00;
  4092  006A04  0E00               	movlw	0
  4093  006A06  6E89               	movwf	137,c	;volatile
  4094                           
  4095                           ;mcc_generated_files/pin_manager.c: 63:     LATB = 0x00;
  4096  006A08  0E00               	movlw	0
  4097  006A0A  6E8A               	movwf	138,c	;volatile
  4098                           
  4099                           ;mcc_generated_files/pin_manager.c: 64:     LATC = 0x00;
  4100  006A0C  0E00               	movlw	0
  4101  006A0E  6E8B               	movwf	139,c	;volatile
  4102                           
  4103                           ;mcc_generated_files/pin_manager.c: 69:     TRISE = 0x07;
  4104  006A10  0E07               	movlw	7
  4105  006A12  6E96               	movwf	150,c	;volatile
  4106  006A14                     
  4107                           ;mcc_generated_files/pin_manager.c: 70:     TRISA = 0xFF;
  4108  006A14  6892               	setf	146,c	;volatile
  4109  006A16                     
  4110                           ;mcc_generated_files/pin_manager.c: 71:     TRISB = 0xFF;
  4111  006A16  6893               	setf	147,c	;volatile
  4112                           
  4113                           ;mcc_generated_files/pin_manager.c: 72:     TRISC = 0x87;
  4114  006A18  0E87               	movlw	135
  4115  006A1A  6E94               	movwf	148,c	;volatile
  4116  006A1C                     
  4117                           ;mcc_generated_files/pin_manager.c: 73:     TRISD = 0xFF;
  4118  006A1C  6895               	setf	149,c	;volatile
  4119  006A1E                     
  4120                           ;mcc_generated_files/pin_manager.c: 78:     ANSELD = 0xFF;
  4121  006A1E  010F               	movlb	15	; () banked
  4122  006A20  695E               	setf	94,b	;volatile
  4123                           
  4124                           ;mcc_generated_files/pin_manager.c: 79:     ANSELC = 0x04;
  4125  006A22  0E04               	movlw	4
  4126  006A24  6F5D               	movwf	93,b	;volatile
  4127                           
  4128                           ;mcc_generated_files/pin_manager.c: 80:     ANSELB = 0x3F;
  4129  006A26  0E3F               	movlw	63
  4130  006A28  6F5C               	movwf	92,b	;volatile
  4131                           
  4132                           ;mcc_generated_files/pin_manager.c: 81:     ANSELE = 0x07;
  4133  006A2A  0E07               	movlw	7
  4134  006A2C  6F5F               	movwf	95,b	;volatile
  4135                           
  4136                           ;mcc_generated_files/pin_manager.c: 82:     ANSELA = 0x2F;
  4137  006A2E  0E2F               	movlw	47
  4138  006A30  6F5B               	movwf	91,b	;volatile
  4139                           
  4140                           ;mcc_generated_files/pin_manager.c: 87:     WPUB = 0x00;
  4141  006A32  0E00               	movlw	0
  4142  006A34  6E85               	movwf	133,c	;volatile
  4143  006A36                     
  4144                           ; BSR set to: 15
  4145                           ;mcc_generated_files/pin_manager.c: 88:     INTCON2bits.nRBPU = 1;
  4146  006A36  8EF1               	bsf	241,7,c	;volatile
  4147  006A38                     
  4148                           ; BSR set to: 15
  4149  006A38  0012               	return		;funcret
  4150  006A3A                     __end_of_PIN_MANAGER_Initialize:
  4151                           	callstack 0
  4152                           
  4153 ;; *************** function _OSCILLATOR_Initialize *****************
  4154 ;; Defined at:
  4155 ;;		line 58 in file "mcc_generated_files/mcc.c"
  4156 ;; Parameters:    Size  Location     Type
  4157 ;;		None
  4158 ;; Auto vars:     Size  Location     Type
  4159 ;;		None
  4160 ;; Return value:  Size  Location     Type
  4161 ;;                  1    wreg      void 
  4162 ;; Registers used:
  4163 ;;		wreg, status,2
  4164 ;; Tracked objects:
  4165 ;;		On entry : 0/0
  4166 ;;		On exit  : 0/0
  4167 ;;		Unchanged: 0/0
  4168 ;; Data sizes:     COMRAM   BANK0   BANK1   BANK2   BANK3   BANK4   BANK5   BANK6   BANK7
  4169 ;;      Params:         0       0       0       0       0       0       0       0       0
  4170 ;;      Locals:         0       0       0       0       0       0       0       0       0
  4171 ;;      Temps:          0       0       0       0       0       0       0       0       0
  4172 ;;      Totals:         0       0       0       0       0       0       0       0       0
  4173 ;;Total ram usage:        0 bytes
  4174 ;; Hardware stack levels used: 1
  4175 ;; This function calls:
  4176 ;;		Nothing
  4177 ;; This function is called by:
  4178 ;;		_SYSTEM_Initialize
  4179 ;; This function uses a non-reentrant model
  4180 ;;
  4181                           
  4182                           	psect	text16
  4183  0068BA                     __ptext16:
  4184                           	callstack 0
  4185  0068BA                     _OSCILLATOR_Initialize:
  4186                           	callstack 29
  4187  0068BA                     
  4188                           ;mcc_generated_files/mcc.c: 61:     OSCCON = 0x70;
  4189  0068BA  0E70               	movlw	112
  4190  0068BC  6ED3               	movwf	211,c	;volatile
  4191                           
  4192                           ;mcc_generated_files/mcc.c: 63:     OSCCON2 = 0x00;
  4193  0068BE  0E00               	movlw	0
  4194  0068C0  6ED2               	movwf	210,c	;volatile
  4195                           
  4196                           ;mcc_generated_files/mcc.c: 65:     OSCTUNE = 0x80;
  4197  0068C2  0E80               	movlw	128
  4198  0068C4  6E9B               	movwf	155,c	;volatile
  4199                           
  4200                           ;mcc_generated_files/mcc.c: 67:     ACTCON = 0x00;
  4201  0068C6  0E00               	movlw	0
  4202  0068C8  6EB5               	movwf	181,c	;volatile
  4203  0068CA                     l92:
  4204                           
  4205                           ;mcc_generated_files/mcc.c: 69:     while(PLLRDY == 0)
  4206  0068CA  AED2               	btfss	4050,7,c	;volatile
  4207  0068CC  EF6A  F034         	goto	u1421
  4208  0068D0  EF6C  F034         	goto	u1420
  4209  0068D4                     u1421:
  4210  0068D4  EF65  F034         	goto	l92
  4211  0068D8                     u1420:
  4212  0068D8  0012               	return		;funcret
  4213  0068DA                     __end_of_OSCILLATOR_Initialize:
  4214                           	callstack 0
  4215                           
  4216 ;; *************** function _EUSART1_Initialize *****************
  4217 ;; Defined at:
  4218 ;;		line 66 in file "mcc_generated_files/eusart1.c"
  4219 ;; Parameters:    Size  Location     Type
  4220 ;;		None
  4221 ;; Auto vars:     Size  Location     Type
  4222 ;;		None
  4223 ;; Return value:  Size  Location     Type
  4224 ;;                  1    wreg      void 
  4225 ;; Registers used:
  4226 ;;		wreg, status,2, status,0, cstack
  4227 ;; Tracked objects:
  4228 ;;		On entry : 0/0
  4229 ;;		On exit  : 0/0
  4230 ;;		Unchanged: 0/0
  4231 ;; Data sizes:     COMRAM   BANK0   BANK1   BANK2   BANK3   BANK4   BANK5   BANK6   BANK7
  4232 ;;      Params:         0       0       0       0       0       0       0       0       0
  4233 ;;      Locals:         0       0       0       0       0       0       0       0       0
  4234 ;;      Temps:          0       0       0       0       0       0       0       0       0
  4235 ;;      Totals:         0       0       0       0       0       0       0       0       0
  4236 ;;Total ram usage:        0 bytes
  4237 ;; Hardware stack levels used: 1
  4238 ;; Hardware stack levels required when called: 1
  4239 ;; This function calls:
  4240 ;;		_EUSART1_SetErrorHandler
  4241 ;;		_EUSART1_SetFramingErrorHandler
  4242 ;;		_EUSART1_SetOverrunErrorHandler
  4243 ;; This function is called by:
  4244 ;;		_SYSTEM_Initialize
  4245 ;; This function uses a non-reentrant model
  4246 ;;
  4247                           
  4248                           	psect	text17
  4249  0069BE                     __ptext17:
  4250                           	callstack 0
  4251  0069BE                     _EUSART1_Initialize:
  4252                           	callstack 28
  4253  0069BE                     
  4254                           ;mcc_generated_files/eusart1.c: 71:     BAUDCON1 = 0x08;
  4255  0069BE  0E08               	movlw	8
  4256  0069C0  6EB8               	movwf	184,c	;volatile
  4257                           
  4258                           ;mcc_generated_files/eusart1.c: 74:     RCSTA1 = 0x90;
  4259  0069C2  0E90               	movlw	144
  4260  0069C4  6EAB               	movwf	171,c	;volatile
  4261                           
  4262                           ;mcc_generated_files/eusart1.c: 77:     TXSTA1 = 0x24;
  4263  0069C6  0E24               	movlw	36
  4264  0069C8  6EAC               	movwf	172,c	;volatile
  4265                           
  4266                           ;mcc_generated_files/eusart1.c: 80:     SPBRG1 = 0xCF;
  4267  0069CA  0ECF               	movlw	207
  4268  0069CC  6EAF               	movwf	175,c	;volatile
  4269                           
  4270                           ;mcc_generated_files/eusart1.c: 83:     SPBRGH1 = 0x00;
  4271  0069CE  0E00               	movlw	0
  4272  0069D0  6EB0               	movwf	176,c	;volatile
  4273  0069D2                     
  4274                           ;mcc_generated_files/eusart1.c: 86:     EUSART1_SetFramingErrorHandler(EUSART1_DefaultFr
      +                          amingErrorHandler);
  4275  0069D2  0E00               	movlw	0
  4276  0069D4  6E01               	movwf	EUSART1_SetFramingErrorHandler@interruptHandler^0,c
  4277  0069D6  0E00               	movlw	0
  4278  0069D8  6E02               	movwf	(EUSART1_SetFramingErrorHandler@interruptHandler+1)^0,c
  4279  0069DA  ECCF  F033         	call	_EUSART1_SetFramingErrorHandler	;wreg free
  4280  0069DE                     
  4281                           ;mcc_generated_files/eusart1.c: 87:     EUSART1_SetOverrunErrorHandler(EUSART1_DefaultOv
      +                          errunErrorHandler);
  4282  0069DE  0E00               	movlw	0
  4283  0069E0  6E01               	movwf	EUSART1_SetOverrunErrorHandler@interruptHandler^0,c
  4284  0069E2  0E00               	movlw	0
  4285  0069E4  6E02               	movwf	(EUSART1_SetOverrunErrorHandler@interruptHandler+1)^0,c
  4286  0069E6  ECD4  F033         	call	_EUSART1_SetOverrunErrorHandler	;wreg free
  4287  0069EA                     
  4288                           ;mcc_generated_files/eusart1.c: 88:     EUSART1_SetErrorHandler(EUSART1_DefaultErrorHand
      +                          ler);
  4289  0069EA  0E00               	movlw	0
  4290  0069EC  6E01               	movwf	EUSART1_SetErrorHandler@interruptHandler^0,c
  4291  0069EE  0E00               	movlw	0
  4292  0069F0  6E02               	movwf	(EUSART1_SetErrorHandler@interruptHandler+1)^0,c
  4293  0069F2  ECCA  F033         	call	_EUSART1_SetErrorHandler	;wreg free
  4294  0069F6                     
  4295                           ;mcc_generated_files/eusart1.c: 90:     eusart1RxLastError.status = 0;
  4296  0069F6  0E00               	movlw	0
  4297  0069F8  6E59               	movwf	_eusart1RxLastError^0,c	;volatile
  4298  0069FA  0012               	return		;funcret
  4299  0069FC                     __end_of_EUSART1_Initialize:
  4300                           	callstack 0
  4301                           
  4302 ;; *************** function _EUSART1_SetOverrunErrorHandler *****************
  4303 ;; Defined at:
  4304 ;;		line 193 in file "mcc_generated_files/eusart1.c"
  4305 ;; Parameters:    Size  Location     Type
  4306 ;;  interruptHan    2    0[COMRAM] PTR FTN()void 
  4307 ;;		 -> EUSART1_DefaultOverrunErrorHandler(1), 
  4308 ;; Auto vars:     Size  Location     Type
  4309 ;;		None
  4310 ;; Return value:  Size  Location     Type
  4311 ;;                  1    wreg      void 
  4312 ;; Registers used:
  4313 ;;		wreg, status,2, status,0
  4314 ;; Tracked objects:
  4315 ;;		On entry : 0/0
  4316 ;;		On exit  : 0/0
  4317 ;;		Unchanged: 0/0
  4318 ;; Data sizes:     COMRAM   BANK0   BANK1   BANK2   BANK3   BANK4   BANK5   BANK6   BANK7
  4319 ;;      Params:         2       0       0       0       0       0       0       0       0
  4320 ;;      Locals:         0       0       0       0       0       0       0       0       0
  4321 ;;      Temps:          0       0       0       0       0       0       0       0       0
  4322 ;;      Totals:         2       0       0       0       0       0       0       0       0
  4323 ;;Total ram usage:        2 bytes
  4324 ;; Hardware stack levels used: 1
  4325 ;; This function calls:
  4326 ;;		Nothing
  4327 ;; This function is called by:
  4328 ;;		_EUSART1_Initialize
  4329 ;; This function uses a non-reentrant model
  4330 ;;
  4331                           
  4332                           	psect	text18
  4333  0067A8                     __ptext18:
  4334                           	callstack 0
  4335  0067A8                     _EUSART1_SetOverrunErrorHandler:
  4336                           	callstack 28
  4337  0067A8                     
  4338                           ;mcc_generated_files/eusart1.c: 194:     EUSART1_OverrunErrorHandler = interruptHandler;
  4339  0067A8  C001  F053         	movff	EUSART1_SetOverrunErrorHandler@interruptHandler,_EUSART1_OverrunErrorHandler
  4340  0067AC  C002  F054         	movff	EUSART1_SetOverrunErrorHandler@interruptHandler+1,_EUSART1_OverrunErrorHandler+1
  4341  0067B0  0012               	return		;funcret
  4342  0067B2                     __end_of_EUSART1_SetOverrunErrorHandler:
  4343                           	callstack 0
  4344                           
  4345 ;; *************** function _EUSART1_SetFramingErrorHandler *****************
  4346 ;; Defined at:
  4347 ;;		line 189 in file "mcc_generated_files/eusart1.c"
  4348 ;; Parameters:    Size  Location     Type
  4349 ;;  interruptHan    2    0[COMRAM] PTR FTN()void 
  4350 ;;		 -> EUSART1_DefaultFramingErrorHandler(1), 
  4351 ;; Auto vars:     Size  Location     Type
  4352 ;;		None
  4353 ;; Return value:  Size  Location     Type
  4354 ;;                  1    wreg      void 
  4355 ;; Registers used:
  4356 ;;		wreg, status,2, status,0
  4357 ;; Tracked objects:
  4358 ;;		On entry : 0/0
  4359 ;;		On exit  : 0/0
  4360 ;;		Unchanged: 0/0
  4361 ;; Data sizes:     COMRAM   BANK0   BANK1   BANK2   BANK3   BANK4   BANK5   BANK6   BANK7
  4362 ;;      Params:         2       0       0       0       0       0       0       0       0
  4363 ;;      Locals:         0       0       0       0       0       0       0       0       0
  4364 ;;      Temps:          0       0       0       0       0       0       0       0       0
  4365 ;;      Totals:         2       0       0       0       0       0       0       0       0
  4366 ;;Total ram usage:        2 bytes
  4367 ;; Hardware stack levels used: 1
  4368 ;; This function calls:
  4369 ;;		Nothing
  4370 ;; This function is called by:
  4371 ;;		_EUSART1_Initialize
  4372 ;; This function uses a non-reentrant model
  4373 ;;
  4374                           
  4375                           	psect	text19
  4376  00679E                     __ptext19:
  4377                           	callstack 0
  4378  00679E                     _EUSART1_SetFramingErrorHandler:
  4379                           	callstack 28
  4380  00679E                     
  4381                           ;mcc_generated_files/eusart1.c: 190:     EUSART1_FramingErrorHandler = interruptHandler;
  4382  00679E  C001  F055         	movff	EUSART1_SetFramingErrorHandler@interruptHandler,_EUSART1_FramingErrorHandler
  4383  0067A2  C002  F056         	movff	EUSART1_SetFramingErrorHandler@interruptHandler+1,_EUSART1_FramingErrorHandler+1
  4384  0067A6  0012               	return		;funcret
  4385  0067A8                     __end_of_EUSART1_SetFramingErrorHandler:
  4386                           	callstack 0
  4387                           
  4388 ;; *************** function _EUSART1_SetErrorHandler *****************
  4389 ;; Defined at:
  4390 ;;		line 197 in file "mcc_generated_files/eusart1.c"
  4391 ;; Parameters:    Size  Location     Type
  4392 ;;  interruptHan    2    0[COMRAM] PTR FTN()void 
  4393 ;;		 -> EUSART1_DefaultErrorHandler(1), 
  4394 ;; Auto vars:     Size  Location     Type
  4395 ;;		None
  4396 ;; Return value:  Size  Location     Type
  4397 ;;                  1    wreg      void 
  4398 ;; Registers used:
  4399 ;;		wreg, status,2, status,0
  4400 ;; Tracked objects:
  4401 ;;		On entry : 0/0
  4402 ;;		On exit  : 0/0
  4403 ;;		Unchanged: 0/0
  4404 ;; Data sizes:     COMRAM   BANK0   BANK1   BANK2   BANK3   BANK4   BANK5   BANK6   BANK7
  4405 ;;      Params:         2       0       0       0       0       0       0       0       0
  4406 ;;      Locals:         0       0       0       0       0       0       0       0       0
  4407 ;;      Temps:          0       0       0       0       0       0       0       0       0
  4408 ;;      Totals:         2       0       0       0       0       0       0       0       0
  4409 ;;Total ram usage:        2 bytes
  4410 ;; Hardware stack levels used: 1
  4411 ;; This function calls:
  4412 ;;		Nothing
  4413 ;; This function is called by:
  4414 ;;		_EUSART1_Initialize
  4415 ;; This function uses a non-reentrant model
  4416 ;;
  4417                           
  4418                           	psect	text20
  4419  006794                     __ptext20:
  4420                           	callstack 0
  4421  006794                     _EUSART1_SetErrorHandler:
  4422                           	callstack 28
  4423  006794                     
  4424                           ;mcc_generated_files/eusart1.c: 198:     EUSART1_ErrorHandler = interruptHandler;
  4425  006794  C001  F051         	movff	EUSART1_SetErrorHandler@interruptHandler,_EUSART1_ErrorHandler
  4426  006798  C002  F052         	movff	EUSART1_SetErrorHandler@interruptHandler+1,_EUSART1_ErrorHandler+1
  4427  00679C  0012               	return		;funcret
  4428  00679E                     __end_of_EUSART1_SetErrorHandler:
  4429                           	callstack 0
  4430                           
  4431 ;; *************** function _Opening *****************
  4432 ;; Defined at:
  4433 ;;		line 49 in file "main.c"
  4434 ;; Parameters:    Size  Location     Type
  4435 ;;		None
  4436 ;; Auto vars:     Size  Location     Type
  4437 ;;  aux            16   24[COMRAM] unsigned char [16]
  4438 ;;  i               1   41[COMRAM] unsigned char 
  4439 ;;  size            1   40[COMRAM] unsigned char 
  4440 ;; Return value:  Size  Location     Type
  4441 ;;                  1    wreg      void 
  4442 ;; Registers used:
  4443 ;;		wreg, fsr0l, fsr0h, fsr1l, fsr1h, fsr2l, fsr2h, status,2, status,0, tblptrl, tblptrh, tblptru, prodl, prodh, cstack
  4444 ;; Tracked objects:
  4445 ;;		On entry : 0/0
  4446 ;;		On exit  : 0/0
  4447 ;;		Unchanged: 0/0
  4448 ;; Data sizes:     COMRAM   BANK0   BANK1   BANK2   BANK3   BANK4   BANK5   BANK6   BANK7
  4449 ;;      Params:         0       0       0       0       0       0       0       0       0
  4450 ;;      Locals:        18       0       0       0       0       0       0       0       0
  4451 ;;      Temps:          7       0       0       0       0       0       0       0       0
  4452 ;;      Totals:        25       0       0       0       0       0       0       0       0
  4453 ;;Total ram usage:       25 bytes
  4454 ;; Hardware stack levels used: 1
  4455 ;; Hardware stack levels required when called: 5
  4456 ;; This function calls:
  4457 ;;		_oled_clear
  4458 ;;		_oled_putChar
  4459 ;;		_oled_putString
  4460 ;; This function is called by:
  4461 ;;		_main
  4462 ;; This function uses a non-reentrant model
  4463 ;;
  4464                           
  4465                           	psect	text21
  4466  006C7A                     __ptext21:
  4467                           	callstack 0
  4468  006C7A                     _Opening:
  4469                           	callstack 25
  4470  006C7A                     
  4471                           ;main.c: 51:     uint8_t size=16;
  4472  006C7A  0E10               	movlw	16
  4473  006C7C  6E29               	movwf	Opening@size^0,c
  4474  006C7E                     
  4475                           ;main.c: 52:     char aux[16] = "   UNIBAGUE    ";
  4476  006C7E  EE20  F0E3         	lfsr	2,Opening@F5481
  4477  006C82  EE10  F019         	lfsr	1,Opening@aux
  4478  006C86  0E0F               	movlw	15
  4479  006C88                     u1631:
  4480  006C88  CFDB FFE3          	movff	plusw2,plusw1
  4481  006C8C  06E8               	decf	wreg,f,c
  4482  006C8E  E2FC               	bc	u1631
  4483  006C90                     
  4484                           ;main.c: 55:     oled_clear();
  4485  006C90  EC42  F034         	call	_oled_clear	;wreg free
  4486  006C94                     
  4487                           ;main.c: 56:     oled_putString(" LoRA MOTE SI2C ",0,0);
  4488  006C94  0EEA               	movlw	low STR_2
  4489  006C96  6E0D               	movwf	oled_putString@string^0,c
  4490  006C98  0E7E               	movlw	high STR_2
  4491  006C9A  6E0E               	movwf	(oled_putString@string+1)^0,c
  4492  006C9C  0E00               	movlw	0
  4493  006C9E  6E0F               	movwf	oled_putString@station_dot^0,c
  4494  006CA0  0E00               	movlw	0
  4495  006CA2  6E10               	movwf	oled_putString@start_page^0,c
  4496  006CA4  ECFD  F035         	call	_oled_putString	;wreg free
  4497  006CA8                     
  4498                           ;main.c: 58:     for (i = 0; i < size-1; i++){
  4499  006CA8  0E00               	movlw	0
  4500  006CAA  6E2A               	movwf	Opening@i^0,c
  4501  006CAC  EF72  F036         	goto	l2854
  4502  006CB0                     l2848:
  4503                           
  4504                           ;main.c: 59:         oled_putChar((aux[i]),i,1);
  4505  006CB0  C02A  F003         	movff	Opening@i,oled_putChar@station_dot
  4506  006CB4  0E01               	movlw	1
  4507  006CB6  6E04               	movwf	oled_putChar@start_page^0,c
  4508  006CB8  0E19               	movlw	low Opening@aux
  4509  006CBA  242A               	addwf	Opening@i^0,w,c
  4510  006CBC  6ED9               	movwf	fsr2l,c
  4511  006CBE  6ADA               	clrf	fsr2h,c
  4512  006CC0  0E00               	movlw	high Opening@aux
  4513  006CC2  22DA               	addwfc	fsr2h,f,c
  4514  006CC4  50DF               	movf	indf2,w,c
  4515  006CC6  ECBF  F035         	call	_oled_putChar
  4516  006CCA                     
  4517                           ;main.c: 60:         _delay((unsigned long)((100)*(48000000/4000.0)));
  4518  006CCA  0E07               	movlw	7
  4519  006CCC  6E13               	movwf	(??_Opening+1)^0,c
  4520  006CCE  0E17               	movlw	23
  4521  006CD0  6E12               	movwf	??_Opening^0,c
  4522  006CD2  0E6A               	movlw	106
  4523  006CD4                     u4497:
  4524  006CD4  2EE8               	decfsz	wreg,f,c
  4525  006CD6  D7FE               	bra	u4497
  4526  006CD8  2E12               	decfsz	??_Opening^0,f,c
  4527  006CDA  D7FC               	bra	u4497
  4528  006CDC  2E13               	decfsz	(??_Opening+1)^0,f,c
  4529  006CDE  D7FA               	bra	u4497
  4530  006CE0  D000               	nop2	
  4531  006CE2                     
  4532                           ;main.c: 61:     }
  4533  006CE2  2A2A               	incf	Opening@i^0,f,c
  4534  006CE4                     l2854:
  4535  006CE4  0EFF               	movlw	255
  4536  006CE6  6E12               	movwf	??_Opening^0,c
  4537  006CE8  0EFF               	movlw	255
  4538  006CEA  6E13               	movwf	(??_Opening+1)^0,c
  4539  006CEC  5029               	movf	Opening@size^0,w,c
  4540  006CEE  6E14               	movwf	(??_Opening+2)^0,c
  4541  006CF0  6A15               	clrf	(??_Opening+3)^0,c
  4542  006CF2  5012               	movf	??_Opening^0,w,c
  4543  006CF4  2614               	addwf	(??_Opening+2)^0,f,c
  4544  006CF6  5013               	movf	(??_Opening+1)^0,w,c
  4545  006CF8  2215               	addwfc	(??_Opening+3)^0,f,c
  4546  006CFA  502A               	movf	Opening@i^0,w,c
  4547  006CFC  6E16               	movwf	(??_Opening+4)^0,c
  4548  006CFE  6A17               	clrf	(??_Opening+5)^0,c
  4549  006D00  5014               	movf	(??_Opening+2)^0,w,c
  4550  006D02  5C16               	subwf	(??_Opening+4)^0,w,c
  4551  006D04  5017               	movf	(??_Opening+5)^0,w,c
  4552  006D06  0A80               	xorlw	128
  4553  006D08  6E18               	movwf	(??_Opening+6)^0,c
  4554  006D0A  5015               	movf	(??_Opening+3)^0,w,c
  4555  006D0C  0A80               	xorlw	128
  4556  006D0E  5818               	subwfb	(??_Opening+6)^0,w,c
  4557  006D10  A0D8               	btfss	status,0,c
  4558  006D12  EF8D  F036         	goto	u1641
  4559  006D16  EF8F  F036         	goto	u1640
  4560  006D1A                     u1641:
  4561  006D1A  EF58  F036         	goto	l2848
  4562  006D1E                     u1640:
  4563  006D1E                     
  4564                           ;main.c: 63:     LATAbits.LATA7 = 1;
  4565  006D1E  8E89               	bsf	137,7,c	;volatile
  4566                           
  4567                           ;main.c: 64:     LATAbits.LATA6 = 1;
  4568  006D20  8C89               	bsf	137,6,c	;volatile
  4569  006D22                     
  4570                           ;main.c: 65:     oled_putString(">>Welcome!",0,3);
  4571  006D22  0EAD               	movlw	low STR_3
  4572  006D24  6E0D               	movwf	oled_putString@string^0,c
  4573  006D26  0E7F               	movlw	high STR_3
  4574  006D28  6E0E               	movwf	(oled_putString@string+1)^0,c
  4575  006D2A  0E00               	movlw	0
  4576  006D2C  6E0F               	movwf	oled_putString@station_dot^0,c
  4577  006D2E  0E03               	movlw	3
  4578  006D30  6E10               	movwf	oled_putString@start_page^0,c
  4579  006D32  ECFD  F035         	call	_oled_putString	;wreg free
  4580  006D36                     
  4581                           ;main.c: 66:     _delay((unsigned long)((1000)*(48000000/4000.0)));
  4582  006D36  0E3D               	movlw	61
  4583  006D38  6E13               	movwf	(??_Opening+1)^0,c
  4584  006D3A  0EE1               	movlw	225
  4585  006D3C  6E12               	movwf	??_Opening^0,c
  4586  006D3E  0E40               	movlw	64
  4587  006D40                     u4507:
  4588  006D40  2EE8               	decfsz	wreg,f,c
  4589  006D42  D7FE               	bra	u4507
  4590  006D44  2E12               	decfsz	??_Opening^0,f,c
  4591  006D46  D7FC               	bra	u4507
  4592  006D48  2E13               	decfsz	(??_Opening+1)^0,f,c
  4593  006D4A  D7FA               	bra	u4507
  4594  006D4C                     
  4595                           ;main.c: 67:     LATAbits.LATA7 = 0;
  4596  006D4C  9E89               	bcf	137,7,c	;volatile
  4597  006D4E                     
  4598                           ;main.c: 68:     LATAbits.LATA6 = 0;
  4599  006D4E  9C89               	bcf	137,6,c	;volatile
  4600  006D50  0012               	return		;funcret
  4601  006D52                     __end_of_Opening:
  4602                           	callstack 0
  4603                           
  4604 ;; *************** function _Init_mod_LoRa *****************
  4605 ;; Defined at:
  4606 ;;		line 12 in file "LoRa_RN2903A.c"
  4607 ;; Parameters:    Size  Location     Type
  4608 ;;		None
  4609 ;; Auto vars:     Size  Location     Type
  4610 ;;		None
  4611 ;; Return value:  Size  Location     Type
  4612 ;;                  1    wreg      void 
  4613 ;; Registers used:
  4614 ;;		wreg, fsr0l, fsr0h, fsr2l, fsr2h, status,2, status,0, tblptrl, tblptrh, tblptru, prodl, prodh, cstack
  4615 ;; Tracked objects:
  4616 ;;		On entry : 0/0
  4617 ;;		On exit  : 0/0
  4618 ;;		Unchanged: 0/0
  4619 ;; Data sizes:     COMRAM   BANK0   BANK1   BANK2   BANK3   BANK4   BANK5   BANK6   BANK7
  4620 ;;      Params:         0       0       0       0       0       0       0       0       0
  4621 ;;      Locals:         0       0       0       0       0       0       0       0       0
  4622 ;;      Temps:          2       0       0       0       0       0       0       0       0
  4623 ;;      Totals:         2       0       0       0       0       0       0       0       0
  4624 ;;Total ram usage:        2 bytes
  4625 ;; Hardware stack levels used: 1
  4626 ;; Hardware stack levels required when called: 5
  4627 ;; This function calls:
  4628 ;;		_Read_LoRA_cmd
  4629 ;;		_oled_clear
  4630 ;;		_oled_putString
  4631 ;;		_sendCommand
  4632 ;; This function is called by:
  4633 ;;		_main
  4634 ;; This function uses a non-reentrant model
  4635 ;;
  4636                           
  4637                           	psect	text22
  4638  00755C                     __ptext22:
  4639                           	callstack 0
  4640  00755C                     _Init_mod_LoRa:
  4641                           	callstack 25
  4642  00755C                     
  4643                           ;LoRa_RN2903A.c: 15:     oled_clear();
  4644  00755C  EC42  F034         	call	_oled_clear	;wreg free
  4645  007560                     
  4646                           ;LoRa_RN2903A.c: 17:     oled_putString("SYS Version:",0,1);
  4647  007560  0E70               	movlw	low STR_7
  4648  007562  6E0D               	movwf	oled_putString@string^0,c
  4649  007564  0E7F               	movlw	high STR_7
  4650  007566  6E0E               	movwf	(oled_putString@string+1)^0,c
  4651  007568  0E00               	movlw	0
  4652  00756A  6E0F               	movwf	oled_putString@station_dot^0,c
  4653  00756C  0E01               	movlw	1
  4654  00756E  6E10               	movwf	oled_putString@start_page^0,c
  4655  007570  ECFD  F035         	call	_oled_putString	;wreg free
  4656  007574                     
  4657                           ;LoRa_RN2903A.c: 18:     oled_putString(">>",0,2);
  4658  007574  0EFB               	movlw	low STR_8
  4659  007576  6E0D               	movwf	oled_putString@string^0,c
  4660  007578  0E7F               	movlw	high STR_8
  4661  00757A  6E0E               	movwf	(oled_putString@string+1)^0,c
  4662  00757C  0E00               	movlw	0
  4663  00757E  6E0F               	movwf	oled_putString@station_dot^0,c
  4664  007580  0E02               	movlw	2
  4665  007582  6E10               	movwf	oled_putString@start_page^0,c
  4666  007584  ECFD  F035         	call	_oled_putString	;wreg free
  4667  007588                     
  4668                           ;LoRa_RN2903A.c: 19:     sendCommand("sys get ver\r\n");
  4669  007588  0E38               	movlw	low STR_9
  4670  00758A  6E02               	movwf	sendCommand@String^0,c
  4671  00758C  0E7F               	movlw	high STR_9
  4672  00758E  6E03               	movwf	(sendCommand@String+1)^0,c
  4673  007590  EC1D  F035         	call	_sendCommand	;wreg free
  4674  007594                     
  4675                           ;LoRa_RN2903A.c: 20:     Read_LoRA_cmd();
  4676  007594  ECA9  F036         	call	_Read_LoRA_cmd	;wreg free
  4677  007598                     
  4678                           ;LoRa_RN2903A.c: 21:     oled_putString(cmd_message,0,3);
  4679  007598  0E85               	movlw	low _cmd_message
  4680  00759A  6E0D               	movwf	oled_putString@string^0,c
  4681  00759C  0E00               	movlw	high _cmd_message
  4682  00759E  6E0E               	movwf	(oled_putString@string+1)^0,c
  4683  0075A0  0E00               	movlw	0
  4684  0075A2  6E0F               	movwf	oled_putString@station_dot^0,c
  4685  0075A4  0E03               	movlw	3
  4686  0075A6  6E10               	movwf	oled_putString@start_page^0,c
  4687  0075A8  ECFD  F035         	call	_oled_putString	;wreg free
  4688  0075AC                     
  4689                           ;LoRa_RN2903A.c: 22:     _delay((unsigned long)((1000)*(48000000/4000.0)));
  4690  0075AC  0E3D               	movlw	61
  4691  0075AE  6E13               	movwf	(??_Init_mod_LoRa+1)^0,c
  4692  0075B0  0EE1               	movlw	225
  4693  0075B2  6E12               	movwf	??_Init_mod_LoRa^0,c
  4694  0075B4  0E40               	movlw	64
  4695  0075B6                     u4517:
  4696  0075B6  2EE8               	decfsz	wreg,f,c
  4697  0075B8  D7FE               	bra	u4517
  4698  0075BA  2E12               	decfsz	??_Init_mod_LoRa^0,f,c
  4699  0075BC  D7FC               	bra	u4517
  4700  0075BE  2E13               	decfsz	(??_Init_mod_LoRa+1)^0,f,c
  4701  0075C0  D7FA               	bra	u4517
  4702  0075C2                     
  4703                           ;LoRa_RN2903A.c: 25:     oled_clear();
  4704  0075C2  EC42  F034         	call	_oled_clear	;wreg free
  4705  0075C6                     
  4706                           ;LoRa_RN2903A.c: 26:     oled_putString("Config module RN",0,0);
  4707  0075C6  0EB7               	movlw	low STR_10
  4708  0075C8  6E0D               	movwf	oled_putString@string^0,c
  4709  0075CA  0E7E               	movlw	high STR_10
  4710  0075CC  6E0E               	movwf	(oled_putString@string+1)^0,c
  4711  0075CE  0E00               	movlw	0
  4712  0075D0  6E0F               	movwf	oled_putString@station_dot^0,c
  4713  0075D2  0E00               	movlw	0
  4714  0075D4  6E10               	movwf	oled_putString@start_page^0,c
  4715  0075D6  ECFD  F035         	call	_oled_putString	;wreg free
  4716  0075DA                     
  4717                           ;LoRa_RN2903A.c: 27:     oled_putString(" POWER: 3 of 14",0,2);
  4718  0075DA  0EFB               	movlw	low STR_11
  4719  0075DC  6E0D               	movwf	oled_putString@string^0,c
  4720  0075DE  0E7E               	movlw	high STR_11
  4721  0075E0  6E0E               	movwf	(oled_putString@string+1)^0,c
  4722  0075E2  0E00               	movlw	0
  4723  0075E4  6E0F               	movwf	oled_putString@station_dot^0,c
  4724  0075E6  0E02               	movlw	2
  4725  0075E8  6E10               	movwf	oled_putString@start_page^0,c
  4726  0075EA  ECFD  F035         	call	_oled_putString	;wreg free
  4727  0075EE                     
  4728                           ;LoRa_RN2903A.c: 28:     sendCommand("radio set pwr 3\r\n");
  4729  0075EE  0E83               	movlw	low STR_12
  4730  0075F0  6E02               	movwf	sendCommand@String^0,c
  4731  0075F2  0E7E               	movlw	high STR_12
  4732  0075F4  6E03               	movwf	(sendCommand@String+1)^0,c
  4733  0075F6  EC1D  F035         	call	_sendCommand	;wreg free
  4734  0075FA                     
  4735                           ;LoRa_RN2903A.c: 29:     Read_LoRA_cmd();
  4736  0075FA  ECA9  F036         	call	_Read_LoRA_cmd	;wreg free
  4737  0075FE                     
  4738                           ;LoRa_RN2903A.c: 30:     oled_putString(cmd_message,0,3);
  4739  0075FE  0E85               	movlw	low _cmd_message
  4740  007600  6E0D               	movwf	oled_putString@string^0,c
  4741  007602  0E00               	movlw	high _cmd_message
  4742  007604  6E0E               	movwf	(oled_putString@string+1)^0,c
  4743  007606  0E00               	movlw	0
  4744  007608  6E0F               	movwf	oled_putString@station_dot^0,c
  4745  00760A  0E03               	movlw	3
  4746  00760C  6E10               	movwf	oled_putString@start_page^0,c
  4747  00760E  ECFD  F035         	call	_oled_putString	;wreg free
  4748                           
  4749                           ;LoRa_RN2903A.c: 31:     _delay((unsigned long)((1000)*(48000000/4000.0)));
  4750  007612  0E3D               	movlw	61
  4751  007614  6E13               	movwf	(??_Init_mod_LoRa+1)^0,c
  4752  007616  0EE1               	movlw	225
  4753  007618  6E12               	movwf	??_Init_mod_LoRa^0,c
  4754  00761A  0E40               	movlw	64
  4755  00761C                     u4527:
  4756  00761C  2EE8               	decfsz	wreg,f,c
  4757  00761E  D7FE               	bra	u4527
  4758  007620  2E12               	decfsz	??_Init_mod_LoRa^0,f,c
  4759  007622  D7FC               	bra	u4527
  4760  007624  2E13               	decfsz	(??_Init_mod_LoRa+1)^0,f,c
  4761  007626  D7FA               	bra	u4527
  4762  007628                     
  4763                           ;LoRa_RN2903A.c: 34:     oled_clear();
  4764  007628  EC42  F034         	call	_oled_clear	;wreg free
  4765  00762C                     
  4766                           ;LoRa_RN2903A.c: 35:     oled_putString("Config module RN",0,0);
  4767  00762C  0EB7               	movlw	low STR_10
  4768  00762E  6E0D               	movwf	oled_putString@string^0,c
  4769  007630  0E7E               	movlw	high STR_10
  4770  007632  6E0E               	movwf	(oled_putString@string+1)^0,c
  4771  007634  0E00               	movlw	0
  4772  007636  6E0F               	movwf	oled_putString@station_dot^0,c
  4773  007638  0E00               	movlw	0
  4774  00763A  6E10               	movwf	oled_putString@start_page^0,c
  4775  00763C  ECFD  F035         	call	_oled_putString	;wreg free
  4776  007640                     
  4777                           ;LoRa_RN2903A.c: 36:     oled_putString("Band BW",0,1);
  4778  007640  0EF3               	movlw	low STR_14
  4779  007642  6E0D               	movwf	oled_putString@string^0,c
  4780  007644  0E7F               	movlw	high STR_14
  4781  007646  6E0E               	movwf	(oled_putString@string+1)^0,c
  4782  007648  0E00               	movlw	0
  4783  00764A  6E0F               	movwf	oled_putString@station_dot^0,c
  4784  00764C  0E01               	movlw	1
  4785  00764E  6E10               	movwf	oled_putString@start_page^0,c
  4786  007650  ECFD  F035         	call	_oled_putString	;wreg free
  4787  007654                     
  4788                           ;LoRa_RN2903A.c: 37:     oled_putString(" WIDEBAND: 250",0,2);
  4789  007654  0E0B               	movlw	low STR_15
  4790  007656  6E0D               	movwf	oled_putString@string^0,c
  4791  007658  0E7F               	movlw	high STR_15
  4792  00765A  6E0E               	movwf	(oled_putString@string+1)^0,c
  4793  00765C  0E00               	movlw	0
  4794  00765E  6E0F               	movwf	oled_putString@station_dot^0,c
  4795  007660  0E02               	movlw	2
  4796  007662  6E10               	movwf	oled_putString@start_page^0,c
  4797  007664  ECFD  F035         	call	_oled_putString	;wreg free
  4798  007668                     
  4799                           ;LoRa_RN2903A.c: 38:     sendCommand("radio set bw 250\r\n");
  4800  007668  0E4B               	movlw	low STR_16
  4801  00766A  6E02               	movwf	sendCommand@String^0,c
  4802  00766C  0E7E               	movlw	high STR_16
  4803  00766E  6E03               	movwf	(sendCommand@String+1)^0,c
  4804  007670  EC1D  F035         	call	_sendCommand	;wreg free
  4805  007674                     
  4806                           ;LoRa_RN2903A.c: 39:     Read_LoRA_cmd();
  4807  007674  ECA9  F036         	call	_Read_LoRA_cmd	;wreg free
  4808  007678                     
  4809                           ;LoRa_RN2903A.c: 40:     oled_putString(cmd_message,0,3);
  4810  007678  0E85               	movlw	low _cmd_message
  4811  00767A  6E0D               	movwf	oled_putString@string^0,c
  4812  00767C  0E00               	movlw	high _cmd_message
  4813  00767E  6E0E               	movwf	(oled_putString@string+1)^0,c
  4814  007680  0E00               	movlw	0
  4815  007682  6E0F               	movwf	oled_putString@station_dot^0,c
  4816  007684  0E03               	movlw	3
  4817  007686  6E10               	movwf	oled_putString@start_page^0,c
  4818  007688  ECFD  F035         	call	_oled_putString	;wreg free
  4819  00768C                     
  4820                           ;LoRa_RN2903A.c: 41:     _delay((unsigned long)((1000)*(48000000/4000.0)));
  4821  00768C  0E3D               	movlw	61
  4822  00768E  6E13               	movwf	(??_Init_mod_LoRa+1)^0,c
  4823  007690  0EE1               	movlw	225
  4824  007692  6E12               	movwf	??_Init_mod_LoRa^0,c
  4825  007694  0E40               	movlw	64
  4826  007696                     u4537:
  4827  007696  2EE8               	decfsz	wreg,f,c
  4828  007698  D7FE               	bra	u4537
  4829  00769A  2E12               	decfsz	??_Init_mod_LoRa^0,f,c
  4830  00769C  D7FC               	bra	u4537
  4831  00769E  2E13               	decfsz	(??_Init_mod_LoRa+1)^0,f,c
  4832  0076A0  D7FA               	bra	u4537
  4833  0076A2                     
  4834                           ;LoRa_RN2903A.c: 44:     oled_clear();
  4835  0076A2  EC42  F034         	call	_oled_clear	;wreg free
  4836  0076A6                     
  4837                           ;LoRa_RN2903A.c: 45:     oled_putString("Config module RN",0,0);
  4838  0076A6  0EB7               	movlw	low STR_10
  4839  0076A8  6E0D               	movwf	oled_putString@string^0,c
  4840  0076AA  0E7E               	movlw	high STR_10
  4841  0076AC  6E0E               	movwf	(oled_putString@string+1)^0,c
  4842  0076AE  0E00               	movlw	0
  4843  0076B0  6E0F               	movwf	oled_putString@station_dot^0,c
  4844  0076B2  0E00               	movlw	0
  4845  0076B4  6E10               	movwf	oled_putString@start_page^0,c
  4846  0076B6  ECFD  F035         	call	_oled_putString	;wreg free
  4847  0076BA                     
  4848                           ;LoRa_RN2903A.c: 46:     oled_putString("Frequency FQ",0,1);
  4849  0076BA  0E7D               	movlw	low STR_18
  4850  0076BC  6E0D               	movwf	oled_putString@string^0,c
  4851  0076BE  0E7F               	movlw	high STR_18
  4852  0076C0  6E0E               	movwf	(oled_putString@string+1)^0,c
  4853  0076C2  0E00               	movlw	0
  4854  0076C4  6E0F               	movwf	oled_putString@station_dot^0,c
  4855  0076C6  0E01               	movlw	1
  4856  0076C8  6E10               	movwf	oled_putString@start_page^0,c
  4857  0076CA  ECFD  F035         	call	_oled_putString	;wreg free
  4858  0076CE                     
  4859                           ;LoRa_RN2903A.c: 47:     oled_putString(" FREQ: 9.233 MHZ",0,2);
  4860  0076CE  0EC8               	movlw	low STR_19
  4861  0076D0  6E0D               	movwf	oled_putString@string^0,c
  4862  0076D2  0E7E               	movlw	high STR_19
  4863  0076D4  6E0E               	movwf	(oled_putString@string+1)^0,c
  4864  0076D6  0E00               	movlw	0
  4865  0076D8  6E0F               	movwf	oled_putString@station_dot^0,c
  4866  0076DA  0E02               	movlw	2
  4867  0076DC  6E10               	movwf	oled_putString@start_page^0,c
  4868  0076DE  ECFD  F035         	call	_oled_putString	;wreg free
  4869  0076E2                     
  4870                           ;LoRa_RN2903A.c: 48:     sendCommand("radio set freq 923300000\r\n");
  4871  0076E2  0E77               	movlw	low STR_20
  4872  0076E4  6E02               	movwf	sendCommand@String^0,c
  4873  0076E6  0E7D               	movlw	high STR_20
  4874  0076E8  6E03               	movwf	(sendCommand@String+1)^0,c
  4875  0076EA  EC1D  F035         	call	_sendCommand	;wreg free
  4876  0076EE                     
  4877                           ;LoRa_RN2903A.c: 49:     Read_LoRA_cmd();
  4878  0076EE  ECA9  F036         	call	_Read_LoRA_cmd	;wreg free
  4879                           
  4880                           ;LoRa_RN2903A.c: 50:     oled_putString(cmd_message,0,3);
  4881  0076F2  0E85               	movlw	low _cmd_message
  4882  0076F4  6E0D               	movwf	oled_putString@string^0,c
  4883  0076F6  0E00               	movlw	high _cmd_message
  4884  0076F8  6E0E               	movwf	(oled_putString@string+1)^0,c
  4885  0076FA  0E00               	movlw	0
  4886  0076FC  6E0F               	movwf	oled_putString@station_dot^0,c
  4887  0076FE  0E03               	movlw	3
  4888  007700  6E10               	movwf	oled_putString@start_page^0,c
  4889  007702  ECFD  F035         	call	_oled_putString	;wreg free
  4890  007706                     
  4891                           ;LoRa_RN2903A.c: 51:     _delay((unsigned long)((1000)*(48000000/4000.0)));
  4892  007706  0E3D               	movlw	61
  4893  007708  6E13               	movwf	(??_Init_mod_LoRa+1)^0,c
  4894  00770A  0EE1               	movlw	225
  4895  00770C  6E12               	movwf	??_Init_mod_LoRa^0,c
  4896  00770E  0E40               	movlw	64
  4897  007710                     u4547:
  4898  007710  2EE8               	decfsz	wreg,f,c
  4899  007712  D7FE               	bra	u4547
  4900  007714  2E12               	decfsz	??_Init_mod_LoRa^0,f,c
  4901  007716  D7FC               	bra	u4547
  4902  007718  2E13               	decfsz	(??_Init_mod_LoRa+1)^0,f,c
  4903  00771A  D7FA               	bra	u4547
  4904  00771C                     
  4905                           ;LoRa_RN2903A.c: 54:     oled_clear();
  4906  00771C  EC42  F034         	call	_oled_clear	;wreg free
  4907  007720                     
  4908                           ;LoRa_RN2903A.c: 55:     oled_putString("Config module RN",0,0);
  4909  007720  0EB7               	movlw	low STR_10
  4910  007722  6E0D               	movwf	oled_putString@string^0,c
  4911  007724  0E7E               	movlw	high STR_10
  4912  007726  6E0E               	movwf	(oled_putString@string+1)^0,c
  4913  007728  0E00               	movlw	0
  4914  00772A  6E0F               	movwf	oled_putString@station_dot^0,c
  4915  00772C  0E00               	movlw	0
  4916  00772E  6E10               	movwf	oled_putString@start_page^0,c
  4917  007730  ECFD  F035         	call	_oled_putString	;wreg free
  4918  007734                     
  4919                           ;LoRa_RN2903A.c: 56:     oled_putString("CODE ERROR",0,1);
  4920  007734  0EA2               	movlw	low STR_22
  4921  007736  6E0D               	movwf	oled_putString@string^0,c
  4922  007738  0E7F               	movlw	high STR_22
  4923  00773A  6E0E               	movwf	(oled_putString@string+1)^0,c
  4924  00773C  0E00               	movlw	0
  4925  00773E  6E0F               	movwf	oled_putString@station_dot^0,c
  4926  007740  0E01               	movlw	1
  4927  007742  6E10               	movwf	oled_putString@start_page^0,c
  4928  007744  ECFD  F035         	call	_oled_putString	;wreg free
  4929  007748                     
  4930                           ;LoRa_RN2903A.c: 57:     oled_putString(" Enables the CRC",0,2);
  4931  007748  0EA6               	movlw	low STR_23
  4932  00774A  6E0D               	movwf	oled_putString@string^0,c
  4933  00774C  0E7E               	movlw	high STR_23
  4934  00774E  6E0E               	movwf	(oled_putString@string+1)^0,c
  4935  007750  0E00               	movlw	0
  4936  007752  6E0F               	movwf	oled_putString@station_dot^0,c
  4937  007754  0E02               	movlw	2
  4938  007756  6E10               	movwf	oled_putString@start_page^0,c
  4939  007758  ECFD  F035         	call	_oled_putString	;wreg free
  4940  00775C                     
  4941                           ;LoRa_RN2903A.c: 58:     sendCommand("radio set crc on\r\n");
  4942  00775C  0E5E               	movlw	low STR_24
  4943  00775E  6E02               	movwf	sendCommand@String^0,c
  4944  007760  0E7E               	movlw	high STR_24
  4945  007762  6E03               	movwf	(sendCommand@String+1)^0,c
  4946  007764  EC1D  F035         	call	_sendCommand	;wreg free
  4947  007768                     
  4948                           ;LoRa_RN2903A.c: 59:     Read_LoRA_cmd();
  4949  007768  ECA9  F036         	call	_Read_LoRA_cmd	;wreg free
  4950  00776C                     
  4951                           ;LoRa_RN2903A.c: 60:     oled_putString(cmd_message,0,3);
  4952  00776C  0E85               	movlw	low _cmd_message
  4953  00776E  6E0D               	movwf	oled_putString@string^0,c
  4954  007770  0E00               	movlw	high _cmd_message
  4955  007772  6E0E               	movwf	(oled_putString@string+1)^0,c
  4956  007774  0E00               	movlw	0
  4957  007776  6E0F               	movwf	oled_putString@station_dot^0,c
  4958  007778  0E03               	movlw	3
  4959  00777A  6E10               	movwf	oled_putString@start_page^0,c
  4960  00777C  ECFD  F035         	call	_oled_putString	;wreg free
  4961  007780                     
  4962                           ;LoRa_RN2903A.c: 61:     _delay((unsigned long)((1000)*(48000000/4000.0)));
  4963  007780  0E3D               	movlw	61
  4964  007782  6E13               	movwf	(??_Init_mod_LoRa+1)^0,c
  4965  007784  0EE1               	movlw	225
  4966  007786  6E12               	movwf	??_Init_mod_LoRa^0,c
  4967  007788  0E40               	movlw	64
  4968  00778A                     u4557:
  4969  00778A  2EE8               	decfsz	wreg,f,c
  4970  00778C  D7FE               	bra	u4557
  4971  00778E  2E12               	decfsz	??_Init_mod_LoRa^0,f,c
  4972  007790  D7FC               	bra	u4557
  4973  007792  2E13               	decfsz	(??_Init_mod_LoRa+1)^0,f,c
  4974  007794  D7FA               	bra	u4557
  4975  007796                     
  4976                           ;LoRa_RN2903A.c: 64:     oled_clear();
  4977  007796  EC42  F034         	call	_oled_clear	;wreg free
  4978  00779A                     
  4979                           ;LoRa_RN2903A.c: 65:     oled_putString("Config module RN",0,0);
  4980  00779A  0EB7               	movlw	low STR_10
  4981  00779C  6E0D               	movwf	oled_putString@string^0,c
  4982  00779E  0E7E               	movlw	high STR_10
  4983  0077A0  6E0E               	movwf	(oled_putString@string+1)^0,c
  4984  0077A2  0E00               	movlw	0
  4985  0077A4  6E0F               	movwf	oled_putString@station_dot^0,c
  4986  0077A6  0E00               	movlw	0
  4987  0077A8  6E10               	movwf	oled_putString@start_page^0,c
  4988  0077AA  ECFD  F035         	call	_oled_putString	;wreg free
  4989  0077AE                     
  4990                           ;LoRa_RN2903A.c: 66:     oled_putString("LoRA MODE",0,1);
  4991  0077AE  0EC2               	movlw	low STR_26
  4992  0077B0  6E0D               	movwf	oled_putString@string^0,c
  4993  0077B2  0E7F               	movlw	high STR_26
  4994  0077B4  6E0E               	movwf	(oled_putString@string+1)^0,c
  4995  0077B6  0E00               	movlw	0
  4996  0077B8  6E0F               	movwf	oled_putString@station_dot^0,c
  4997  0077BA  0E01               	movlw	1
  4998  0077BC  6E10               	movwf	oled_putString@start_page^0,c
  4999  0077BE  ECFD  F035         	call	_oled_putString	;wreg free
  5000  0077C2                     
  5001                           ;LoRa_RN2903A.c: 67:     oled_putString(" LoRA modulation",0,2);
  5002  0077C2  0ED9               	movlw	low STR_27
  5003  0077C4  6E0D               	movwf	oled_putString@string^0,c
  5004  0077C6  0E7E               	movlw	high STR_27
  5005  0077C8  6E0E               	movwf	(oled_putString@string+1)^0,c
  5006  0077CA  0E00               	movlw	0
  5007  0077CC  6E0F               	movwf	oled_putString@station_dot^0,c
  5008  0077CE  0E02               	movlw	2
  5009  0077D0  6E10               	movwf	oled_putString@start_page^0,c
  5010  0077D2  ECFD  F035         	call	_oled_putString	;wreg free
  5011  0077D6                     
  5012                           ;LoRa_RN2903A.c: 68:     sendCommand("radio set mod lora\r\n");
  5013  0077D6  0EFA               	movlw	low STR_28
  5014  0077D8  6E02               	movwf	sendCommand@String^0,c
  5015  0077DA  0E7D               	movlw	high STR_28
  5016  0077DC  6E03               	movwf	(sendCommand@String+1)^0,c
  5017  0077DE  EC1D  F035         	call	_sendCommand	;wreg free
  5018                           
  5019                           ;LoRa_RN2903A.c: 69:     Read_LoRA_cmd();
  5020  0077E2  ECA9  F036         	call	_Read_LoRA_cmd	;wreg free
  5021  0077E6                     
  5022                           ;LoRa_RN2903A.c: 70:     oled_putString(cmd_message,0,3);
  5023  0077E6  0E85               	movlw	low _cmd_message
  5024  0077E8  6E0D               	movwf	oled_putString@string^0,c
  5025  0077EA  0E00               	movlw	high _cmd_message
  5026  0077EC  6E0E               	movwf	(oled_putString@string+1)^0,c
  5027  0077EE  0E00               	movlw	0
  5028  0077F0  6E0F               	movwf	oled_putString@station_dot^0,c
  5029  0077F2  0E03               	movlw	3
  5030  0077F4  6E10               	movwf	oled_putString@start_page^0,c
  5031  0077F6  ECFD  F035         	call	_oled_putString	;wreg free
  5032  0077FA                     
  5033                           ;LoRa_RN2903A.c: 71:     _delay((unsigned long)((1000)*(48000000/4000.0)));
  5034  0077FA  0E3D               	movlw	61
  5035  0077FC  6E13               	movwf	(??_Init_mod_LoRa+1)^0,c
  5036  0077FE  0EE1               	movlw	225
  5037  007800  6E12               	movwf	??_Init_mod_LoRa^0,c
  5038  007802  0E40               	movlw	64
  5039  007804                     u4567:
  5040  007804  2EE8               	decfsz	wreg,f,c
  5041  007806  D7FE               	bra	u4567
  5042  007808  2E12               	decfsz	??_Init_mod_LoRa^0,f,c
  5043  00780A  D7FC               	bra	u4567
  5044  00780C  2E13               	decfsz	(??_Init_mod_LoRa+1)^0,f,c
  5045  00780E  D7FA               	bra	u4567
  5046  007810                     
  5047                           ;LoRa_RN2903A.c: 74:     oled_clear();
  5048  007810  EC42  F034         	call	_oled_clear	;wreg free
  5049  007814                     
  5050                           ;LoRa_RN2903A.c: 75:     oled_putString("Config module RN",0,0);
  5051  007814  0EB7               	movlw	low STR_10
  5052  007816  6E0D               	movwf	oled_putString@string^0,c
  5053  007818  0E7E               	movlw	high STR_10
  5054  00781A  6E0E               	movwf	(oled_putString@string+1)^0,c
  5055  00781C  0E00               	movlw	0
  5056  00781E  6E0F               	movwf	oled_putString@station_dot^0,c
  5057  007820  0E00               	movlw	0
  5058  007822  6E10               	movwf	oled_putString@start_page^0,c
  5059  007824  ECFD  F035         	call	_oled_putString	;wreg free
  5060  007828                     
  5061                           ;LoRa_RN2903A.c: 76:     oled_putString("LoRA Inversion",0,1);
  5062  007828  0E29               	movlw	low STR_30
  5063  00782A  6E0D               	movwf	oled_putString@string^0,c
  5064  00782C  0E7F               	movlw	high STR_30
  5065  00782E  6E0E               	movwf	(oled_putString@string+1)^0,c
  5066  007830  0E00               	movlw	0
  5067  007832  6E0F               	movwf	oled_putString@station_dot^0,c
  5068  007834  0E01               	movlw	1
  5069  007836  6E10               	movwf	oled_putString@start_page^0,c
  5070  007838  ECFD  F035         	call	_oled_putString	;wreg free
  5071  00783C                     
  5072                           ;LoRa_RN2903A.c: 77:     oled_putString(" Invert IQ off",0,2);
  5073  00783C  0E1A               	movlw	low STR_31
  5074  00783E  6E0D               	movwf	oled_putString@string^0,c
  5075  007840  0E7F               	movlw	high STR_31
  5076  007842  6E0E               	movwf	(oled_putString@string+1)^0,c
  5077  007844  0E00               	movlw	0
  5078  007846  6E0F               	movwf	oled_putString@station_dot^0,c
  5079  007848  0E02               	movlw	2
  5080  00784A  6E10               	movwf	oled_putString@start_page^0,c
  5081  00784C  ECFD  F035         	call	_oled_putString	;wreg free
  5082  007850                     
  5083                           ;LoRa_RN2903A.c: 78:     sendCommand("radio set iqi off\r\n");
  5084  007850  0E37               	movlw	low STR_32
  5085  007852  6E02               	movwf	sendCommand@String^0,c
  5086  007854  0E7E               	movlw	high STR_32
  5087  007856  6E03               	movwf	(sendCommand@String+1)^0,c
  5088  007858  EC1D  F035         	call	_sendCommand	;wreg free
  5089  00785C                     
  5090                           ;LoRa_RN2903A.c: 79:     Read_LoRA_cmd();
  5091  00785C  ECA9  F036         	call	_Read_LoRA_cmd	;wreg free
  5092  007860                     
  5093                           ;LoRa_RN2903A.c: 80:     oled_putString(cmd_message,0,3);
  5094  007860  0E85               	movlw	low _cmd_message
  5095  007862  6E0D               	movwf	oled_putString@string^0,c
  5096  007864  0E00               	movlw	high _cmd_message
  5097  007866  6E0E               	movwf	(oled_putString@string+1)^0,c
  5098  007868  0E00               	movlw	0
  5099  00786A  6E0F               	movwf	oled_putString@station_dot^0,c
  5100  00786C  0E03               	movlw	3
  5101  00786E  6E10               	movwf	oled_putString@start_page^0,c
  5102  007870  ECFD  F035         	call	_oled_putString	;wreg free
  5103  007874                     
  5104                           ;LoRa_RN2903A.c: 81:     _delay((unsigned long)((1000)*(48000000/4000.0)));
  5105  007874  0E3D               	movlw	61
  5106  007876  6E13               	movwf	(??_Init_mod_LoRa+1)^0,c
  5107  007878  0EE1               	movlw	225
  5108  00787A  6E12               	movwf	??_Init_mod_LoRa^0,c
  5109  00787C  0E40               	movlw	64
  5110  00787E                     u4577:
  5111  00787E  2EE8               	decfsz	wreg,f,c
  5112  007880  D7FE               	bra	u4577
  5113  007882  2E12               	decfsz	??_Init_mod_LoRa^0,f,c
  5114  007884  D7FC               	bra	u4577
  5115  007886  2E13               	decfsz	(??_Init_mod_LoRa+1)^0,f,c
  5116  007888  D7FA               	bra	u4577
  5117  00788A                     
  5118                           ;LoRa_RN2903A.c: 84:     oled_clear();
  5119  00788A  EC42  F034         	call	_oled_clear	;wreg free
  5120  00788E                     
  5121                           ;LoRa_RN2903A.c: 85:     oled_putString("Config module RN",0,0);
  5122  00788E  0EB7               	movlw	low STR_10
  5123  007890  6E0D               	movwf	oled_putString@string^0,c
  5124  007892  0E7E               	movlw	high STR_10
  5125  007894  6E0E               	movwf	(oled_putString@string+1)^0,c
  5126  007896  0E00               	movlw	0
  5127  007898  6E0F               	movwf	oled_putString@station_dot^0,c
  5128  00789A  0E00               	movlw	0
  5129  00789C  6E10               	movwf	oled_putString@start_page^0,c
  5130  00789E  ECFD  F035         	call	_oled_putString	;wreg free
  5131  0078A2                     
  5132                           ;LoRa_RN2903A.c: 86:     oled_putString("LoRA WDT",0,1);
  5133  0078A2  0EEA               	movlw	low STR_34
  5134  0078A4  6E0D               	movwf	oled_putString@string^0,c
  5135  0078A6  0E7F               	movlw	high STR_34
  5136  0078A8  6E0E               	movwf	(oled_putString@string+1)^0,c
  5137  0078AA  0E00               	movlw	0
  5138  0078AC  6E0F               	movwf	oled_putString@station_dot^0,c
  5139  0078AE  0E01               	movlw	1
  5140  0078B0  6E10               	movwf	oled_putString@start_page^0,c
  5141  0078B2  ECFD  F035         	call	_oled_putString	;wreg free
  5142  0078B6                     
  5143                           ;LoRa_RN2903A.c: 87:     oled_putString(" WDT desabled",0,2);
  5144  0078B6  0E54               	movlw	low STR_35
  5145  0078B8  6E0D               	movwf	oled_putString@string^0,c
  5146  0078BA  0E7F               	movlw	high STR_35
  5147  0078BC  6E0E               	movwf	(oled_putString@string+1)^0,c
  5148  0078BE  0E00               	movlw	0
  5149  0078C0  6E0F               	movwf	oled_putString@station_dot^0,c
  5150  0078C2  0E02               	movlw	2
  5151  0078C4  6E10               	movwf	oled_putString@start_page^0,c
  5152  0078C6  ECFD  F035         	call	_oled_putString	;wreg free
  5153                           
  5154                           ;LoRa_RN2903A.c: 88:     sendCommand("radio set wdt 0\r\n");
  5155  0078CA  0E71               	movlw	low STR_36
  5156  0078CC  6E02               	movwf	sendCommand@String^0,c
  5157  0078CE  0E7E               	movlw	high STR_36
  5158  0078D0  6E03               	movwf	(sendCommand@String+1)^0,c
  5159  0078D2  EC1D  F035         	call	_sendCommand	;wreg free
  5160  0078D6                     
  5161                           ;LoRa_RN2903A.c: 89:     Read_LoRA_cmd();
  5162  0078D6  ECA9  F036         	call	_Read_LoRA_cmd	;wreg free
  5163  0078DA                     
  5164                           ;LoRa_RN2903A.c: 90:     oled_putString(cmd_message,0,3);
  5165  0078DA  0E85               	movlw	low _cmd_message
  5166  0078DC  6E0D               	movwf	oled_putString@string^0,c
  5167  0078DE  0E00               	movlw	high _cmd_message
  5168  0078E0  6E0E               	movwf	(oled_putString@string+1)^0,c
  5169  0078E2  0E00               	movlw	0
  5170  0078E4  6E0F               	movwf	oled_putString@station_dot^0,c
  5171  0078E6  0E03               	movlw	3
  5172  0078E8  6E10               	movwf	oled_putString@start_page^0,c
  5173  0078EA  ECFD  F035         	call	_oled_putString	;wreg free
  5174  0078EE                     
  5175                           ;LoRa_RN2903A.c: 91:     _delay((unsigned long)((1000)*(48000000/4000.0)));
  5176  0078EE  0E3D               	movlw	61
  5177  0078F0  6E13               	movwf	(??_Init_mod_LoRa+1)^0,c
  5178  0078F2  0EE1               	movlw	225
  5179  0078F4  6E12               	movwf	??_Init_mod_LoRa^0,c
  5180  0078F6  0E40               	movlw	64
  5181  0078F8                     u4587:
  5182  0078F8  2EE8               	decfsz	wreg,f,c
  5183  0078FA  D7FE               	bra	u4587
  5184  0078FC  2E12               	decfsz	??_Init_mod_LoRa^0,f,c
  5185  0078FE  D7FC               	bra	u4587
  5186  007900  2E13               	decfsz	(??_Init_mod_LoRa+1)^0,f,c
  5187  007902  D7FA               	bra	u4587
  5188  007904                     
  5189                           ;LoRa_RN2903A.c: 94:     oled_clear();
  5190  007904  EC42  F034         	call	_oled_clear	;wreg free
  5191  007908                     
  5192                           ;LoRa_RN2903A.c: 95:     oled_putString("Config module RN",0,0);
  5193  007908  0EB7               	movlw	low STR_10
  5194  00790A  6E0D               	movwf	oled_putString@string^0,c
  5195  00790C  0E7E               	movlw	high STR_10
  5196  00790E  6E0E               	movwf	(oled_putString@string+1)^0,c
  5197  007910  0E00               	movlw	0
  5198  007912  6E0F               	movwf	oled_putString@station_dot^0,c
  5199  007914  0E00               	movlw	0
  5200  007916  6E10               	movwf	oled_putString@start_page^0,c
  5201  007918  ECFD  F035         	call	_oled_putString	;wreg free
  5202  00791C                     
  5203                           ;LoRa_RN2903A.c: 96:     oled_putString("SPR. Factor",0,1);
  5204  00791C  0E8A               	movlw	low STR_38
  5205  00791E  6E0D               	movwf	oled_putString@string^0,c
  5206  007920  0E7F               	movlw	high STR_38
  5207  007922  6E0E               	movwf	(oled_putString@string+1)^0,c
  5208  007924  0E00               	movlw	0
  5209  007926  6E0F               	movwf	oled_putString@station_dot^0,c
  5210  007928  0E01               	movlw	1
  5211  00792A  6E10               	movwf	oled_putString@start_page^0,c
  5212  00792C  ECFD  F035         	call	_oled_putString	;wreg free
  5213  007930                     
  5214                           ;LoRa_RN2903A.c: 97:     oled_putString(" spreadingFact12",0,2);
  5215  007930  0E95               	movlw	low STR_39
  5216  007932  6E0D               	movwf	oled_putString@string^0,c
  5217  007934  0E7E               	movlw	high STR_39
  5218  007936  6E0E               	movwf	(oled_putString@string+1)^0,c
  5219  007938  0E00               	movlw	0
  5220  00793A  6E0F               	movwf	oled_putString@station_dot^0,c
  5221  00793C  0E02               	movlw	2
  5222  00793E  6E10               	movwf	oled_putString@start_page^0,c
  5223  007940  ECFD  F035         	call	_oled_putString	;wreg free
  5224  007944                     
  5225                           ;LoRa_RN2903A.c: 98:     sendCommand("radio set sf SF12\r\n");
  5226  007944  0E0F               	movlw	low STR_40
  5227  007946  6E02               	movwf	sendCommand@String^0,c
  5228  007948  0E7E               	movlw	high STR_40
  5229  00794A  6E03               	movwf	(sendCommand@String+1)^0,c
  5230  00794C  EC1D  F035         	call	_sendCommand	;wreg free
  5231  007950                     
  5232                           ;LoRa_RN2903A.c: 99:     Read_LoRA_cmd();
  5233  007950  ECA9  F036         	call	_Read_LoRA_cmd	;wreg free
  5234  007954                     
  5235                           ;LoRa_RN2903A.c: 100:     oled_putString(cmd_message,0,3);
  5236  007954  0E85               	movlw	low _cmd_message
  5237  007956  6E0D               	movwf	oled_putString@string^0,c
  5238  007958  0E00               	movlw	high _cmd_message
  5239  00795A  6E0E               	movwf	(oled_putString@string+1)^0,c
  5240  00795C  0E00               	movlw	0
  5241  00795E  6E0F               	movwf	oled_putString@station_dot^0,c
  5242  007960  0E03               	movlw	3
  5243  007962  6E10               	movwf	oled_putString@start_page^0,c
  5244  007964  ECFD  F035         	call	_oled_putString	;wreg free
  5245  007968                     
  5246                           ;LoRa_RN2903A.c: 101:     _delay((unsigned long)((1000)*(48000000/4000.0)));
  5247  007968  0E3D               	movlw	61
  5248  00796A  6E13               	movwf	(??_Init_mod_LoRa+1)^0,c
  5249  00796C  0EE1               	movlw	225
  5250  00796E  6E12               	movwf	??_Init_mod_LoRa^0,c
  5251  007970  0E40               	movlw	64
  5252  007972                     u4597:
  5253  007972  2EE8               	decfsz	wreg,f,c
  5254  007974  D7FE               	bra	u4597
  5255  007976  2E12               	decfsz	??_Init_mod_LoRa^0,f,c
  5256  007978  D7FC               	bra	u4597
  5257  00797A  2E13               	decfsz	(??_Init_mod_LoRa+1)^0,f,c
  5258  00797C  D7FA               	bra	u4597
  5259  00797E                     
  5260                           ;LoRa_RN2903A.c: 104:     oled_clear();
  5261  00797E  EC42  F034         	call	_oled_clear	;wreg free
  5262                           
  5263                           ;LoRa_RN2903A.c: 105:     oled_putString("Config module RN",0,0);
  5264  007982  0EB7               	movlw	low STR_10
  5265  007984  6E0D               	movwf	oled_putString@string^0,c
  5266  007986  0E7E               	movlw	high STR_10
  5267  007988  6E0E               	movwf	(oled_putString@string+1)^0,c
  5268  00798A  0E00               	movlw	0
  5269  00798C  6E0F               	movwf	oled_putString@station_dot^0,c
  5270  00798E  0E00               	movlw	0
  5271  007990  6E10               	movwf	oled_putString@start_page^0,c
  5272  007992  ECFD  F035         	call	_oled_putString	;wreg free
  5273                           
  5274                           ;LoRa_RN2903A.c: 106:     oled_putString("LoRA Sync",0,1);
  5275  007996  0ECC               	movlw	low STR_42
  5276  007998  6E0D               	movwf	oled_putString@string^0,c
  5277  00799A  0E7F               	movlw	high STR_42
  5278  00799C  6E0E               	movwf	(oled_putString@string+1)^0,c
  5279  00799E  0E00               	movlw	0
  5280  0079A0  6E0F               	movwf	oled_putString@station_dot^0,c
  5281  0079A2  0E01               	movlw	1
  5282  0079A4  6E10               	movwf	oled_putString@start_page^0,c
  5283  0079A6  ECFD  F035         	call	_oled_putString	;wreg free
  5284                           
  5285                           ;LoRa_RN2903A.c: 107:     oled_putString(" Sync word 34",0,2);
  5286  0079AA  0E46               	movlw	low STR_43
  5287  0079AC  6E0D               	movwf	oled_putString@string^0,c
  5288  0079AE  0E7F               	movlw	high STR_43
  5289  0079B0  6E0E               	movwf	(oled_putString@string+1)^0,c
  5290  0079B2  0E00               	movlw	0
  5291  0079B4  6E0F               	movwf	oled_putString@station_dot^0,c
  5292  0079B6  0E02               	movlw	2
  5293  0079B8  6E10               	movwf	oled_putString@start_page^0,c
  5294  0079BA  ECFD  F035         	call	_oled_putString	;wreg free
  5295  0079BE                     
  5296                           ;LoRa_RN2903A.c: 108:     sendCommand("radio set sync 34\r\n");
  5297  0079BE  0E23               	movlw	low STR_44
  5298  0079C0  6E02               	movwf	sendCommand@String^0,c
  5299  0079C2  0E7E               	movlw	high STR_44
  5300  0079C4  6E03               	movwf	(sendCommand@String+1)^0,c
  5301  0079C6  EC1D  F035         	call	_sendCommand	;wreg free
  5302  0079CA                     
  5303                           ;LoRa_RN2903A.c: 109:     Read_LoRA_cmd();
  5304  0079CA  ECA9  F036         	call	_Read_LoRA_cmd	;wreg free
  5305  0079CE                     
  5306                           ;LoRa_RN2903A.c: 110:     oled_putString(cmd_message,0,3);
  5307  0079CE  0E85               	movlw	low _cmd_message
  5308  0079D0  6E0D               	movwf	oled_putString@string^0,c
  5309  0079D2  0E00               	movlw	high _cmd_message
  5310  0079D4  6E0E               	movwf	(oled_putString@string+1)^0,c
  5311  0079D6  0E00               	movlw	0
  5312  0079D8  6E0F               	movwf	oled_putString@station_dot^0,c
  5313  0079DA  0E03               	movlw	3
  5314  0079DC  6E10               	movwf	oled_putString@start_page^0,c
  5315  0079DE  ECFD  F035         	call	_oled_putString	;wreg free
  5316  0079E2                     
  5317                           ;LoRa_RN2903A.c: 111:     _delay((unsigned long)((1000)*(48000000/4000.0)));
  5318  0079E2  0E3D               	movlw	61
  5319  0079E4  6E13               	movwf	(??_Init_mod_LoRa+1)^0,c
  5320  0079E6  0EE1               	movlw	225
  5321  0079E8  6E12               	movwf	??_Init_mod_LoRa^0,c
  5322  0079EA  0E40               	movlw	64
  5323  0079EC                     u4607:
  5324  0079EC  2EE8               	decfsz	wreg,f,c
  5325  0079EE  D7FE               	bra	u4607
  5326  0079F0  2E12               	decfsz	??_Init_mod_LoRa^0,f,c
  5327  0079F2  D7FC               	bra	u4607
  5328  0079F4  2E13               	decfsz	(??_Init_mod_LoRa+1)^0,f,c
  5329  0079F6  D7FA               	bra	u4607
  5330  0079F8  0012               	return		;funcret
  5331  0079FA                     __end_of_Init_mod_LoRa:
  5332                           	callstack 0
  5333                           
  5334 ;; *************** function _sendCommand *****************
  5335 ;; Defined at:
  5336 ;;		line 165 in file "mcc_generated_files/eusart1.c"
  5337 ;; Parameters:    Size  Location     Type
  5338 ;;  String          2    1[COMRAM] PTR unsigned char 
  5339 ;;		 -> STR_49(10), hexa(34), STR_48(26), STR_47(26), 
  5340 ;;		 -> STR_46(26), STR_45(26), STR_44(20), STR_40(20), 
  5341 ;;		 -> STR_36(18), STR_32(20), STR_28(21), STR_24(19), 
  5342 ;;		 -> STR_20(27), STR_16(19), STR_12(18), STR_9(14), 
  5343 ;;		 -> STR_5(12), 
  5344 ;; Auto vars:     Size  Location     Type
  5345 ;;		None
  5346 ;; Return value:  Size  Location     Type
  5347 ;;                  1    wreg      void 
  5348 ;; Registers used:
  5349 ;;		wreg, fsr0l, fsr0h, status,2, status,0, tblptrl, tblptrh, tblptru, cstack
  5350 ;; Tracked objects:
  5351 ;;		On entry : 0/0
  5352 ;;		On exit  : 0/0
  5353 ;;		Unchanged: 0/0
  5354 ;; Data sizes:     COMRAM   BANK0   BANK1   BANK2   BANK3   BANK4   BANK5   BANK6   BANK7
  5355 ;;      Params:         2       0       0       0       0       0       0       0       0
  5356 ;;      Locals:         0       0       0       0       0       0       0       0       0
  5357 ;;      Temps:          0       0       0       0       0       0       0       0       0
  5358 ;;      Totals:         2       0       0       0       0       0       0       0       0
  5359 ;;Total ram usage:        2 bytes
  5360 ;; Hardware stack levels used: 1
  5361 ;; Hardware stack levels required when called: 1
  5362 ;; This function calls:
  5363 ;;		_EUSART1_Write
  5364 ;; This function is called by:
  5365 ;;		_main
  5366 ;;		_Init_mod_LoRa
  5367 ;;		_Send_Data_Pakect
  5368 ;;		_RN_Leds
  5369 ;; This function uses a non-reentrant model
  5370 ;;
  5371                           
  5372                           	psect	text23
  5373  006A3A                     __ptext23:
  5374                           	callstack 0
  5375  006A3A                     _sendCommand:
  5376                           	callstack 29
  5377  006A3A                     
  5378                           ;mcc_generated_files/eusart1.c: 165: void sendCommand(char *String);mcc_generated_files/
      +                          eusart1.c: 166: {;mcc_generated_files/eusart1.c: 167:     while(*String)
  5379  006A3A  EF33  F035         	goto	l2642
  5380  006A3E                     l2638:
  5381                           
  5382                           ;mcc_generated_files/eusart1.c: 168:     {;mcc_generated_files/eusart1.c: 169:         E
      +                          USART1_Write(*String);
  5383  006A3E  C002  FFF6         	movff	sendCommand@String,tblptrl
  5384  006A42  C003  FFF7         	movff	sendCommand@String+1,tblptrh
  5385  006A46  6AF8               	clrf	tblptru,c
  5386  006A48  0E07               	movlw	(high __ramtop+-1)
  5387  006A4A  64F7               	cpfsgt	tblptrh,c
  5388  006A4C  D003               	bra	u1347
  5389  006A4E  0008               	tblrd		*
  5390  006A50  50F5               	movf	tablat,w,c
  5391  006A52  D005               	bra	u1340
  5392  006A54                     u1347:
  5393  006A54  CFF6 FFE9          	movff	tblptrl,fsr0l
  5394  006A58  CFF7 FFEA          	movff	tblptrh,fsr0h
  5395  006A5C  50EF               	movf	indf0,w,c
  5396  006A5E                     u1340:
  5397  006A5E  EC37  F034         	call	_EUSART1_Write
  5398  006A62                     
  5399                           ;mcc_generated_files/eusart1.c: 170:         String++;
  5400  006A62  4A02               	infsnz	sendCommand@String^0,f,c
  5401  006A64  2A03               	incf	(sendCommand@String+1)^0,f,c
  5402  006A66                     l2642:
  5403                           
  5404                           ;mcc_generated_files/eusart1.c: 167:     while(*String)
  5405  006A66  C002  FFF6         	movff	sendCommand@String,tblptrl
  5406  006A6A  C003  FFF7         	movff	sendCommand@String+1,tblptrh
  5407  006A6E  6AF8               	clrf	tblptru,c
  5408  006A70  0E07               	movlw	(high __ramtop+-1)
  5409  006A72  64F7               	cpfsgt	tblptrh,c
  5410  006A74  D003               	bra	u1357
  5411  006A76  0008               	tblrd		*
  5412  006A78  50F5               	movf	tablat,w,c
  5413  006A7A  D005               	bra	u1350
  5414  006A7C                     u1357:
  5415  006A7C  CFF6 FFE9          	movff	tblptrl,fsr0l
  5416  006A80  CFF7 FFEA          	movff	tblptrh,fsr0h
  5417  006A84  50EF               	movf	indf0,w,c
  5418  006A86                     u1350:
  5419  006A86  0900               	iorlw	0
  5420  006A88  A4D8               	btfss	status,2,c
  5421  006A8A  EF49  F035         	goto	u1361
  5422  006A8E  EF4B  F035         	goto	u1360
  5423  006A92                     u1361:
  5424  006A92  EF1F  F035         	goto	l2638
  5425  006A96                     u1360:
  5426  006A96  0012               	return		;funcret
  5427  006A98                     __end_of_sendCommand:
  5428                           	callstack 0
  5429                           
  5430 ;; *************** function _EUSART1_Write *****************
  5431 ;; Defined at:
  5432 ;;		line 156 in file "mcc_generated_files/eusart1.c"
  5433 ;; Parameters:    Size  Location     Type
  5434 ;;  txData          1    wreg     unsigned char 
  5435 ;; Auto vars:     Size  Location     Type
  5436 ;;  txData          1    0[COMRAM] unsigned char 
  5437 ;; Return value:  Size  Location     Type
  5438 ;;                  1    wreg      void 
  5439 ;; Registers used:
  5440 ;;		wreg
  5441 ;; Tracked objects:
  5442 ;;		On entry : 0/0
  5443 ;;		On exit  : 0/0
  5444 ;;		Unchanged: 0/0
  5445 ;; Data sizes:     COMRAM   BANK0   BANK1   BANK2   BANK3   BANK4   BANK5   BANK6   BANK7
  5446 ;;      Params:         0       0       0       0       0       0       0       0       0
  5447 ;;      Locals:         1       0       0       0       0       0       0       0       0
  5448 ;;      Temps:          0       0       0       0       0       0       0       0       0
  5449 ;;      Totals:         1       0       0       0       0       0       0       0       0
  5450 ;;Total ram usage:        1 bytes
  5451 ;; Hardware stack levels used: 1
  5452 ;; This function calls:
  5453 ;;		Nothing
  5454 ;; This function is called by:
  5455 ;;		_sendCommand
  5456 ;;		_Endline
  5457 ;; This function uses a non-reentrant model
  5458 ;;
  5459                           
  5460                           	psect	text24
  5461  00686E                     __ptext24:
  5462                           	callstack 0
  5463  00686E                     _EUSART1_Write:
  5464                           	callstack 29
  5465                           
  5466                           ;incstack = 0
  5467                           ;EUSART1_Write@txData stored from wreg
  5468  00686E  6E01               	movwf	EUSART1_Write@txData^0,c
  5469  006870                     l169:
  5470                           
  5471                           ;mcc_generated_files/eusart1.c: 158:     while(0 == PIR1bits.TX1IF)
  5472  006870  A89E               	btfss	158,4,c	;volatile
  5473  006872  EF3D  F034         	goto	u1271
  5474  006876  EF3F  F034         	goto	u1270
  5475  00687A                     u1271:
  5476  00687A  EF38  F034         	goto	l169
  5477  00687E                     u1270:
  5478  00687E                     
  5479                           ;mcc_generated_files/eusart1.c: 162:     TXREG1 = txData;
  5480  00687E  C001  FFAD         	movff	EUSART1_Write@txData,4013	;volatile
  5481  006882  0012               	return		;funcret
  5482  006884                     __end_of_EUSART1_Write:
  5483                           	callstack 0
  5484                           
  5485 ;; *************** function _oled_putString *****************
  5486 ;; Defined at:
  5487 ;;		line 331 in file "SSD1306oLED.c"
  5488 ;; Parameters:    Size  Location     Type
  5489 ;;  string          2   12[COMRAM] PTR const unsigned char 
  5490 ;;		 -> oled_putUint16@numData(6), oled_putint8@numData(6), oled_putUint8@numData(6), STR_43(14), 
  5491 ;;		 -> STR_42(10), STR_41(17), STR_39(17), STR_38(12), 
  5492 ;;		 -> STR_37(17), STR_35(14), STR_34(9), STR_33(17), 
  5493 ;;		 -> STR_31(15), STR_30(15), STR_29(17), STR_27(17), 
  5494 ;;		 -> STR_26(10), STR_25(17), STR_23(17), STR_22(11), 
  5495 ;;		 -> STR_21(17), STR_19(17), STR_18(13), STR_17(17), 
  5496 ;;		 -> STR_15(15), STR_14(8), STR_13(17), STR_11(16), 
  5497 ;;		 -> STR_10(17), STR_8(3), STR_7(13), STR_6(14), 
  5498 ;;		 -> cmd_message(40), STR_4(10), STR_3(11), STR_2(17), 
  5499 ;;		 -> STR_1(10), 
  5500 ;;  station_dot     1   14[COMRAM] unsigned char 
  5501 ;;  start_page      1   15[COMRAM] unsigned char 
  5502 ;; Auto vars:     Size  Location     Type
  5503 ;;  index           1   16[COMRAM] unsigned char 
  5504 ;; Return value:  Size  Location     Type
  5505 ;;                  1    wreg      void 
  5506 ;; Registers used:
  5507 ;;		wreg, fsr0l, fsr0h, status,2, status,0, tblptrl, tblptrh, tblptru, prodl, prodh, cstack
  5508 ;; Tracked objects:
  5509 ;;		On entry : 0/0
  5510 ;;		On exit  : 0/0
  5511 ;;		Unchanged: 0/0
  5512 ;; Data sizes:     COMRAM   BANK0   BANK1   BANK2   BANK3   BANK4   BANK5   BANK6   BANK7
  5513 ;;      Params:         4       0       0       0       0       0       0       0       0
  5514 ;;      Locals:         1       0       0       0       0       0       0       0       0
  5515 ;;      Temps:          0       0       0       0       0       0       0       0       0
  5516 ;;      Totals:         5       0       0       0       0       0       0       0       0
  5517 ;;Total ram usage:        5 bytes
  5518 ;; Hardware stack levels used: 1
  5519 ;; Hardware stack levels required when called: 3
  5520 ;; This function calls:
  5521 ;;		_oled_putChar
  5522 ;; This function is called by:
  5523 ;;		_Opening
  5524 ;;		_main
  5525 ;;		_Init_mod_LoRa
  5526 ;;		_Send_Data_Pakect
  5527 ;;		_test_leds
  5528 ;;		_oled_putUint8
  5529 ;;		_oled_putint8
  5530 ;;		_oled_putUint16
  5531 ;; This function uses a non-reentrant model
  5532 ;;
  5533                           
  5534                           	psect	text25
  5535  006BFA                     __ptext25:
  5536                           	callstack 0
  5537  006BFA                     _oled_putString:
  5538                           	callstack 27
  5539  006BFA                     
  5540                           ;SSD1306oLED.c: 331: void oled_putString(const char *string, uint8_t station_dot, uint8_
      +                          t start_page);SSD1306oLED.c: 332: {;SSD1306oLED.c: 333:     uint8_t index;;SSD1306oLED.c
      +                          : 334:     for(index = station_dot; index < 16; index++)
  5541  006BFA  C00F  F011         	movff	oled_putString@station_dot,oled_putString@index
  5542  006BFE                     l2620:
  5543  006BFE  0E0F               	movlw	15
  5544  006C00  6411               	cpfsgt	oled_putString@index^0,c
  5545  006C02  EF05  F036         	goto	u1301
  5546  006C06  EF07  F036         	goto	u1300
  5547  006C0A                     u1301:
  5548  006C0A  EF09  F036         	goto	l2624
  5549  006C0E                     u1300:
  5550  006C0E  EF3C  F036         	goto	l381
  5551  006C12                     l2624:
  5552                           
  5553                           ;SSD1306oLED.c: 335:     {;SSD1306oLED.c: 336:         if (*string != 0)
  5554  006C12  C00D  FFF6         	movff	oled_putString@string,tblptrl
  5555  006C16  C00E  FFF7         	movff	oled_putString@string+1,tblptrh
  5556  006C1A  6AF8               	clrf	tblptru,c
  5557  006C1C  0E07               	movlw	(high __ramtop+-1)
  5558  006C1E  64F7               	cpfsgt	tblptrh,c
  5559  006C20  D003               	bra	u1317
  5560  006C22  0008               	tblrd		*
  5561  006C24  50F5               	movf	tablat,w,c
  5562  006C26  D005               	bra	u1310
  5563  006C28                     u1317:
  5564  006C28  CFF6 FFE9          	movff	tblptrl,fsr0l
  5565  006C2C  CFF7 FFEA          	movff	tblptrh,fsr0h
  5566  006C30  50EF               	movf	indf0,w,c
  5567  006C32                     u1310:
  5568  006C32  0900               	iorlw	0
  5569  006C34  B4D8               	btfsc	status,2,c
  5570  006C36  EF1F  F036         	goto	u1321
  5571  006C3A  EF21  F036         	goto	u1320
  5572  006C3E                     u1321:
  5573  006C3E  EF3C  F036         	goto	l381
  5574  006C42                     u1320:
  5575  006C42                     
  5576                           ;SSD1306oLED.c: 337:         {;SSD1306oLED.c: 338:             oled_putChar(*string, ind
      +                          ex, start_page);
  5577  006C42  C011  F003         	movff	oled_putString@index,oled_putChar@station_dot
  5578  006C46  C010  F004         	movff	oled_putString@start_page,oled_putChar@start_page
  5579  006C4A  C00D  FFF6         	movff	oled_putString@string,tblptrl
  5580  006C4E  C00E  FFF7         	movff	oled_putString@string+1,tblptrh
  5581  006C52  6AF8               	clrf	tblptru,c
  5582  006C54  0E07               	movlw	(high __ramtop+-1)
  5583  006C56  64F7               	cpfsgt	tblptrh,c
  5584  006C58  D003               	bra	u1337
  5585  006C5A  0008               	tblrd		*
  5586  006C5C  50F5               	movf	tablat,w,c
  5587  006C5E  D005               	bra	u1330
  5588  006C60                     u1337:
  5589  006C60  CFF6 FFE9          	movff	tblptrl,fsr0l
  5590  006C64  CFF7 FFEA          	movff	tblptrh,fsr0h
  5591  006C68  50EF               	movf	indf0,w,c
  5592  006C6A                     u1330:
  5593  006C6A  ECBF  F035         	call	_oled_putChar
  5594  006C6E                     
  5595                           ;SSD1306oLED.c: 339:             *string++;
  5596  006C6E  4A0D               	infsnz	oled_putString@string^0,f,c
  5597  006C70  2A0E               	incf	(oled_putString@string+1)^0,f,c
  5598  006C72                     
  5599                           ;SSD1306oLED.c: 345:     }
  5600  006C72  2A11               	incf	oled_putString@index^0,f,c
  5601  006C74  EFFF  F035         	goto	l2620
  5602  006C78                     l381:
  5603  006C78  0012               	return		;funcret
  5604  006C7A                     __end_of_oled_putString:
  5605                           	callstack 0
  5606                           
  5607 ;; *************** function _oled_clear *****************
  5608 ;; Defined at:
  5609 ;;		line 348 in file "SSD1306oLED.c"
  5610 ;; Parameters:    Size  Location     Type
  5611 ;;		None
  5612 ;; Auto vars:     Size  Location     Type
  5613 ;;		None
  5614 ;; Return value:  Size  Location     Type
  5615 ;;                  1    wreg      void 
  5616 ;; Registers used:
  5617 ;;		wreg, status,2, status,0, tblptrl, tblptrh, tblptru, prodl, prodh, cstack
  5618 ;; Tracked objects:
  5619 ;;		On entry : 0/0
  5620 ;;		On exit  : 0/0
  5621 ;;		Unchanged: 0/0
  5622 ;; Data sizes:     COMRAM   BANK0   BANK1   BANK2   BANK3   BANK4   BANK5   BANK6   BANK7
  5623 ;;      Params:         0       0       0       0       0       0       0       0       0
  5624 ;;      Locals:         0       0       0       0       0       0       0       0       0
  5625 ;;      Temps:          0       0       0       0       0       0       0       0       0
  5626 ;;      Totals:         0       0       0       0       0       0       0       0       0
  5627 ;;Total ram usage:        0 bytes
  5628 ;; Hardware stack levels used: 1
  5629 ;; Hardware stack levels required when called: 4
  5630 ;; This function calls:
  5631 ;;		_oled_clearRow
  5632 ;; This function is called by:
  5633 ;;		_Opening
  5634 ;;		_main
  5635 ;;		_Init_mod_LoRa
  5636 ;;		_oled_init
  5637 ;; This function uses a non-reentrant model
  5638 ;;
  5639                           
  5640                           	psect	text26
  5641  006884                     __ptext26:
  5642                           	callstack 0
  5643  006884                     _oled_clear:
  5644                           	callstack 25
  5645  006884                     
  5646                           ;SSD1306oLED.c: 350:     oled_clearRow(0);
  5647  006884  0E00               	movlw	0
  5648  006886  EC81  F034         	call	_oled_clearRow
  5649                           
  5650                           ;SSD1306oLED.c: 351:     oled_clearRow(1);
  5651  00688A  0E01               	movlw	1
  5652  00688C  EC81  F034         	call	_oled_clearRow
  5653                           
  5654                           ;SSD1306oLED.c: 352:     oled_clearRow(2);
  5655  006890  0E02               	movlw	2
  5656  006892  EC81  F034         	call	_oled_clearRow
  5657                           
  5658                           ;SSD1306oLED.c: 353:     oled_clearRow(3);
  5659  006896  0E03               	movlw	3
  5660  006898  EC81  F034         	call	_oled_clearRow
  5661  00689C  0012               	return		;funcret
  5662  00689E                     __end_of_oled_clear:
  5663                           	callstack 0
  5664                           
  5665 ;; *************** function _oled_clearRow *****************
  5666 ;; Defined at:
  5667 ;;		line 356 in file "SSD1306oLED.c"
  5668 ;; Parameters:    Size  Location     Type
  5669 ;;  page            1    wreg     unsigned char 
  5670 ;; Auto vars:     Size  Location     Type
  5671 ;;  page            1   12[COMRAM] unsigned char 
  5672 ;;  index           1   13[COMRAM] unsigned char 
  5673 ;; Return value:  Size  Location     Type
  5674 ;;                  1    wreg      void 
  5675 ;; Registers used:
  5676 ;;		wreg, status,2, status,0, tblptrl, tblptrh, tblptru, prodl, prodh, cstack
  5677 ;; Tracked objects:
  5678 ;;		On entry : 0/0
  5679 ;;		On exit  : 0/0
  5680 ;;		Unchanged: 0/0
  5681 ;; Data sizes:     COMRAM   BANK0   BANK1   BANK2   BANK3   BANK4   BANK5   BANK6   BANK7
  5682 ;;      Params:         0       0       0       0       0       0       0       0       0
  5683 ;;      Locals:         2       0       0       0       0       0       0       0       0
  5684 ;;      Temps:          0       0       0       0       0       0       0       0       0
  5685 ;;      Totals:         2       0       0       0       0       0       0       0       0
  5686 ;;Total ram usage:        2 bytes
  5687 ;; Hardware stack levels used: 1
  5688 ;; Hardware stack levels required when called: 3
  5689 ;; This function calls:
  5690 ;;		_oled_putChar
  5691 ;; This function is called by:
  5692 ;;		_oled_clear
  5693 ;; This function uses a non-reentrant model
  5694 ;;
  5695                           
  5696                           	psect	text27
  5697  006902                     __ptext27:
  5698                           	callstack 0
  5699  006902                     _oled_clearRow:
  5700                           	callstack 25
  5701                           
  5702                           ;incstack = 0
  5703                           ;oled_clearRow@page stored from wreg
  5704  006902  6E0D               	movwf	oled_clearRow@page^0,c
  5705  006904                     
  5706                           ;SSD1306oLED.c: 356: void oled_clearRow(uint8_t page);SSD1306oLED.c: 357: {;SSD1306oLED.
      +                          c: 358:     uint8_t index;;SSD1306oLED.c: 360:     for(index = 0; index < 16; index++)
  5707  006904  0E00               	movlw	0
  5708  006906  6E0E               	movwf	oled_clearRow@index^0,c
  5709  006908                     l2586:
  5710                           
  5711                           ;SSD1306oLED.c: 361:     {;SSD1306oLED.c: 362:       oled_putChar( ' ', index, page);
  5712  006908  C00E  F003         	movff	oled_clearRow@index,oled_putChar@station_dot
  5713  00690C  C00D  F004         	movff	oled_clearRow@page,oled_putChar@start_page
  5714  006910  0E20               	movlw	32
  5715  006912  ECBF  F035         	call	_oled_putChar
  5716  006916                     
  5717                           ;SSD1306oLED.c: 363:     }
  5718  006916  2A0E               	incf	oled_clearRow@index^0,f,c
  5719  006918  0E0F               	movlw	15
  5720  00691A  640E               	cpfsgt	oled_clearRow@index^0,c
  5721  00691C  EF92  F034         	goto	u1281
  5722  006920  EF94  F034         	goto	u1280
  5723  006924                     u1281:
  5724  006924  EF84  F034         	goto	l2586
  5725  006928                     u1280:
  5726  006928  0012               	return		;funcret
  5727  00692A                     __end_of_oled_clearRow:
  5728                           	callstack 0
  5729                           
  5730 ;; *************** function _oled_putChar *****************
  5731 ;; Defined at:
  5732 ;;		line 318 in file "SSD1306oLED.c"
  5733 ;; Parameters:    Size  Location     Type
  5734 ;;  k               1    wreg     unsigned char 
  5735 ;;  station_dot     1    2[COMRAM] unsigned char 
  5736 ;;  start_page      1    3[COMRAM] unsigned char 
  5737 ;; Auto vars:     Size  Location     Type
  5738 ;;  k               1   10[COMRAM] unsigned char 
  5739 ;;  index           1   11[COMRAM] unsigned char 
  5740 ;; Return value:  Size  Location     Type
  5741 ;;                  1    wreg      void 
  5742 ;; Registers used:
  5743 ;;		wreg, status,2, status,0, tblptrl, tblptrh, tblptru, prodl, prodh, cstack
  5744 ;; Tracked objects:
  5745 ;;		On entry : 0/0
  5746 ;;		On exit  : 0/0
  5747 ;;		Unchanged: 0/0
  5748 ;; Data sizes:     COMRAM   BANK0   BANK1   BANK2   BANK3   BANK4   BANK5   BANK6   BANK7
  5749 ;;      Params:         2       0       0       0       0       0       0       0       0
  5750 ;;      Locals:         2       0       0       0       0       0       0       0       0
  5751 ;;      Temps:          6       0       0       0       0       0       0       0       0
  5752 ;;      Totals:        10       0       0       0       0       0       0       0       0
  5753 ;;Total ram usage:       10 bytes
  5754 ;; Hardware stack levels used: 1
  5755 ;; Hardware stack levels required when called: 2
  5756 ;; This function calls:
  5757 ;;		_Set_Column_Address
  5758 ;;		_Set_Page_Address
  5759 ;;		_oled_writeData
  5760 ;; This function is called by:
  5761 ;;		_Opening
  5762 ;;		_oled_putString
  5763 ;;		_oled_clearRow
  5764 ;;		_Send_Data_Pakect
  5765 ;; This function uses a non-reentrant model
  5766 ;;
  5767                           
  5768                           	psect	text28
  5769  006B7E                     __ptext28:
  5770                           	callstack 0
  5771  006B7E                     _oled_putChar:
  5772                           	callstack 27
  5773                           
  5774                           ;incstack = 0
  5775                           ;oled_putChar@k stored from wreg
  5776  006B7E  6E0B               	movwf	oled_putChar@k^0,c
  5777  006B80                     
  5778                           ;SSD1306oLED.c: 318: void oled_putChar(char k,uint8_t station_dot, uint8_t start_page);S
      +                          SD1306oLED.c: 319: {;SSD1306oLED.c: 320:     uint8_t index;;SSD1306oLED.c: 322:     Set_
      +                          Page_Address(start_page);
  5779  006B80  5004               	movf	oled_putChar@start_page^0,w,c
  5780  006B82  EC00  F034         	call	_Set_Page_Address
  5781  006B86                     
  5782                           ;SSD1306oLED.c: 323:     Set_Column_Address(0x00 + station_dot * 8 + 4);
  5783  006B86  5003               	movf	oled_putChar@station_dot^0,w,c
  5784  006B88  0D08               	mullw	8
  5785  006B8A  50F3               	movf	243,w,c
  5786  006B8C  0F04               	addlw	4
  5787  006B8E  EC2C  F034         	call	_Set_Column_Address
  5788  006B92                     
  5789                           ;SSD1306oLED.c: 325:     for(index = 0; index < 8; index++)
  5790  006B92  0E00               	movlw	0
  5791  006B94  6E0C               	movwf	oled_putChar@index^0,c
  5792  006B96                     l2552:
  5793                           
  5794                           ;SSD1306oLED.c: 326:     {;SSD1306oLED.c: 327:         oled_writeData(*(selectedFont + 8
      +                           * (k - 0x20) + index));
  5795  006B96  0E00               	movlw	0
  5796  006B98  6E05               	movwf	??_oled_putChar^0,c
  5797  006B9A  0EFF               	movlw	255
  5798  006B9C  6E06               	movwf	(??_oled_putChar+1)^0,c
  5799  006B9E  500B               	movf	oled_putChar@k^0,w,c
  5800  006BA0  6E07               	movwf	(??_oled_putChar+2)^0,c
  5801  006BA2  6A08               	clrf	(??_oled_putChar+3)^0,c
  5802  006BA4  90D8               	bcf	status,0,c
  5803  006BA6  3607               	rlcf	(??_oled_putChar+2)^0,f,c
  5804  006BA8  3608               	rlcf	(??_oled_putChar+3)^0,f,c
  5805  006BAA  90D8               	bcf	status,0,c
  5806  006BAC  3607               	rlcf	(??_oled_putChar+2)^0,f,c
  5807  006BAE  3608               	rlcf	(??_oled_putChar+3)^0,f,c
  5808  006BB0  90D8               	bcf	status,0,c
  5809  006BB2  3607               	rlcf	(??_oled_putChar+2)^0,f,c
  5810  006BB4  3608               	rlcf	(??_oled_putChar+3)^0,f,c
  5811  006BB6  C05A  F009         	movff	_selectedFont,??_oled_putChar+4
  5812  006BBA  C05B  F00A         	movff	_selectedFont+1,??_oled_putChar+5
  5813  006BBE  5007               	movf	(??_oled_putChar+2)^0,w,c
  5814  006BC0  2609               	addwf	(??_oled_putChar+4)^0,f,c
  5815  006BC2  5008               	movf	(??_oled_putChar+3)^0,w,c
  5816  006BC4  220A               	addwfc	(??_oled_putChar+5)^0,f,c
  5817  006BC6  500C               	movf	oled_putChar@index^0,w,c
  5818  006BC8  2609               	addwf	(??_oled_putChar+4)^0,f,c
  5819  006BCA  0E00               	movlw	0
  5820  006BCC  220A               	addwfc	(??_oled_putChar+5)^0,f,c
  5821  006BCE  5005               	movf	??_oled_putChar^0,w,c
  5822  006BD0  2609               	addwf	(??_oled_putChar+4)^0,f,c
  5823  006BD2  5006               	movf	(??_oled_putChar+1)^0,w,c
  5824  006BD4  220A               	addwfc	(??_oled_putChar+5)^0,f,c
  5825  006BD6  C009  FFF6         	movff	??_oled_putChar+4,tblptrl
  5826  006BDA  C00A  FFF7         	movff	??_oled_putChar+5,tblptrh
  5827  006BDE                     	if	0	;tblptru may be non-zero
  5828  006BDE                     	endif
  5829  006BDE                     	if	0	;tblptru may be non-zero
  5830  006BDE                     	endif
  5831  006BDE  0008               	tblrd		*
  5832  006BE0  50F5               	movf	tablat,w,c
  5833  006BE2  EC22  F034         	call	_oled_writeData
  5834  006BE6                     
  5835                           ;SSD1306oLED.c: 328:     }
  5836  006BE6  2A0C               	incf	oled_putChar@index^0,f,c
  5837  006BE8  0E07               	movlw	7
  5838  006BEA  640C               	cpfsgt	oled_putChar@index^0,c
  5839  006BEC  EFFA  F035         	goto	u1241
  5840  006BF0  EFFC  F035         	goto	u1240
  5841  006BF4                     u1241:
  5842  006BF4  EFCB  F035         	goto	l2552
  5843  006BF8                     u1240:
  5844  006BF8  0012               	return		;funcret
  5845  006BFA                     __end_of_oled_putChar:
  5846                           	callstack 0
  5847                           
  5848 ;; *************** function _oled_writeData *****************
  5849 ;; Defined at:
  5850 ;;		line 442 in file "SSD1306oLED.c"
  5851 ;; Parameters:    Size  Location     Type
  5852 ;;  data            1    wreg     unsigned char 
  5853 ;; Auto vars:     Size  Location     Type
  5854 ;;  data            1    0[COMRAM] unsigned char 
  5855 ;; Return value:  Size  Location     Type
  5856 ;;                  1    wreg      void 
  5857 ;; Registers used:
  5858 ;;		wreg
  5859 ;; Tracked objects:
  5860 ;;		On entry : 0/0
  5861 ;;		On exit  : 0/0
  5862 ;;		Unchanged: 0/0
  5863 ;; Data sizes:     COMRAM   BANK0   BANK1   BANK2   BANK3   BANK4   BANK5   BANK6   BANK7
  5864 ;;      Params:         0       0       0       0       0       0       0       0       0
  5865 ;;      Locals:         1       0       0       0       0       0       0       0       0
  5866 ;;      Temps:          0       0       0       0       0       0       0       0       0
  5867 ;;      Totals:         1       0       0       0       0       0       0       0       0
  5868 ;;Total ram usage:        1 bytes
  5869 ;; Hardware stack levels used: 1
  5870 ;; This function calls:
  5871 ;;		Nothing
  5872 ;; This function is called by:
  5873 ;;		_oled_putChar
  5874 ;; This function uses a non-reentrant model
  5875 ;;
  5876                           
  5877                           	psect	text29
  5878  006844                     __ptext29:
  5879                           	callstack 0
  5880  006844                     _oled_writeData:
  5881                           	callstack 28
  5882                           
  5883                           ;incstack = 0
  5884                           ;oled_writeData@data stored from wreg
  5885  006844  6E01               	movwf	oled_writeData@data^0,c
  5886  006846                     
  5887                           ;SSD1306oLED.c: 442: void oled_writeData(uint8_t data);SSD1306oLED.c: 443: {;SSD1306oLED
      +                          .c: 444:     LATBbits.LATB4=0;
  5888  006846  988A               	bcf	138,4,c	;volatile
  5889                           
  5890                           ;SSD1306oLED.c: 445:     LATCbits.LATC0=1;
  5891  006848  808B               	bsf	139,0,c	;volatile
  5892  00684A                     
  5893                           ;SSD1306oLED.c: 446:     LATD=data;
  5894  00684A  C001  FF8C         	movff	oled_writeData@data,3980	;volatile
  5895  00684E                     
  5896                           ;SSD1306oLED.c: 447:     LATCbits.LATC1=0;
  5897  00684E  928B               	bcf	139,1,c	;volatile
  5898  006850                     
  5899                           ;SSD1306oLED.c: 448:     __nop();
  5900  006850  F000               	nop	
  5901  006852                     
  5902                           ;SSD1306oLED.c: 449:     LATCbits.LATC1=1;
  5903  006852  828B               	bsf	139,1,c	;volatile
  5904  006854                     
  5905                           ;SSD1306oLED.c: 450:     LATBbits.LATB4=1;
  5906  006854  888A               	bsf	138,4,c	;volatile
  5907  006856  0012               	return		;funcret
  5908  006858                     __end_of_oled_writeData:
  5909                           	callstack 0
  5910                           
  5911 ;; *************** function _Set_Page_Address *****************
  5912 ;; Defined at:
  5913 ;;		line 241 in file "SSD1306oLED.c"
  5914 ;; Parameters:    Size  Location     Type
  5915 ;;  address         1    wreg     unsigned char 
  5916 ;; Auto vars:     Size  Location     Type
  5917 ;;  address         1    1[COMRAM] unsigned char 
  5918 ;; Return value:  Size  Location     Type
  5919 ;;                  1    wreg      void 
  5920 ;; Registers used:
  5921 ;;		wreg, status,2, status,0, cstack
  5922 ;; Tracked objects:
  5923 ;;		On entry : 0/0
  5924 ;;		On exit  : 0/0
  5925 ;;		Unchanged: 0/0
  5926 ;; Data sizes:     COMRAM   BANK0   BANK1   BANK2   BANK3   BANK4   BANK5   BANK6   BANK7
  5927 ;;      Params:         0       0       0       0       0       0       0       0       0
  5928 ;;      Locals:         1       0       0       0       0       0       0       0       0
  5929 ;;      Temps:          0       0       0       0       0       0       0       0       0
  5930 ;;      Totals:         1       0       0       0       0       0       0       0       0
  5931 ;;Total ram usage:        1 bytes
  5932 ;; Hardware stack levels used: 1
  5933 ;; Hardware stack levels required when called: 1
  5934 ;; This function calls:
  5935 ;;		_oled_writeCommand
  5936 ;; This function is called by:
  5937 ;;		_oled_putChar
  5938 ;; This function uses a non-reentrant model
  5939 ;;
  5940                           
  5941                           	psect	text30
  5942  006800                     __ptext30:
  5943                           	callstack 0
  5944  006800                     _Set_Page_Address:
  5945                           	callstack 27
  5946                           
  5947                           ;incstack = 0
  5948                           ;Set_Page_Address@address stored from wreg
  5949  006800  6E02               	movwf	Set_Page_Address@address^0,c
  5950  006802                     
  5951                           ;SSD1306oLED.c: 241: void Set_Page_Address(uint8_t address);SSD1306oLED.c: 242: {;SSD130
      +                          6oLED.c: 243:     address = 0xb0 | address;
  5952  006802  5002               	movf	Set_Page_Address@address^0,w,c
  5953  006804  09B0               	iorlw	176
  5954  006806  6E02               	movwf	Set_Page_Address@address^0,c
  5955  006808                     
  5956                           ;SSD1306oLED.c: 244:     oled_writeCommand(address);
  5957  006808  5002               	movf	Set_Page_Address@address^0,w,c
  5958  00680A  EC18  F034         	call	_oled_writeCommand
  5959  00680E  0012               	return		;funcret
  5960  006810                     __end_of_Set_Page_Address:
  5961                           	callstack 0
  5962                           
  5963 ;; *************** function _Set_Column_Address *****************
  5964 ;; Defined at:
  5965 ;;		line 249 in file "SSD1306oLED.c"
  5966 ;; Parameters:    Size  Location     Type
  5967 ;;  address         1    wreg     unsigned char 
  5968 ;; Auto vars:     Size  Location     Type
  5969 ;;  address         1    1[COMRAM] unsigned char 
  5970 ;; Return value:  Size  Location     Type
  5971 ;;                  1    wreg      void 
  5972 ;; Registers used:
  5973 ;;		wreg, status,2, status,0, cstack
  5974 ;; Tracked objects:
  5975 ;;		On entry : 0/0
  5976 ;;		On exit  : 0/0
  5977 ;;		Unchanged: 0/0
  5978 ;; Data sizes:     COMRAM   BANK0   BANK1   BANK2   BANK3   BANK4   BANK5   BANK6   BANK7
  5979 ;;      Params:         0       0       0       0       0       0       0       0       0
  5980 ;;      Locals:         1       0       0       0       0       0       0       0       0
  5981 ;;      Temps:          0       0       0       0       0       0       0       0       0
  5982 ;;      Totals:         1       0       0       0       0       0       0       0       0
  5983 ;;Total ram usage:        1 bytes
  5984 ;; Hardware stack levels used: 1
  5985 ;; Hardware stack levels required when called: 1
  5986 ;; This function calls:
  5987 ;;		_oled_writeCommand
  5988 ;; This function is called by:
  5989 ;;		_oled_putChar
  5990 ;; This function uses a non-reentrant model
  5991 ;;
  5992                           
  5993                           	psect	text31
  5994  006858                     __ptext31:
  5995                           	callstack 0
  5996  006858                     _Set_Column_Address:
  5997                           	callstack 27
  5998                           
  5999                           ;incstack = 0
  6000                           ;Set_Column_Address@address stored from wreg
  6001  006858  6E02               	movwf	Set_Column_Address@address^0,c
  6002  00685A                     
  6003                           ;SSD1306oLED.c: 249: void Set_Column_Address(uint8_t address);SSD1306oLED.c: 250: {;SSD1
      +                          306oLED.c: 251:     oled_writeCommand((0x10|(address>>4)));
  6004  00685A  3802               	swapf	Set_Column_Address@address^0,w,c
  6005  00685C  0B0F               	andlw	15
  6006  00685E  0910               	iorlw	16
  6007  006860  EC18  F034         	call	_oled_writeCommand
  6008                           
  6009                           ;SSD1306oLED.c: 252:     oled_writeCommand((0x0f&address));
  6010  006864  5002               	movf	Set_Column_Address@address^0,w,c
  6011  006866  0B0F               	andlw	15
  6012  006868  EC18  F034         	call	_oled_writeCommand
  6013  00686C  0012               	return		;funcret
  6014  00686E                     __end_of_Set_Column_Address:
  6015                           	callstack 0
  6016                           
  6017 ;; *************** function _oled_writeCommand *****************
  6018 ;; Defined at:
  6019 ;;		line 430 in file "SSD1306oLED.c"
  6020 ;; Parameters:    Size  Location     Type
  6021 ;;  command         1    wreg     unsigned char 
  6022 ;; Auto vars:     Size  Location     Type
  6023 ;;  command         1    0[COMRAM] unsigned char 
  6024 ;; Return value:  Size  Location     Type
  6025 ;;                  1    wreg      void 
  6026 ;; Registers used:
  6027 ;;		wreg
  6028 ;; Tracked objects:
  6029 ;;		On entry : 0/0
  6030 ;;		On exit  : 0/0
  6031 ;;		Unchanged: 0/0
  6032 ;; Data sizes:     COMRAM   BANK0   BANK1   BANK2   BANK3   BANK4   BANK5   BANK6   BANK7
  6033 ;;      Params:         0       0       0       0       0       0       0       0       0
  6034 ;;      Locals:         1       0       0       0       0       0       0       0       0
  6035 ;;      Temps:          0       0       0       0       0       0       0       0       0
  6036 ;;      Totals:         1       0       0       0       0       0       0       0       0
  6037 ;;Total ram usage:        1 bytes
  6038 ;; Hardware stack levels used: 1
  6039 ;; This function calls:
  6040 ;;		Nothing
  6041 ;; This function is called by:
  6042 ;;		_Set_Page_Address
  6043 ;;		_Set_Column_Address
  6044 ;;		_oled_devInit
  6045 ;;		_oled_setDisplay
  6046 ;;		_oled_setContrastControlRegister
  6047 ;;		_oled_initialDispayLine
  6048 ;;		_oled_powerControl
  6049 ;;		_oled_regulorResistorSelect
  6050 ;;		_oled_displayOff
  6051 ;; This function uses a non-reentrant model
  6052 ;;
  6053                           
  6054                           	psect	text32
  6055  006830                     __ptext32:
  6056                           	callstack 0
  6057  006830                     _oled_writeCommand:
  6058                           	callstack 27
  6059                           
  6060                           ;incstack = 0
  6061                           ;oled_writeCommand@command stored from wreg
  6062  006830  6E01               	movwf	oled_writeCommand@command^0,c
  6063  006832                     
  6064                           ;SSD1306oLED.c: 430: void oled_writeCommand(uint8_t command);SSD1306oLED.c: 431: {;SSD13
      +                          06oLED.c: 432:     LATBbits.LATB4=0;
  6065  006832  988A               	bcf	138,4,c	;volatile
  6066                           
  6067                           ;SSD1306oLED.c: 433:     LATCbits.LATC0=0;
  6068  006834  908B               	bcf	139,0,c	;volatile
  6069  006836                     
  6070                           ;SSD1306oLED.c: 434:     LATD=command;
  6071  006836  C001  FF8C         	movff	oled_writeCommand@command,3980	;volatile
  6072  00683A                     
  6073                           ;SSD1306oLED.c: 435:     LATCbits.LATC1=0;
  6074  00683A  928B               	bcf	139,1,c	;volatile
  6075  00683C                     
  6076                           ;SSD1306oLED.c: 436:     __nop();
  6077  00683C  F000               	nop	
  6078  00683E                     
  6079                           ;SSD1306oLED.c: 437:     LATCbits.LATC1=1;
  6080  00683E  828B               	bsf	139,1,c	;volatile
  6081  006840                     
  6082                           ;SSD1306oLED.c: 438:     LATBbits.LATB4=1;
  6083  006840  888A               	bsf	138,4,c	;volatile
  6084  006842  0012               	return		;funcret
  6085  006844                     __end_of_oled_writeCommand:
  6086                           	callstack 0
  6087                           
  6088 ;; *************** function _Read_LoRA_cmd *****************
  6089 ;; Defined at:
  6090 ;;		line 137 in file "LoRa_RN2903A.c"
  6091 ;; Parameters:    Size  Location     Type
  6092 ;;		None
  6093 ;; Auto vars:     Size  Location     Type
  6094 ;;  i               2    3[COMRAM] int 
  6095 ;;  Flag            2    1[COMRAM] int 
  6096 ;; Return value:  Size  Location     Type
  6097 ;;                  1    wreg      void 
  6098 ;; Registers used:
  6099 ;;		wreg, fsr2l, fsr2h, status,2, status,0, cstack
  6100 ;; Tracked objects:
  6101 ;;		On entry : 0/0
  6102 ;;		On exit  : 0/0
  6103 ;;		Unchanged: 0/0
  6104 ;; Data sizes:     COMRAM   BANK0   BANK1   BANK2   BANK3   BANK4   BANK5   BANK6   BANK7
  6105 ;;      Params:         0       0       0       0       0       0       0       0       0
  6106 ;;      Locals:         4       0       0       0       0       0       0       0       0
  6107 ;;      Temps:          1       0       0       0       0       0       0       0       0
  6108 ;;      Totals:         5       0       0       0       0       0       0       0       0
  6109 ;;Total ram usage:        5 bytes
  6110 ;; Hardware stack levels used: 1
  6111 ;; Hardware stack levels required when called: 1
  6112 ;; This function calls:
  6113 ;;		_get_Data
  6114 ;; This function is called by:
  6115 ;;		_main
  6116 ;;		_Init_mod_LoRa
  6117 ;;		_Send_Data_Pakect
  6118 ;; This function uses a non-reentrant model
  6119 ;;
  6120                           
  6121                           	psect	text33
  6122  006D52                     __ptext33:
  6123                           	callstack 0
  6124  006D52                     _Read_LoRA_cmd:
  6125                           	callstack 28
  6126  006D52                     
  6127                           ;LoRa_RN2903A.c: 139:     int i=0,Flag=0;
  6128  006D52  0E00               	movlw	0
  6129  006D54  6E05               	movwf	(Read_LoRA_cmd@i+1)^0,c
  6130  006D56  0E00               	movlw	0
  6131  006D58  6E04               	movwf	Read_LoRA_cmd@i^0,c
  6132  006D5A  0E00               	movlw	0
  6133  006D5C  6E03               	movwf	(Read_LoRA_cmd@Flag+1)^0,c
  6134  006D5E  0E00               	movlw	0
  6135  006D60  6E02               	movwf	Read_LoRA_cmd@Flag^0,c
  6136                           
  6137                           ;LoRa_RN2903A.c: 142:     for (i = 0; i < buff_size; i++)
  6138  006D62  0E00               	movlw	0
  6139  006D64  6E05               	movwf	(Read_LoRA_cmd@i+1)^0,c
  6140  006D66  0E00               	movlw	0
  6141  006D68  6E04               	movwf	Read_LoRA_cmd@i^0,c
  6142  006D6A  EFC9  F036         	goto	l2650
  6143  006D6E                     l2646:
  6144                           
  6145                           ;LoRa_RN2903A.c: 143:     {;LoRa_RN2903A.c: 144:         cmd_message[i] = 0;
  6146  006D6E  0E85               	movlw	low _cmd_message
  6147  006D70  2404               	addwf	Read_LoRA_cmd@i^0,w,c
  6148  006D72  6ED9               	movwf	fsr2l,c
  6149  006D74  0E00               	movlw	high _cmd_message
  6150  006D76  2005               	addwfc	(Read_LoRA_cmd@i+1)^0,w,c
  6151  006D78  6EDA               	movwf	fsr2h,c
  6152  006D7A  0E00               	movlw	0
  6153  006D7C  6EDF               	movwf	indf2,c
  6154                           
  6155                           ;LoRa_RN2903A.c: 145:         LoRA_RX_data[i] = 0;
  6156  006D7E  0E44               	movlw	low _LoRA_RX_data
  6157  006D80  2404               	addwf	Read_LoRA_cmd@i^0,w,c
  6158  006D82  6ED9               	movwf	fsr2l,c
  6159  006D84  0E01               	movlw	high _LoRA_RX_data
  6160  006D86  2005               	addwfc	(Read_LoRA_cmd@i+1)^0,w,c
  6161  006D88  6EDA               	movwf	fsr2h,c
  6162  006D8A  0E00               	movlw	0
  6163  006D8C  6EDF               	movwf	indf2,c
  6164  006D8E                     
  6165                           ;LoRa_RN2903A.c: 146:     }
  6166  006D8E  4A04               	infsnz	Read_LoRA_cmd@i^0,f,c
  6167  006D90  2A05               	incf	(Read_LoRA_cmd@i+1)^0,f,c
  6168  006D92                     l2650:
  6169  006D92  BE05               	btfsc	(Read_LoRA_cmd@i+1)^0,7,c
  6170  006D94  EFD5  F036         	goto	u1371
  6171  006D98  5005               	movf	(Read_LoRA_cmd@i+1)^0,w,c
  6172  006D9A  E109               	bnz	u1370
  6173  006D9C  0E28               	movlw	40
  6174  006D9E  5C04               	subwf	Read_LoRA_cmd@i^0,w,c
  6175  006DA0  A0D8               	btfss	status,0,c
  6176  006DA2  EFD5  F036         	goto	u1371
  6177  006DA6  EFD7  F036         	goto	u1370
  6178  006DAA                     u1371:
  6179  006DAA  EFB7  F036         	goto	l2646
  6180  006DAE                     u1370:
  6181  006DAE                     
  6182                           ;LoRa_RN2903A.c: 148:     i=0;
  6183  006DAE  0E00               	movlw	0
  6184  006DB0  6E05               	movwf	(Read_LoRA_cmd@i+1)^0,c
  6185  006DB2  0E00               	movlw	0
  6186  006DB4  6E04               	movwf	Read_LoRA_cmd@i^0,c
  6187                           
  6188                           ;LoRa_RN2903A.c: 149:     while(Flag==0)
  6189  006DB6  EF1F  F037         	goto	l2672
  6190  006DBA                     l2654:
  6191                           
  6192                           ;LoRa_RN2903A.c: 150:     {;LoRa_RN2903A.c: 152:         cmd_message[i] = get_Data();
  6193  006DBA  0E85               	movlw	low _cmd_message
  6194  006DBC  2404               	addwf	Read_LoRA_cmd@i^0,w,c
  6195  006DBE  6ED9               	movwf	fsr2l,c
  6196  006DC0  0E00               	movlw	high _cmd_message
  6197  006DC2  2005               	addwfc	(Read_LoRA_cmd@i+1)^0,w,c
  6198  006DC4  6EDA               	movwf	fsr2h,c
  6199  006DC6  EC6D  F034         	call	_get_Data	;wreg free
  6200  006DCA  6EDF               	movwf	indf2,c
  6201  006DCC                     
  6202                           ;LoRa_RN2903A.c: 154:         if((cmd_message[i]) == '\r')
  6203  006DCC  0E85               	movlw	low _cmd_message
  6204  006DCE  2404               	addwf	Read_LoRA_cmd@i^0,w,c
  6205  006DD0  6ED9               	movwf	fsr2l,c
  6206  006DD2  0E00               	movlw	high _cmd_message
  6207  006DD4  2005               	addwfc	(Read_LoRA_cmd@i+1)^0,w,c
  6208  006DD6  6EDA               	movwf	fsr2h,c
  6209  006DD8  0E0D               	movlw	13
  6210  006DDA  18DE               	xorwf	postinc2,w,c
  6211  006DDC  A4D8               	btfss	status,2,c
  6212  006DDE  EFF3  F036         	goto	u1381
  6213  006DE2  EFF5  F036         	goto	u1380
  6214  006DE6                     u1381:
  6215  006DE6  EF03  F037         	goto	l2664
  6216  006DEA                     u1380:
  6217  006DEA                     
  6218                           ;LoRa_RN2903A.c: 155:         {;LoRa_RN2903A.c: 156:             cmd_message[i] = '$';
  6219  006DEA  0E85               	movlw	low _cmd_message
  6220  006DEC  2404               	addwf	Read_LoRA_cmd@i^0,w,c
  6221  006DEE  6ED9               	movwf	fsr2l,c
  6222  006DF0  0E00               	movlw	high _cmd_message
  6223  006DF2  2005               	addwfc	(Read_LoRA_cmd@i+1)^0,w,c
  6224  006DF4  6EDA               	movwf	fsr2h,c
  6225  006DF6  0E24               	movlw	36
  6226  006DF8  6EDF               	movwf	indf2,c
  6227  006DFA                     
  6228                           ;LoRa_RN2903A.c: 157:             get_Data();
  6229  006DFA  EC6D  F034         	call	_get_Data	;wreg free
  6230  006DFE                     
  6231                           ;LoRa_RN2903A.c: 158:             Flag=1;
  6232  006DFE  0E00               	movlw	0
  6233  006E00  6E03               	movwf	(Read_LoRA_cmd@Flag+1)^0,c
  6234  006E02  0E01               	movlw	1
  6235  006E04  6E02               	movwf	Read_LoRA_cmd@Flag^0,c
  6236  006E06                     l2664:
  6237  006E06  BE05               	btfsc	(Read_LoRA_cmd@i+1)^0,7,c
  6238  006E08  EF0F  F037         	goto	u1391
  6239  006E0C  5005               	movf	(Read_LoRA_cmd@i+1)^0,w,c
  6240  006E0E  E109               	bnz	u1390
  6241  006E10  0E29               	movlw	41
  6242  006E12  5C04               	subwf	Read_LoRA_cmd@i^0,w,c
  6243  006E14  A0D8               	btfss	status,0,c
  6244  006E16  EF0F  F037         	goto	u1391
  6245  006E1A  EF11  F037         	goto	u1390
  6246  006E1E                     u1391:
  6247  006E1E  EF1D  F037         	goto	l2670
  6248  006E22                     u1390:
  6249  006E22                     l2668:
  6250  006E22  EC6D  F034         	call	_get_Data	;wreg free
  6251  006E26  0A0A               	xorlw	10
  6252  006E28  A4D8               	btfss	status,2,c
  6253  006E2A  EF19  F037         	goto	u1401
  6254  006E2E  EF1B  F037         	goto	u1400
  6255  006E32                     u1401:
  6256  006E32  EF11  F037         	goto	l2668
  6257  006E36                     u1400:
  6258  006E36  EF28  F037         	goto	l283
  6259  006E3A                     l2670:
  6260                           
  6261                           ;LoRa_RN2903A.c: 165:         i++;
  6262  006E3A  4A04               	infsnz	Read_LoRA_cmd@i^0,f,c
  6263  006E3C  2A05               	incf	(Read_LoRA_cmd@i+1)^0,f,c
  6264  006E3E                     l2672:
  6265                           
  6266                           ;LoRa_RN2903A.c: 149:     while(Flag==0)
  6267  006E3E  5002               	movf	Read_LoRA_cmd@Flag^0,w,c
  6268  006E40  1003               	iorwf	(Read_LoRA_cmd@Flag+1)^0,w,c
  6269  006E42  B4D8               	btfsc	status,2,c
  6270  006E44  EF26  F037         	goto	u1411
  6271  006E48  EF28  F037         	goto	u1410
  6272  006E4C                     u1411:
  6273  006E4C  EFDD  F036         	goto	l2654
  6274  006E50                     u1410:
  6275  006E50                     l283:
  6276  006E50  0012               	return		;funcret
  6277  006E52                     __end_of_Read_LoRA_cmd:
  6278                           	callstack 0
  6279                           
  6280 ;; *************** function _get_Data *****************
  6281 ;; Defined at:
  6282 ;;		line 132 in file "mcc_generated_files/eusart1.c"
  6283 ;; Parameters:    Size  Location     Type
  6284 ;;		None
  6285 ;; Auto vars:     Size  Location     Type
  6286 ;;		None
  6287 ;; Return value:  Size  Location     Type
  6288 ;;                  1    wreg      unsigned char 
  6289 ;; Registers used:
  6290 ;;		wreg, status,2
  6291 ;; Tracked objects:
  6292 ;;		On entry : 0/0
  6293 ;;		On exit  : 0/0
  6294 ;;		Unchanged: 0/0
  6295 ;; Data sizes:     COMRAM   BANK0   BANK1   BANK2   BANK3   BANK4   BANK5   BANK6   BANK7
  6296 ;;      Params:         0       0       0       0       0       0       0       0       0
  6297 ;;      Locals:         0       0       0       0       0       0       0       0       0
  6298 ;;      Temps:          0       0       0       0       0       0       0       0       0
  6299 ;;      Totals:         0       0       0       0       0       0       0       0       0
  6300 ;;Total ram usage:        0 bytes
  6301 ;; Hardware stack levels used: 1
  6302 ;; This function calls:
  6303 ;;		Nothing
  6304 ;; This function is called by:
  6305 ;;		_Read_LoRA_cmd
  6306 ;; This function uses a non-reentrant model
  6307 ;;
  6308                           
  6309                           	psect	text34
  6310  0068DA                     __ptext34:
  6311                           	callstack 0
  6312  0068DA                     _get_Data:
  6313                           	callstack 28
  6314  0068DA                     l162:
  6315                           
  6316                           ;mcc_generated_files/eusart1.c: 136:     while(!PIR1bits.RC1IF)
  6317  0068DA  AA9E               	btfss	158,5,c	;volatile
  6318  0068DC  EF72  F034         	goto	u1251
  6319  0068E0  EF74  F034         	goto	u1250
  6320  0068E4                     u1251:
  6321  0068E4  EF6D  F034         	goto	l162
  6322  0068E8                     u1250:
  6323  0068E8                     
  6324                           ;mcc_generated_files/eusart1.c: 140:     eusart1RxLastError.status = 0;
  6325  0068E8  0E00               	movlw	0
  6326  0068EA  6E59               	movwf	_eusart1RxLastError^0,c	;volatile
  6327  0068EC                     
  6328                           ;mcc_generated_files/eusart1.c: 142:     if(1 == RCSTA1bits.OERR)
  6329  0068EC  A2AB               	btfss	171,1,c	;volatile
  6330  0068EE  EF7B  F034         	goto	u1261
  6331  0068F2  EF7D  F034         	goto	u1260
  6332  0068F6                     u1261:
  6333  0068F6  EF7F  F034         	goto	l2572
  6334  0068FA                     u1260:
  6335  0068FA                     
  6336                           ;mcc_generated_files/eusart1.c: 143:     {;mcc_generated_files/eusart1.c: 146:         R
      +                          CSTA1bits.CREN = 0;
  6337  0068FA  98AB               	bcf	171,4,c	;volatile
  6338                           
  6339                           ;mcc_generated_files/eusart1.c: 147:         RCSTA1bits.CREN = 1;
  6340  0068FC  88AB               	bsf	171,4,c	;volatile
  6341  0068FE                     l2572:
  6342                           
  6343                           ;mcc_generated_files/eusart1.c: 154:     return RCREG1;
  6344  0068FE  50AE               	movf	174,w,c	;volatile
  6345  006900  0012               	return		;funcret
  6346  006902                     __end_of_get_Data:
  6347                           	callstack 0
  6348                           
  6349                           	psect	rparam
  6350  0000                     
  6351                           	psect	idloc
  6352                           
  6353                           ;Config register IDLOC0 @ 0x200000
  6354                           ;	unspecified, using default values
  6355  200000                     	org	2097152
  6356  200000  FF                 	db	255
  6357                           
  6358                           ;Config register IDLOC1 @ 0x200001
  6359                           ;	unspecified, using default values
  6360  200001                     	org	2097153
  6361  200001  FF                 	db	255
  6362                           
  6363                           ;Config register IDLOC2 @ 0x200002
  6364                           ;	unspecified, using default values
  6365  200002                     	org	2097154
  6366  200002  FF                 	db	255
  6367                           
  6368                           ;Config register IDLOC3 @ 0x200003
  6369                           ;	unspecified, using default values
  6370  200003                     	org	2097155
  6371  200003  FF                 	db	255
  6372                           
  6373                           ;Config register IDLOC4 @ 0x200004
  6374                           ;	unspecified, using default values
  6375  200004                     	org	2097156
  6376  200004  FF                 	db	255
  6377                           
  6378                           ;Config register IDLOC5 @ 0x200005
  6379                           ;	unspecified, using default values
  6380  200005                     	org	2097157
  6381  200005  FF                 	db	255
  6382                           
  6383                           ;Config register IDLOC6 @ 0x200006
  6384                           ;	unspecified, using default values
  6385  200006                     	org	2097158
  6386  200006  FF                 	db	255
  6387                           
  6388                           ;Config register IDLOC7 @ 0x200007
  6389                           ;	unspecified, using default values
  6390  200007                     	org	2097159
  6391  200007  FF                 	db	255
  6392                           
  6393                           	psect	config
  6394                           
  6395                           ;Config register CONFIG1L @ 0x300000
  6396                           ;	PLL Selection
  6397                           ;	PLLSEL = PLL3X, 3x clock multiplier
  6398                           ;	PLL Enable Configuration bit
  6399                           ;	CFGPLLEN = ON, PLL Enabled
  6400                           ;	CPU System Clock Postscaler
  6401                           ;	CPUDIV = NOCLKDIV, CPU uses system clock (no divide)
  6402                           ;	Low Speed USB mode with 48 MHz system clock
  6403                           ;	LS48MHZ = SYS24X4, System clock at 24 MHz, USB clock divider is set to 4
  6404  300000                     	org	3145728
  6405  300000  03                 	db	3
  6406                           
  6407                           ;Config register CONFIG1H @ 0x300001
  6408                           ;	Oscillator Selection
  6409                           ;	FOSC = INTOSCIO, Internal oscillator
  6410                           ;	Primary Oscillator Shutdown
  6411                           ;	PCLKEN = ON, Primary oscillator enabled
  6412                           ;	Fail-Safe Clock Monitor
  6413                           ;	FCMEN = OFF, Fail-Safe Clock Monitor disabled
  6414                           ;	Internal/External Oscillator Switchover
  6415                           ;	IESO = OFF, Oscillator Switchover mode disabled
  6416  300001                     	org	3145729
  6417  300001  28                 	db	40
  6418                           
  6419                           ;Config register CONFIG2L @ 0x300002
  6420                           ;	Power-up Timer Enable
  6421                           ;	nPWRTEN = OFF, Power up timer disabled
  6422                           ;	Brown-out Reset Enable
  6423                           ;	BOREN = SBORDIS, BOR enabled in hardware (SBOREN is ignored)
  6424                           ;	Brown-out Reset Voltage
  6425                           ;	BORV = 190, BOR set to 1.9V nominal
  6426                           ;	Low-Power Brown-out Reset
  6427                           ;	nLPBOR = OFF, Low-Power Brown-out Reset disabled
  6428  300002                     	org	3145730
  6429  300002  5F                 	db	95
  6430                           
  6431                           ;Config register CONFIG2H @ 0x300003
  6432                           ;	Watchdog Timer Enable bits
  6433                           ;	WDTEN = OFF, WDT disabled in hardware (SWDTEN ignored)
  6434                           ;	Watchdog Timer Postscaler
  6435                           ;	WDTPS = 32768, 1:32768
  6436  300003                     	org	3145731
  6437  300003  3C                 	db	60
  6438                           
  6439                           ; Padding undefined space
  6440  300004                     	org	3145732
  6441  300004  FF                 	db	255
  6442                           
  6443                           ;Config register CONFIG3H @ 0x300005
  6444                           ;	CCP2 MUX bit
  6445                           ;	CCP2MX = RC1, CCP2 input/output is multiplexed with RC1
  6446                           ;	PORTB A/D Enable bit
  6447                           ;	PBADEN = ON, PORTB<5:0> pins are configured as analog input channels on Reset
  6448                           ;	Timer3 Clock Input MUX bit
  6449                           ;	T3CMX = RC0, T3CKI function is on RC0
  6450                           ;	SDO Output MUX bit
  6451                           ;	SDOMX = RB3, SDO function is on RB3
  6452                           ;	Master Clear Reset Pin Enable
  6453                           ;	MCLRE = ON, MCLR pin enabled; RE3 input disabled
  6454  300005                     	org	3145733
  6455  300005  D3                 	db	211
  6456                           
  6457                           ;Config register CONFIG4L @ 0x300006
  6458                           ;	Stack Full/Underflow Reset
  6459                           ;	STVREN = ON, Stack full/underflow will cause Reset
  6460                           ;	Single-Supply ICSP Enable bit
  6461                           ;	LVP = OFF, Single-Supply ICSP disabled
  6462                           ;	Dedicated In-Circuit Debug/Programming Port Enable
  6463                           ;	ICPRT = OFF, ICPORT disabled
  6464                           ;	Extended Instruction Set Enable bit
  6465                           ;	XINST = OFF, Instruction set extension and Indexed Addressing mode disabled
  6466                           ;	Background Debugger Enable bit
  6467                           ;	DEBUG = OFF, Background debugger disabled, RB6 and RB7 configured as general purpose I
      +                          /O pins
  6468  300006                     	org	3145734
  6469  300006  81                 	db	129
  6470                           
  6471                           ; Padding undefined space
  6472  300007                     	org	3145735
  6473  300007  FF                 	db	255
  6474                           
  6475                           ;Config register CONFIG5L @ 0x300008
  6476                           ;	Block 0 Code Protect
  6477                           ;	CP0 = OFF, Block 0 is not code-protected
  6478                           ;	Block 1 Code Protect
  6479                           ;	CP1 = OFF, Block 1 is not code-protected
  6480                           ;	Block 2 Code Protect
  6481                           ;	CP2 = OFF, Block 2 is not code-protected
  6482                           ;	Block 3 Code Protect
  6483                           ;	CP3 = OFF, Block 3 is not code-protected
  6484  300008                     	org	3145736
  6485  300008  0F                 	db	15
  6486                           
  6487                           ;Config register CONFIG5H @ 0x300009
  6488                           ;	Boot Block Code Protect
  6489                           ;	CPB = OFF, Boot block is not code-protected
  6490                           ;	Data EEPROM Code Protect
  6491                           ;	CPD = OFF, Data EEPROM is not code-protected
  6492  300009                     	org	3145737
  6493  300009  C0                 	db	192
  6494                           
  6495                           ;Config register CONFIG6L @ 0x30000A
  6496                           ;	Block 0 Write Protect
  6497                           ;	WRT0 = OFF, Block 0 (0800-1FFFh) is not write-protected
  6498                           ;	Block 1 Write Protect
  6499                           ;	WRT1 = OFF, Block 1 (2000-3FFFh) is not write-protected
  6500                           ;	Block 2 Write Protect
  6501                           ;	WRT2 = OFF, Block 2 (04000-5FFFh) is not write-protected
  6502                           ;	Block 3 Write Protect
  6503                           ;	WRT3 = OFF, Block 3 (06000-7FFFh) is not write-protected
  6504  30000A                     	org	3145738
  6505  30000A  0F                 	db	15
  6506                           
  6507                           ;Config register CONFIG6H @ 0x30000B
  6508                           ;	Configuration Registers Write Protect
  6509                           ;	WRTC = OFF, Configuration registers (300000-3000FFh) are not write-protected
  6510                           ;	Boot Block Write Protect
  6511                           ;	WRTB = OFF, Boot block (0000-7FFh) is not write-protected
  6512                           ;	Data EEPROM Write Protect
  6513                           ;	WRTD = OFF, Data EEPROM is not write-protected
  6514  30000B                     	org	3145739
  6515  30000B  E0                 	db	224
  6516                           
  6517                           ;Config register CONFIG7L @ 0x30000C
  6518                           ;	Block 0 Table Read Protect
  6519                           ;	EBTR0 = OFF, Block 0 is not protected from table reads executed in other blocks
  6520                           ;	Block 1 Table Read Protect
  6521                           ;	EBTR1 = OFF, Block 1 is not protected from table reads executed in other blocks
  6522                           ;	Block 2 Table Read Protect
  6523                           ;	EBTR2 = OFF, Block 2 is not protected from table reads executed in other blocks
  6524                           ;	Block 3 Table Read Protect
  6525                           ;	EBTR3 = OFF, Block 3 is not protected from table reads executed in other blocks
  6526  30000C                     	org	3145740
  6527  30000C  0F                 	db	15
  6528                           
  6529                           ;Config register CONFIG7H @ 0x30000D
  6530                           ;	Boot Block Table Read Protect
  6531                           ;	EBTRB = OFF, Boot block is not protected from table reads executed in other blocks
  6532  30000D                     	org	3145741
  6533  30000D  40                 	db	64
  6534                           tosu	equ	0xFFF
  6535                           tosh	equ	0xFFE
  6536                           tosl	equ	0xFFD
  6537                           stkptr	equ	0xFFC
  6538                           pclatu	equ	0xFFB
  6539                           pclath	equ	0xFFA
  6540                           pcl	equ	0xFF9
  6541                           tblptru	equ	0xFF8
  6542                           tblptrh	equ	0xFF7
  6543                           tblptrl	equ	0xFF6
  6544                           tablat	equ	0xFF5
  6545                           prodh	equ	0xFF4
  6546                           prodl	equ	0xFF3
  6547                           indf0	equ	0xFEF
  6548                           postinc0	equ	0xFEE
  6549                           postdec0	equ	0xFED
  6550                           preinc0	equ	0xFEC
  6551                           plusw0	equ	0xFEB
  6552                           fsr0h	equ	0xFEA
  6553                           fsr0l	equ	0xFE9
  6554                           wreg	equ	0xFE8
  6555                           indf1	equ	0xFE7
  6556                           postinc1	equ	0xFE6
  6557                           postdec1	equ	0xFE5
  6558                           preinc1	equ	0xFE4
  6559                           plusw1	equ	0xFE3
  6560                           fsr1h	equ	0xFE2
  6561                           fsr1l	equ	0xFE1
  6562                           bsr	equ	0xFE0
  6563                           indf2	equ	0xFDF
  6564                           postinc2	equ	0xFDE
  6565                           postdec2	equ	0xFDD
  6566                           preinc2	equ	0xFDC
  6567                           plusw2	equ	0xFDB
  6568                           fsr2h	equ	0xFDA
  6569                           fsr2l	equ	0xFD9
  6570                           status	equ	0xFD8

Data Sizes:
    Strings     647
    Constant    892
    Data        22
    BSS         248
    Persistent  0
    Stack       0

Auto Spaces:
    Space          Size  Autos    Used
    COMRAM           95     80      95
    BANK0           160      0     147
    BANK1           256      0     108
    BANK2           256      0       0
    BANK3           256      0       0
    BANK4           256      0       0
    BANK5           256      0       0
    BANK6           256      0       0
    BANK7           256      0       0

Pointer List with Targets:

    Len@Data	PTR unsigned char  size(2) Largest target is 34
		 -> auxiliary(BANK0[20]), hexa(BANK0[34]), 

    oled_putString@string	PTR const unsigned char  size(2) Largest target is 40
		 -> oled_putUint16@numData(COMRAM[6]), oled_putint8@numData(COMRAM[6]), oled_putUint8@numData(COMRAM[6]), STR_43(CODE[14]), 
		 -> STR_42(CODE[10]), STR_41(CODE[17]), STR_39(CODE[17]), STR_38(CODE[12]), 
		 -> STR_37(CODE[17]), STR_35(CODE[14]), STR_34(CODE[9]), STR_33(CODE[17]), 
		 -> STR_31(CODE[15]), STR_30(CODE[15]), STR_29(CODE[17]), STR_27(CODE[17]), 
		 -> STR_26(CODE[10]), STR_25(CODE[17]), STR_23(CODE[17]), STR_22(CODE[11]), 
		 -> STR_21(CODE[17]), STR_19(CODE[17]), STR_18(CODE[13]), STR_17(CODE[17]), 
		 -> STR_15(CODE[15]), STR_14(CODE[8]), STR_13(CODE[17]), STR_11(CODE[16]), 
		 -> STR_10(CODE[17]), STR_8(CODE[3]), STR_7(CODE[13]), STR_6(CODE[14]), 
		 -> cmd_message(BANK0[40]), STR_4(CODE[10]), STR_3(CODE[11]), STR_2(CODE[17]), 
		 -> STR_1(CODE[10]), 

    oled_setFont@font	PTR const unsigned char  size(2) Largest target is 768
		 -> OledFont0(CODE[768]), 

    selectedFont	PTR const unsigned char  size(2) Largest target is 768
		 -> OledFont0(CODE[768]), 

    EUSART1_SetErrorHandler@interruptHandler	PTR FTN()void  size(2) Largest target is 1
		 -> EUSART1_DefaultErrorHandler(), 

    EUSART1_ErrorHandler	PTR FTN()void  size(2) Largest target is 1
		 -> Absolute function(), EUSART1_DefaultErrorHandler(), 

    EUSART1_SetOverrunErrorHandler@interruptHandler	PTR FTN()void  size(2) Largest target is 1
		 -> EUSART1_DefaultOverrunErrorHandler(), 

    EUSART1_OverrunErrorHandler	PTR FTN()void  size(2) Largest target is 1
		 -> Absolute function(), EUSART1_DefaultOverrunErrorHandler(), 

    EUSART1_SetFramingErrorHandler@interruptHandler	PTR FTN()void  size(2) Largest target is 1
		 -> EUSART1_DefaultFramingErrorHandler(), 

    EUSART1_FramingErrorHandler	PTR FTN()void  size(2) Largest target is 1
		 -> Absolute function(), EUSART1_DefaultFramingErrorHandler(), 

    sendCommand@String	PTR unsigned char  size(2) Largest target is 34
		 -> STR_49(CODE[10]), hexa(BANK0[34]), STR_48(CODE[26]), STR_47(CODE[26]), 
		 -> STR_46(CODE[26]), STR_45(CODE[26]), STR_44(CODE[20]), STR_40(CODE[20]), 
		 -> STR_36(CODE[18]), STR_32(CODE[20]), STR_28(CODE[21]), STR_24(CODE[19]), 
		 -> STR_20(CODE[27]), STR_16(CODE[19]), STR_12(CODE[18]), STR_9(CODE[14]), 
		 -> STR_5(CODE[12]), 


Critical Paths under _main in COMRAM

    _main->_Send_Data_Pakect
    _oled_setDisplay->_oled_writeCommand
    _oled_devInit->_oled_initialDispayLine
    _oled_devInit->_oled_powerControl
    _oled_devInit->_oled_regulorResistorSelect
    _oled_devInit->_oled_setContrastControlRegister
    _oled_setContrastControlRegister->_oled_writeCommand
    _oled_regulorResistorSelect->_oled_writeCommand
    _oled_powerControl->_oled_writeCommand
    _oled_initialDispayLine->_oled_writeCommand
    _Send_Data_Pakect->_DATAtoHEXA
    _Endline->_EUSART1_Write
    _DATAtoHEXA->_Len
    _EUSART1_Initialize->_EUSART1_SetErrorHandler
    _EUSART1_Initialize->_EUSART1_SetFramingErrorHandler
    _EUSART1_Initialize->_EUSART1_SetOverrunErrorHandler
    _Opening->_oled_putString
    _Init_mod_LoRa->_oled_putString
    _sendCommand->_EUSART1_Write
    _oled_putString->_oled_putChar
    _oled_clear->_oled_clearRow
    _oled_clearRow->_oled_putChar
    _oled_putChar->_Set_Column_Address
    _oled_putChar->_Set_Page_Address
    _Set_Page_Address->_oled_writeCommand
    _Set_Column_Address->_oled_writeCommand

Critical Paths under _main in BANK0

    None.

Critical Paths under _main in BANK1

    None.

Critical Paths under _main in BANK2

    None.

Critical Paths under _main in BANK3

    None.

Critical Paths under _main in BANK4

    None.

Critical Paths under _main in BANK5

    None.

Critical Paths under _main in BANK6

    None.

Critical Paths under _main in BANK7

    None.

Call Graph Tables:

 ---------------------------------------------------------------------------------
 (Depth) Function   	        Calls       Base Space   Used Autos Params    Refs
 ---------------------------------------------------------------------------------
 (0) _main                                                17    17      0   63482
                                             71 COMRAM     9     9      0
                      _Init_mod_LoRa
                            _Opening
                      _Read_LoRA_cmd
                  _SYSTEM_Initialize
                   _Send_Data_Pakect
                          _init_port
                         _oled_clear
                          _oled_init
                     _oled_putString
                        _sendCommand
 ---------------------------------------------------------------------------------
 (1) _oled_init                                            0     0      0    1502
                         _oled_clear
                       _oled_devInit
                    _oled_setDisplay
                       _oled_setFont
 ---------------------------------------------------------------------------------
 (2) _oled_setFont                                         2     0      2     120
                                              0 COMRAM     2     0      2
 ---------------------------------------------------------------------------------
 (2) _oled_setDisplay                                      1     1      0      44
                                              1 COMRAM     1     1      0
                  _oled_writeCommand
 ---------------------------------------------------------------------------------
 (2) _oled_devInit                                         1     1      0     199
                                              2 COMRAM     1     1      0
             _oled_initialDispayLine
                  _oled_powerControl
         _oled_regulorResistorSelect
    _oled_setContrastControlRegister
                  _oled_writeCommand
 ---------------------------------------------------------------------------------
 (3) _oled_setContrastControlRegister                      1     1      0      44
                                              1 COMRAM     1     1      0
                  _oled_writeCommand
 ---------------------------------------------------------------------------------
 (3) _oled_regulorResistorSelect                           1     1      0      44
                                              1 COMRAM     1     1      0
                  _oled_writeCommand
 ---------------------------------------------------------------------------------
 (3) _oled_powerControl                                    1     1      0      44
                                              1 COMRAM     1     1      0
                  _oled_writeCommand
 ---------------------------------------------------------------------------------
 (3) _oled_initialDispayLine                               1     1      0      45
                                              1 COMRAM     1     1      0
                  _oled_writeCommand
 ---------------------------------------------------------------------------------
 (1) _init_port                                            0     0      0       0
 ---------------------------------------------------------------------------------
 (1) _Send_Data_Pakect                                    31    21     10   17408
                                             40 COMRAM    31    21     10
                         _DATAtoHEXA
                            _Endline
                      _Read_LoRA_cmd
                       _oled_putChar
                     _oled_putString
                        _sendCommand
 ---------------------------------------------------------------------------------
 (2) _Endline                                              0     0      0      22
                      _EUSART1_Write
 ---------------------------------------------------------------------------------
 (2) _DATAtoHEXA                                          38    28     10    1765
                                              4 COMRAM    36    26     10
                                _Len
 ---------------------------------------------------------------------------------
 (3) _Len                                                  4     2      2     296
                                              0 COMRAM     4     2      2
 ---------------------------------------------------------------------------------
 (1) _SYSTEM_Initialize                                    0     0      0     294
                 _EUSART1_Initialize
              _OSCILLATOR_Initialize
             _PIN_MANAGER_Initialize
 ---------------------------------------------------------------------------------
 (2) _PIN_MANAGER_Initialize                               0     0      0       0
 ---------------------------------------------------------------------------------
 (2) _OSCILLATOR_Initialize                                0     0      0       0
 ---------------------------------------------------------------------------------
 (2) _EUSART1_Initialize                                   0     0      0     294
            _EUSART1_SetErrorHandler
     _EUSART1_SetFramingErrorHandler
     _EUSART1_SetOverrunErrorHandler
 ---------------------------------------------------------------------------------
 (3) _EUSART1_SetOverrunErrorHandler                       2     0      2      98
                                              0 COMRAM     2     0      2
 ---------------------------------------------------------------------------------
 (3) _EUSART1_SetFramingErrorHandler                       2     0      2      98
                                              0 COMRAM     2     0      2
 ---------------------------------------------------------------------------------
 (3) _EUSART1_SetErrorHandler                              2     0      2      98
                                              0 COMRAM     2     0      2
 ---------------------------------------------------------------------------------
 (1) _Opening                                             25    25      0   14454
                                             17 COMRAM    25    25      0
                         _oled_clear
                       _oled_putChar
                     _oled_putString
 ---------------------------------------------------------------------------------
 (1) _Init_mod_LoRa                                        2     2      0   14831
                                             17 COMRAM     2     2      0
                      _Read_LoRA_cmd
                         _oled_clear
                     _oled_putString
                        _sendCommand
 ---------------------------------------------------------------------------------
 (1) _sendCommand                                          2     0      2    1359
                                              1 COMRAM     2     0      2
                      _EUSART1_Write
 ---------------------------------------------------------------------------------
 (2) _EUSART1_Write                                        1     1      0      22
                                              0 COMRAM     1     1      0
 ---------------------------------------------------------------------------------
 (1) _oled_putString                                       5     1      4   12150
                                             12 COMRAM     5     1      4
                       _oled_putChar
 ---------------------------------------------------------------------------------
 (2) _oled_clear                                           0     0      0    1139
                      _oled_clearRow
 ---------------------------------------------------------------------------------
 (3) _oled_clearRow                                        2     2      0    1139
                                             12 COMRAM     2     2      0
                       _oled_putChar
 ---------------------------------------------------------------------------------
 (2) _oled_putChar                                        10     8      2    1049
                                              2 COMRAM    10     8      2
                 _Set_Column_Address
                   _Set_Page_Address
                     _oled_writeData
 ---------------------------------------------------------------------------------
 (3) _oled_writeData                                       1     1      0      22
                                              0 COMRAM     1     1      0
 ---------------------------------------------------------------------------------
 (3) _Set_Page_Address                                     1     1      0      67
                                              1 COMRAM     1     1      0
                  _oled_writeCommand
 ---------------------------------------------------------------------------------
 (3) _Set_Column_Address                                   1     1      0      66
                                              1 COMRAM     1     1      0
                  _oled_writeCommand
 ---------------------------------------------------------------------------------
 (4) _oled_writeCommand                                    1     1      0      22
                                              0 COMRAM     1     1      0
 ---------------------------------------------------------------------------------
 (2) _Read_LoRA_cmd                                        5     5      0     183
                                              0 COMRAM     5     5      0
                           _get_Data
 ---------------------------------------------------------------------------------
 (3) _get_Data                                             0     0      0       0
 ---------------------------------------------------------------------------------
 Estimated maximum stack depth 4
 ---------------------------------------------------------------------------------

 Call Graph Graphs:

 _main (ROOT)
   _Init_mod_LoRa
     _Read_LoRA_cmd
       _get_Data
     _oled_clear
       _oled_clearRow
         _oled_putChar
           _Set_Column_Address
             _oled_writeCommand
           _Set_Page_Address
             _oled_writeCommand
           _oled_writeData
     _oled_putString
       _oled_putChar
     _sendCommand
       _EUSART1_Write
   _Opening
     _oled_clear
     _oled_putChar
     _oled_putString
   _Read_LoRA_cmd
   _SYSTEM_Initialize
     _EUSART1_Initialize
       _EUSART1_SetErrorHandler
       _EUSART1_SetFramingErrorHandler
       _EUSART1_SetOverrunErrorHandler
     _OSCILLATOR_Initialize
     _PIN_MANAGER_Initialize
   _Send_Data_Pakect
     _DATAtoHEXA
       _Len
     _Endline
       _EUSART1_Write
     _Read_LoRA_cmd
     _oled_putChar
     _oled_putString
     _sendCommand
   _init_port
   _oled_clear
   _oled_init
     _oled_clear
     _oled_devInit
       _oled_initialDispayLine
         _oled_writeCommand
       _oled_powerControl
         _oled_writeCommand
       _oled_regulorResistorSelect
         _oled_writeCommand
       _oled_setContrastControlRegister
         _oled_writeCommand
       _oled_writeCommand
     _oled_setDisplay
       _oled_writeCommand
     _oled_setFont
   _oled_putString
   _sendCommand

 Address spaces:
Name               Size   Autos  Total    Cost      Usage
BIGRAM             7FF      0       0      21        0.0%
EEDATA             100      0       0       0        0.0%
BITBANK7           100      0       0      19        0.0%
BANK7              100      0       0      20        0.0%
BITBANK6           100      0       0      17        0.0%
BANK6              100      0       0      18        0.0%
BITBANK5           100      0       0      15        0.0%
BANK5              100      0       0      16        0.0%
BITBANK4           100      0       0      13        0.0%
BANK4              100      0       0      14        0.0%
BITBANK3           100      0       0      11        0.0%
BANK3              100      0       0      12        0.0%
BITBANK2           100      0       0       9        0.0%
BANK2              100      0       0      10        0.0%
BITBANK1           100      0       0       7        0.0%
BANK1              100      0      6C       8       42.2%
BITBANK0            A0      0       0       4        0.0%
BANK0               A0      0      93       5       91.9%
BITCOMRAM           5F      0       0       0        0.0%
COMRAM              5F     50      5F       1      100.0%
BITSFR_1             0      0       0     200        0.0%
SFR_1                0      0       0     200        0.0%
BITSFR               0      0       0     200        0.0%
SFR                  0      0       0     200        0.0%
STACK                0      0       0       2        0.0%
NULL                 0      0       0       0        0.0%
ABS                  0      0     15E       6        0.0%
DATA                 0      0     15E       3        0.0%
CODE                 0      0       0       0        0.0%


Microchip Technology PIC18 Macro Assembler V2.32 build 20210201212658 
Symbol Table                                                                                   Thu Oct 28 16:13:33 2021

                   Send_Data_Pakect@IDRecibeMsg 0029                                              _L1 7A53  
                                            _L2 7A4F                                              _L3 7A4B  
                                            _L4 7A47                                              _L5 7A43  
                                            _L6 7A3F                                              l51 67FE  
                                            l61 6D1E                                              _P1 7A3B  
                                            l62 6D50                                              _P2 7A37  
                                            _P3 7A33                                              _P4 7A2F  
                                            _P5 7A2B                                              l92 68CA  
                                            l95 68D8                                              l89 67E2  
                                            _bp 7D63                                              _cp 7A17  
                        __end_of_oled_writeData 6858                                             l400 6986  
                                           l162 68DA                                             l138 69FA  
                                           l235 6A38                                             l172 6882  
                                           l412 681E                                             l261 79F8  
                                           l421 67D4                                             l166 6900  
                                           l406 6842                                             l190 67A6  
                                           l351 680E                                             l415 67BC  
                                           l264 67F0                                             l409 6856  
                                           l169 6870                                             l193 67B0  
                                           l354 686C                                             l178 6A96  
                                           l418 67C8                                             l283 6E50  
                                           l196 679C                                             l381 6C78  
                                           l374 6BF8                                             l358 68B8  
                                           l384 689C                                             l392 6956  
                                           l473 729E                                             l466 69B4  
                                           l467 69BC                                             l395 6B7C  
                                           l389 6928                                             l574 718E  
                                           l497 755A                         ?_oled_initialDispayLine 0001  
                                           _Len 6988                                             _lg2 7A27  
                                           _log 0083                                             _ovt 7A1B  
                                           prod 000FF3                                             wreg 000FE8  
                                    _TXSTA1bits 000FAC                                            ?_Len 0001  
                                          l3000 7930                                            l3010 797E  
                                          l3002 7944                                            l3012 79BE  
                                          l3004 7950                                            l3020 6F82  
                                          l3014 79CA                                            l3006 7954  
                                          l3030 706C                                            l3022 6FE6  
                                          l3016 79CE                                            l3008 7968  
                                          l3040 70B8                                            l3032 7098  
                                          l3024 7004                                            l3018 79E2  
                                          l3050 70FE                                            l3042 70CC  
                                          l3034 70A4                                            l3026 7022  
                                          l3060 7150                                            l3052 7112  
                                          l3044 70D0                                            l3036 70B0  
                                          l3028 7040                                            l2510 683C  
                                          l3070 717C                                            l3046 70D4  
                                          l3038 70B4                                            l2512 683E  
                                          l2504 6832                                            l2520 6808  
                                          l3072 717E                                            l3056 7132  
                                          l3048 70E4                                            l2600 6812  
                                          l2514 6840                                            l2506 6836  
                                          l2530 684A                                            l3066 7154  
                                          l3058 7134                                            l2602 6818  
                                          l2508 683A                                            l2524 685A  
                                          l2532 684E                                            l2620 6BFE  
                                          l2612 6988                                            l3068 716C  
                                          l2700 689E                                            l2518 6802  
                                          l2534 6850                                            l2542 6B80  
                                          l2630 6C72                                            l2614 6994  
                                          l2606 67B4                                            l2710 6B1E  
                                          l2702 68B0                                            l2536 6852  
                                          l2528 6846                                            l2552 6B96  
                                          l2544 6B86                                            l2624 6C12  
                                          l2640 6A62                                            l2560 67A8  
                                          l2616 6998                                            l2800 74AC  
                                          l2608 67B6                                            l2720 6B46  
                                          l2712 6B20                                            l2704 6B06  
                                          l2570 68FA                                            l2650 6D92  
                                          l2538 6854                                            l2554 6BE6  
                                          l2546 6B92                                            l2634 6884  
                                          l2626 6C42                                            l2618 6BFA  
                                          l2642 6A66                                            l2562 6794  
                                          l2802 74D2                                            l2810 7514  
                                          l2730 6B64                                            l2722 6B4C  
                                          l2714 6B2E                                            l2706 6B0C  
                                          l2572 68FE                                            l2564 68DA  
                                          l2660 6DFA                                            l2652 6DAE  
                                          l2644 6D52                                            l2556 6BE8  
                                          l2580 6904                                            l2628 6C6E  
                                          l2636 6A3A                                            l2900 75FA  
                                          l2812 7532                                            l2804 74E6  
                                          l2732 6B6A                                            l2724 6B52  
                                          l2716 6B30                                            l2708 6B0E  
                                          l2740 696A                                            l2566 68E8  
                                          l2670 6E3A                                            l2662 6DFE  
                                          l2654 6DBA                                            l2646 6D6E  
                                          l2590 6918                                            l2638 6A3E  
                                          l2910 7654                                            l2902 75FE  
                                          l2558 679E                                            l2814 7546  
                                          l2806 750A                                            l2750 71DE  
                                          l2734 6B70                                            l2726 6B58  
                                          l2718 6B40                                            l2742 697A  
                                          l3710 6E56                                            l2568 68EC  
                                          l2664 6E06                                            l2656 6DCC  
                                          l2672 6E3E                                            l2648 6D8E  
                                          l2576 6870                                            l2920 76A2  
                                          l2912 7668                                            l2904 7628  
                                          l2840 6C90                                            l2680 6A1C  
                                          l2808 750E                                            l2760 7252  
                                          l2752 71F2                                            l2744 7190  
                                          l2832 67F2                                            l2592 67C0  
                                          l2736 6B76                                            l2728 6B5E  
                                          l3720 6E7C                                            l3712 6E5A  
                                          l2658 6DEA                                            l2586 6908  
                                          l2578 687E                                            l2930 76EE  
                                          l2922 76A6                                            l2914 7674  
                                          l2906 762C                                            l2850 6CCA  
                                          l2842 6C90                                            l2690 69D2  
                                          l2682 6A1E                                            l2674 69FC  
                                          l2770 731E                                            l2762 726E  
                                          l2754 720E                                            l2746 71B0  
                                          l2834 67FA                                            l2738 695A  
                                          l3730 6E8A                                            l3722 6E80  
                                          l3714 6E70                                            l3706 6E52  
                                          l2668 6E22                                            l2588 6916  
                                          l2940 7748                                            l2932 7706  
                                          l2924 76BA                                            l2916 7678  
                                          l2908 7640                                            l2860 6D4C  
                                          l2852 6CE2                                            l2844 6C94  
                                          l2836 6C7A                                            l2692 69DE  
                                          l2684 6A36                                            l2676 6A14  
                                          l2780 738A                                            l2772 733E  
                                          l2764 7282                                            l2756 7222  
                                          l2748 71C2                                            l2596 67CC  
                                          l3740 6EBA                                            l3732 6E8A  
                                          l3724 6E82                                            l3716 6E74  
                                          l3708 6E52                                            l2950 7796  
                                          l2942 775C                                            l2934 771C  
                                          l2926 76CE                                            l2918 768C  
                                          l2862 6D4E                                            l2854 6CE4  
                                          l2846 6CA8                                            l2838 6C7E  
                                          l2694 69EA                                            l2686 68BA  
                                          l2678 6A16                                            l2790 7424  
                                          l2782 73B0                                            l2774 7342  
                                          l2758 723E                                            l2766 729E  
                                          l2870 693C                                            l3750 6F00  
                                          l3742 6EBE                                            l3734 6E8A  
                                          l3726 6E86                                            l3718 6E78  
                                          l2960 77E6                                            l2952 779A  
                                          l2944 7768                                            l2936 7720  
                                          l2928 76E2                                            l2880 7560  
                                          l2856 6D22                                            l2848 6CB0  
                                          l2696 69F6                                            l2688 69BE  
                                          l2864 67D6                                            l2792 7438  
                                          l2784 73C4                                            l2776 7364  
                                          l2768 7304                                            l2872 6940  
                                          l3752 6F26                                            l3744 6ED2  
                                          l3736 6E9A                                            l3728 6E8A  
                                          l2970 783C                                            l2962 77FA  
                                          l2954 77AE                                            l2946 776C  
                                          l2938 7734                                            l2890 75AC  
                                          l2882 7574                                            l2858 6D36  
                                          l2866 67DE                                            l2794 745E  
                                          l2786 73EA                                            l2778 737E  
                                          l2698 67E4                                            l2874 6946  
                                          l3754 6F3C                                            l3746 6EE8  
                                          l3738 6EAE                                            l2980 788A  
                                          l2972 7850                                            l2964 7810  
                                          l2956 77C2                                            l2948 7780  
                                          l2892 75C2                                            l2884 7588  
                                          l2796 7472                                            l2788 73FE  
                                          l2876 6952                                            l2868 692A  
                                          l3756 6F62                                            l3748 6EEC  
                                          l2990 78DA                                            l2982 788E  
                                          l2974 785C                                            l2966 7814  
                                          l2958 77D6                                            l2894 75C6  
                                          l2886 7594                                            l2878 755C  
                                          l2798 7498                                            l2992 78EE  
                                          l2984 78A2                                            l2976 7860  
                                          l2968 7828                                            l2896 75DA  
                                          l2888 7598                                            l2994 7904  
                                          l2986 78B6                                            l2978 7874  
                                          l2898 75EE                                            l2996 7908  
                                          l2988 78D6                                            l2998 791C  
                        __size_of_Init_mod_LoRa 049E                                            STR_1 7FD6  
                                          STR_2 7EEA                                            STR_3 7FAD  
                                          STR_4 7FE0                                            STR_5 7F96  
                                          STR_6 7F62                                            STR_7 7F70  
                                          STR_8 7FFB                                            STR_9 7F38  
                                          u1300 6C0E                                            u1301 6C0A  
                                          u1310 6C32                                            u1400 6E36  
                                          u1240 6BF8                                            u1320 6C42  
                                          u1401 6E32                                            u1241 6BF4  
                                          u1321 6C3E                                            u1250 68E8  
                                          u1410 6E50                                            u1330 6C6A  
                                          u1251 68E4                                            u1411 6E4C  
                                          u1260 68FA                                            u1340 6A5E  
                                          u1420 68D8                                            u1500 72DE  
                                          u1261 68F6                                            u1317 6C28  
                                          u1421 68D4                                            _LATA 000F89  
                                          u1270 687E                                            u1350 6A86  
                                          u1510 7364                                            u1430 68B0  
                                          _LATB 000F8A                                            u1271 687A  
                                          u1511 7360                                            u1431 68AC  
                                          _LATC 000F8B                                            u1280 6928  
                                          u1360 6A96                                            u1520 73B0  
                                          u1440 696A                                            _LATD 000F8C  
                                          u1281 6924                                            u1337 6C60  
                                          u1361 6A92                                            u1521 73AC  
                                          u1505 72CC                                            u1441 6966  
                                          _LATE 000F8D                                            u1370 6DAE  
                                          u1290 69B4                                            u1530 73EA  
                                          u1450 71C2                                            u1371 6DAA  
                                          u1347 6A54                                            u1291 69B0  
                                          u1531 73E6                                            u1451 71BE  
                                          u1380 6DEA                                            u1540 7424  
                                          u1460 71F2                                            u1381 6DE6  
                                          u1357 6A7C                                            u1541 7420  
                                          u1461 71EE                                            u1390 6E22  
                                          u1550 745E                                            u1470 7222  
                                          u1391 6E1E                                            u1631 6C88  
                                          u1551 745A                                            u1471 721E  
                                          u1640 6D1E                                            u1560 7498  
                                          u1480 7252                                            u1641 6D1A  
                                          u1561 7494                                            u1481 724E  
                                          u1570 74D2                                            u1490 7282  
                                          u1650 70E4                                            u1571 74CE  
                                          u1491 727E                                            u1651 70E0  
                                          u1580 7532                                            u1660 7150  
                                          u1581 752E                                            u1661 714C  
                                          u1590 7546                                            u1670 718E  
                                          u1591 7542                                            u1671 718A  
                                          u4417 6E64                                            u4507 6D40  
                                          u4427 6EDC                                            u4517 75B6  
                                          u4437 6F30                                            u4607 79EC  
                                          u4527 761C                                            u4447 6F6C  
                                          u4537 7696                                            u4457 6B14  
                                          u4547 7710                                            u4467 6B26  
                                          u4557 778A                                            u4477 6B36  
                                          u4567 7804                                            u4487 7104  
                                          u4577 787E                                            u4497 6CD4  
                                          u4587 78F8                                            Len@L 0003  
                                          u4597 7972                                            _WPUB 000F85  
                                 _EUSART1_Write 686E                                            _cp_h 7D73  
                                          _cp_l 7D6F                                            _dp_h 7A03  
                                          _dp_l 79FB                                            _hexa 00AD  
                                          _main 6E52                             __size_of_DATAtoHEXA 03CC  
                                          _huge 7A5B                                            fsr0h 000FEA  
                                          _tiny 7A57                                            fsr1h 000FE2  
                                          indf0 000FEF                                            fsr2h 000FDA  
                                          fsr0l 000FE9                                            indf1 000FE7  
                                          indf2 000FDF                                            fsr1l 000FE1  
                                          fsr2l 000FD9                               sendCommand@String 0002  
                                          prodl 000FF3                                            start 0000  
                             DATAtoHEXA@datahex 0005                                 ?_oled_putString 000D  
                              ?_oled_setDisplay 0001                                 __end_of_Endline 67F2  
                                  ___param_bank 000000                                           ??_Len 0003  
                               __end_of_Opening 6D52                               DATAtoHEXA@residue 0017  
                __size_of_OSCILLATOR_Initialize 0020                  __end_of_oled_initialDispayLine 67BE  
                               ?_oled_writeData 0001                   __end_of_OSCILLATOR_Initialize 68DA  
                                         ?_main 0001                                           STR_10 7EB7  
                                         STR_11 7EFB                                           STR_12 7E83  
                                         STR_20 7D77                                           STR_21 7EB7  
                                         STR_13 7EB7                                           STR_14 7FF3  
                                         STR_22 7FA2                                           STR_30 7F29  
                                         STR_31 7F1A                                           STR_15 7F0B  
                                         STR_23 7EA6                                           STR_24 7E5E  
                                         STR_16 7E4B                                           STR_32 7E37  
                                         STR_40 7E0F                                           STR_41 7EB7  
                                         STR_33 7EB7                                           STR_25 7EB7  
                                         STR_17 7EB7                                           STR_34 7FEA  
                                         STR_42 7FCC                                           STR_26 7FC2  
                                         STR_18 7F7D                                           STR_35 7F54  
                                         STR_43 7F46                                           STR_27 7ED9  
                                         STR_19 7EC8                                           STR_36 7E71  
                                         STR_44 7E23                                           STR_28 7DFA  
                                         STR_37 7EB7                                           STR_29 7EB7  
                                         STR_45 7DC6                                           STR_38 7F8A  
                                         STR_46 7DE0                                           STR_39 7E95  
                                         STR_47 7D92                                           STR_48 7DAC  
                                         STR_49 7FB8                                   _Read_LoRA_cmd 6D52  
                                         _TRISA 000F92                                           _TRISB 000F93  
                                         _TRISC 000F94                                           _TRISD 000F95  
                                         _TRISE 000F96                               oled_putChar@index 000C  
                                         _lg2_h 7A23                                           _lg2_l 7A1F  
                                         _errno 0081                                           _ivln2 7A13  
                               __end_of_ivln2_h 7D6F                                 __end_of_ivln2_l 7A13  
                     Send_Data_Pakect@IDSendMsg 0045                                           _two24 7A5F  
                                ?_EUSART1_Write 0001                                           tablat 000FF5  
                                         plusw1 000FE3                                           plusw2 000FDB  
                    oled_setDisplay@displayType 0002                                           status 000FD8  
                                 main@Type_comm 004B              _EUSART1_DefaultFramingErrorHandler 000000  
                               __initialization 6A98                                    __end_of_cp_h 7D77  
                                  __end_of_cp_l 7D73                                    __end_of_dp_h 7A0B  
                                  __end_of_dp_l 7A03                      __end_of_EUSART1_Initialize 69FC  
                                  __end_of_main 6F80                                    __end_of_huge 7A5F  
                                  __end_of_tiny 7A5B                                   _Init_mod_LoRa 755C  
                                  ?_sendCommand 0002                                          ??_main 0048  
                                ?_Read_LoRA_cmd 0001                                   __activetblptr 000002  
                                    Opening@aux 0019                                          _ACTCON 000FB5  
                                        _ANSELA 000F5B                                          _ANSELB 000F5C  
                                        _ANSELC 000F5D                                          _ANSELD 000F5E  
                                        _ANSELE 000F5F                                          _RCREG1 000FAE  
                                        _RCSTA1 000FAB                                          _OSCCON 000FD3  
                                        _PLLRDY 007E97                                          _SPBRG1 000FAF  
                                     ??_Endline 0002                                          _TXREG1 000FAD  
                                        _TXSTA1 000FAC                                          _DataSP 0060  
                                 oled_putChar@k 000B                                __end_of_get_Data 6902  
                                     ??_Opening 0012                      __end_of_Set_Column_Address 686E  
                     __size_of_Set_Page_Address 0010                                  ?_Init_mod_LoRa 0001  
                      ?_EUSART1_SetErrorHandler 0001                                          _length 0057  
                                  ??_DATAtoHEXA 000F                                          clear_0 6ADE  
                                        clear_1 6AEA                                          clear_2 6AF6  
                      __end_of_Send_Data_Pakect 7190                                          isa$std 000001  
              ??_EUSART1_SetOverrunErrorHandler 0003                 ?_EUSART1_SetOverrunErrorHandler 0001  
                                  __pdataCOMRAM 005A                                    __mediumconst 79FA  
                                        tblptrh 000FF7                                          tblptrl 000FF6  
                                        tblptru 000FF8                                 ??_EUSART1_Write 0001  
                                  _LoRA_RX_data 0144                                _tiny@sqrtf$F1795 7A0B  
                                 ?_oled_devInit 0001                               Read_LoRA_cmd@Flag 0002  
                             _SYSTEM_Initialize 67D6                               Send_Data_Pakect@i 0046  
                             Send_Data_Pakect@j 0047                                      __accesstop 0060  
                       __end_of__initialization 6AFC                              ?_SYSTEM_Initialize 0001  
                            __end_of_DATAtoHEXA 755C                              oled_writeData@data 0001  
                                 ___rparam_used 000001                                   ?_oled_setFont 0001  
                                 ?_oled_putChar 0003                                  __pcstackCOMRAM 0001  
                           DATAtoHEXA@condition 0019                                    __pidataBANK0 6820  
                                 __end_of_lg2_h 7A27                                   __end_of_lg2_l 7A23  
                           ??_SYSTEM_Initialize 0003                                   __end_of_ivln2 7A17  
                                 __end_of_two24 7A63         __end_of_oled_setContrastControlRegister 6820  
      __size_of_oled_setContrastControlRegister 0010               ??_oled_setContrastControlRegister 0002  
              ?_oled_setContrastControlRegister 0001                 _oled_setContrastControlRegister 6810  
                               ??_Read_LoRA_cmd 0001                                      __end_of_L1 7A57  
                                    __end_of_L2 7A53                                      __end_of_L3 7A4F  
                                    __end_of_L4 7A4B                                      __end_of_L5 7A47  
                                    __end_of_L6 7A43                                      __end_of_P1 7A3F  
                                    __end_of_P2 7A3B                                      __end_of_P3 7A37  
                                    __end_of_P4 7A33                                      __end_of_P5 7A2F  
                                    __end_of_bp 7D6B                                      __end_of_cp 7A1B  
                             __end_of_OledFont0 7D63                                  ??_oled_devInit 0003  
                     __end_of_SYSTEM_Initialize 67E4                     Send_Data_Pakect@ChecksumAUX 003D  
                                    __pbssBANK0 0060                                      __pbssBANK1 0100  
                              ??_oled_putString 0011                     oled_regulorResistorSelect@r 0002  
                                ??_oled_setFont 0003                             oled_putString@index 0011  
                                ??_oled_putChar 0005                              __size_of_init_port 000E  
                        __size_of_oled_clearRow 0028                                     Opening@size 0029  
                        oled_putChar@start_page 0004                                 ??_Init_mod_LoRa 0012  
               __end_of_EUSART1_SetErrorHandler 679E                              __size_of_oled_init 002E  
                              ??_oled_writeData 0001                       Set_Column_Address@address 0002  
        __end_of_EUSART1_SetFramingErrorHandler 67A8         __size_of_EUSART1_SetFramingErrorHandler 000A  
                _EUSART1_SetFramingErrorHandler 679E                            __size_of_sendCommand 005E  
                                       Len@Data 0001                                         _OSCCON2 000FD2  
                                       _OSCTUNE 000F9B                                         _SPBRGH1 000FB0  
                                     ?_get_Data 0001                                         _Endline 67E4  
                                       __Hparam 0000                                         __Lparam 0000  
                                       _Opening 6C7A                                _Set_Page_Address 6800  
            oled_setContrastControlRegister@mod 0002                                         __pcinit 6A98  
                                       __ramtop 0800                                         __ptext0 6E52  
                                       __ptext1 692A                                         __ptext2 689E  
                                       __ptext3 6958                                         __ptext4 6B06  
                                       __ptext5 6810                                         __ptext6 67CA  
                                       __ptext7 67BE                                         __ptext8 67B2  
                                       __ptext9 67F2                        __size_of_oled_setDisplay 0030  
                              oled_setFont@font 0001                                    __size_of_Len 0036  
                                    _int_to_hex 0100                           _OSCILLATOR_Initialize 68BA  
                                 _oled_clearRow 6902                                         _ivln2_h 7D6B  
                                       _ivln2_l 7A0F                                      _oled_clear 6884  
                             __end_of_init_port 6800                              _EUSART1_Initialize 69BE  
                      ??_PIN_MANAGER_Initialize 0001                                      ??_get_Data 0001  
                             __end_of_oled_init 6958                      __size_of_SYSTEM_Initialize 000E  
                          end_of_initialization 6AFC                             ?_EUSART1_Initialize 0001  
                                 __Lmediumconst 79FA                     _EUSART1_OverrunErrorHandler 0053  
                                     _ID_Master 005E                               _oled_powerControl 67BE  
                            ?_oled_powerControl 0001                                         postdec1 000FE5  
                                       postdec2 000FDD                                         postinc0 000FEE  
                                       postinc2 000FDE                        __end_of_tiny@sqrtf$F1795 7A0F  
                          __end_of_oled_devInit 6B7E                            ??_EUSART1_Initialize 0003  
                           ??_oled_powerControl 0002                               ?_Send_Data_Pakect 0029  
                                ?_oled_clearRow 0001                            __end_of_oled_setFont 68BA  
                            ??_Send_Data_Pakect 0033                              _Set_Column_Address 6858  
                          __end_of_oled_putChar 6BFA                                       _TRISAbits 000F92  
                                     _TRISBbits 000F93                                       _TRISCbits 000F94  
                                     _TRISEbits 000F96                __size_of_EUSART1_SetErrorHandler 000A  
                           EUSART1_Write@txData 0001                             ?_Set_Column_Address 0001  
                      oled_putString@start_page 0010                       __end_of_oled_powerControl 67CA  
                  ??_oled_regulorResistorSelect 0002                        ??_oled_initialDispayLine 0002  
                  Send_Data_Pakect@MeasuredData 002B                                DATAtoHEXA@result 001B  
                          ??_Set_Column_Address 0002                                   __pidataCOMRAM 678E  
                        ?_OSCILLATOR_Initialize 0001                        oled_writeCommand@command 0001  
                                   ?_oled_clear 0001                             start_initialization 6A98  
           __size_of_oled_regulorResistorSelect 000C                                     __end_of_Len 69BE  
               __size_of_PIN_MANAGER_Initialize 003E                                     __end_of_lg2 7A2B  
                                   __end_of_ovt 7A1F                               ??_oled_setDisplay 0002  
                                     _OledFont0 7A63                           __end_of_EUSART1_Write 6884  
                                   __pdataBANK0 00E3                                 ??_oled_clearRow 000D  
                         __end_of_Read_LoRA_cmd 6E52                       oled_putString@station_dot 000F  
                                   __pbssCOMRAM 0051                                  DATAtoHEXA@Type 000D  
                                  Opening@F5481 00E3                        __end_of_Set_Page_Address 6810  
                             __size_of_get_Data 0028                ??_EUSART1_SetFramingErrorHandler 0003  
               ?_EUSART1_SetFramingErrorHandler 0001                      __size_of_oled_powerControl 000C  
                                      ?_Endline 0001                            oled_putString@string 000D  
                             _oled_writeCommand 6830                           __size_of_oled_devInit 0078  
                       oled_putChar@station_dot 0003                          _PIN_MANAGER_Initialize 69FC  
                                      ?_Opening 0001                             __size_of_oled_clear 001A  
                                   _cmd_message 0085                 __size_of_oled_initialDispayLine 000C  
                            ?_oled_writeCommand 0001                                   __pmediumconst 79FA  
                         __end_of_Init_mod_LoRa 79FA                           __size_of_oled_setFont 001C  
                                 ??_sendCommand 0004                           __size_of_oled_putChar 007C  
                                     _buff_size 005F                             ??_oled_writeCommand 0001  
                                     fabsf@F465 007D                                        _BAUDCON1 000FB8  
            _EUSART1_DefaultOverrunErrorHandler 000000                            _EUSART1_ErrorHandler 0051  
                       _EUSART1_SetErrorHandler 6794                                       _auxiliary 00CF  
                                     _init_port 67F2                                    _oled_devInit 6B06  
            __end_of_oled_regulorResistorSelect 67D6                      _oled_regulorResistorSelect 67CA  
                                     _oled_init 692A                                        _LATAbits 000F89  
                     __end_of_oled_writeCommand 6844         EUSART1_SetErrorHandler@interruptHandler 0001  
                                      _LATBbits 000F8A                                        _LATCbits 000F8B  
                                      _LATEbits 000F8D                                    _oled_setFont 689E  
                                      _ID_Slave 005D                                    _oled_putChar 6B7E  
                                      _PIR1bits 000F9E                         __size_of_oled_putString 0080  
                   Send_Data_Pakect@TypeCommand 002A                         Set_Page_Address@address 0002  
                       __size_of_oled_writeData 0014                                        _DataTime 0074  
                           __end_of_sendCommand 6A98                          _oled_initialDispayLine 67B2  
                                    ?_init_port 0001                                     _INTCON2bits 000FF1  
                                     copy_data0 6AAC                                       copy_data1 6ACC  
                                    ?_oled_init 0001                       __size_of_Send_Data_Pakect 0210  
                                      Opening@i 002A                                __size_of_Endline 000E  
                                      __Hrparam 0000                                        __Lrparam 0000  
                              __size_of_Opening 00D8                         ??_OSCILLATOR_Initialize 0001  
                    oled_initialDispayLine@line 0002                                    _selectedFont 005A  
                   __size_of_EUSART1_Initialize 003E                                 _oled_setDisplay 6958  
                                    _DATAtoHEXA 7190                       ??_EUSART1_SetErrorHandler 0003  
                   _EUSART1_DefaultErrorHandler 000000                                    ??_oled_clear 000F  
                                   DATAtoHEXA@i 0023                                     DATAtoHEXA@j 0025  
                                   DATAtoHEXA@k 0027                                        _get_Data 68DA  
                                      __ptext10 6F80                                        __ptext11 67E4  
                                      __ptext20 6794                                        __ptext12 7190  
                                      __ptext21 6C7A                                        __ptext13 6988  
                                      __ptext30 6800                                        __ptext22 755C  
                                      __ptext14 67D6                                        __ptext31 6858  
                                      __ptext23 6A3A                                        __ptext15 69FC  
                                      __ptext32 6830                                        __ptext24 686E  
                                      __ptext16 68BA                                        __ptext33 6D52  
                                      __ptext25 6BFA                                        __ptext17 69BE  
                                      __ptext34 68DA                                        __ptext26 6884  
                                      __ptext18 67A8                                        __ptext27 6902  
                                      __ptext19 679E                                        __ptext28 6B7E  
                                      __ptext29 6844                                   __size_of_main 012E  
                    __size_of_oled_writeCommand 0014                                  _Contrast_level 005C  
EUSART1_SetOverrunErrorHandler@interruptHandler 0001                              __end_of_oled_clear 689E  
                                      isa$xinst 000000                                        main@Date 004C  
                   __size_of_Set_Column_Address 0016                                     _sendCommand 6A3A  
                            oled_clearRow@index 000E                     _EUSART1_FramingErrorHandler 0055  
                                    _INTCONbits 000FF2                                  Read_LoRA_cmd@i 0004  
                             ?_Set_Page_Address 0001                                     ??_init_port 0001  
                                   ??_oled_init 000F                              ??_Set_Page_Address 0002  
                          oled_powerControl@vol 0002                         ?_PIN_MANAGER_Initialize 0001  
        __end_of_EUSART1_SetOverrunErrorHandler 67B2         __size_of_EUSART1_SetOverrunErrorHandler 000A  
                _EUSART1_SetOverrunErrorHandler 67A8                                      _RCSTA1bits 000FAB  
                       __end_of_oled_setDisplay 6988                                   main@ID_Master 004A  
                                _oled_putString 6BFA                               oled_clearRow@page 000D  
EUSART1_SetFramingErrorHandler@interruptHandler 0001                                     ?_DATAtoHEXA 0005  
                        __size_of_EUSART1_Write 0016                              _eusart1RxLastError 0059  
                         __end_of_oled_clearRow 692A                                  _oled_writeData 6844  
                                  main@ID_Slave 0050                  __end_of_PIN_MANAGER_Initialize 6A3A  
                   ?_oled_regulorResistorSelect 0001                                _Send_Data_Pakect 6F80  
                        __size_of_Read_LoRA_cmd 0100                          __end_of_oled_putString 6C7A  
